---
triple:          'arm64-apple-darwin'
binary-path:     main
relocations:
  - { offsetInCU: 0x52, offset: 0x52, size: 0x8, addend: 0x0, symName: _ValueTypeNames, symObjAddr: 0x1AAD70, symBinAddr: 0x100060000, symSize: 0x0 }
  - { offsetInCU: 0x47C0, offset: 0x47C0, size: 0x8, addend: 0x0, symName: __ZNSt3__115regex_constants13__get_grammarB8ue170006ENS0_18syntax_option_typeE, symObjAddr: 0x21E74, symBinAddr: 0x1000225AC, symSize: 0x18 }
  - { offsetInCU: 0x47EE, offset: 0x47EE, size: 0x8, addend: 0x0, symName: __ZNSt3__115regex_constantsoRB8ue170006ERNS0_18syntax_option_typeES1_, symObjAddr: 0x21E8C, symBinAddr: 0x1000225C4, symSize: 0x3C }
  - { offsetInCU: 0x482B, offset: 0x482B, size: 0x8, addend: 0x0, symName: __ZNSt3__115regex_constantsorB8ue170006ENS0_18syntax_option_typeES1_, symObjAddr: 0x2214C, symBinAddr: 0x100022884, symSize: 0x20 }
  - { offsetInCU: 0x4868, offset: 0x4868, size: 0x8, addend: 0x0, symName: __ZNSt3__115regex_constantsanB8ue170006ENS0_18syntax_option_typeES1_, symObjAddr: 0x25648, symBinAddr: 0x100025D80, symSize: 0x20 }
  - { offsetInCU: 0x48A5, offset: 0x48A5, size: 0x8, addend: 0x0, symName: __ZNSt3__115regex_constantsanB8ue170006ENS0_15match_flag_typeES1_, symObjAddr: 0x25890, symBinAddr: 0x100025FC8, symSize: 0x20 }
  - { offsetInCU: 0x48E2, offset: 0x48E2, size: 0x8, addend: 0x0, symName: __ZNSt3__115regex_constantsorB8ue170006ENS0_15match_flag_typeES1_, symObjAddr: 0x26F50, symBinAddr: 0x100027688, symSize: 0x20 }
  - { offsetInCU: 0x491F, offset: 0x491F, size: 0x8, addend: 0x0, symName: __ZNSt3__115regex_constantscoB8ue170006ENS0_15match_flag_typeE, symObjAddr: 0x26F70, symBinAddr: 0x1000276A8, symSize: 0x1C }
  - { offsetInCU: 0x494D, offset: 0x494D, size: 0x8, addend: 0x0, symName: __ZNSt3__115regex_constantsaNB8ue170006ERNS0_15match_flag_typeES1_, symObjAddr: 0x45FE4, symBinAddr: 0x10004671C, symSize: 0x3C }
  - { offsetInCU: 0x498A, offset: 0x498A, size: 0x8, addend: 0x0, symName: __ZNSt3__115regex_constantsoRB8ue170006ERNS0_15match_flag_typeES1_, symObjAddr: 0x46198, symBinAddr: 0x1000468D0, symSize: 0x3C }
  - { offsetInCU: 0xDAA7, offset: 0xDAA7, size: 0x8, addend: 0x0, symName: __ZNSt3__17advanceB8ue170006IPP18AbstractSyntaxTreellvEEvRT_T0_, symObjAddr: 0x1AF10, symBinAddr: 0x10001B648, symSize: 0x38 }
  - { offsetInCU: 0x172D7, offset: 0x172D7, size: 0x8, addend: 0x0, symName: __ZNSt3__17advanceB8ue170006IPKcllvEEvRT_T0_, symObjAddr: 0x25934, symBinAddr: 0x10002606C, symSize: 0x38 }
  - { offsetInCU: 0x1A5B7, offset: 0x1A5B7, size: 0x8, addend: 0x0, symName: __ZNSt3__16copy_nB8ue170006IPKcmPcEENS_9enable_ifIXsr37__has_random_access_iterator_categoryIT_EE5valueET1_E4typeES5_T0_S6_, symObjAddr: 0x41C1C, symBinAddr: 0x100042354, symSize: 0x44 }
  - { offsetInCU: 0x1CFAA, offset: 0x1CFAA, size: 0x8, addend: 0x0, symName: __ZNSt3__17advanceB8ue170006IPNS_9sub_matchIPKcEEllvEEvRT_T0_, symObjAddr: 0x4BE5C, symBinAddr: 0x10004C594, symSize: 0x38 }
  - { offsetInCU: 0x1D015, offset: 0x1D015, size: 0x8, addend: 0x0, symName: __ZNSt3__17advanceB8ue170006IPNS_4pairImPKcEEllvEEvRT_T0_, symObjAddr: 0x4C410, symBinAddr: 0x10004CB48, symSize: 0x38 }
  - { offsetInCU: 0x1D5B5, offset: 0x1D5B5, size: 0x8, addend: 0x0, symName: __ZNSt3__17advanceB8ue170006INS_11__wrap_iterIPKcEEllvEEvRT_T0_, symObjAddr: 0x4DFB8, symBinAddr: 0x10004E6F0, symSize: 0x38 }
  - { offsetInCU: 0x1DD1A, offset: 0x1DD1A, size: 0x8, addend: 0x0, symName: __ZNSt3__124__put_character_sequenceB8ue170006IcNS_11char_traitsIcEEEERNS_13basic_ostreamIT_T0_EES7_PKS4_m, symObjAddr: 0x5163C, symBinAddr: 0x100051D74, symSize: 0x1F4 }
  - { offsetInCU: 0x1FE77, offset: 0x1FE77, size: 0x8, addend: 0x0, symName: __ZNSt3__1plB8ue170006IcNS_11char_traitsIcEENS_9allocatorIcEEEENS_12basic_stringIT_T0_T1_EERKS9_SB_, symObjAddr: 0x208, symBinAddr: 0x100000940, symSize: 0x134 }
  - { offsetInCU: 0x1FF18, offset: 0x1FF18, size: 0x8, addend: 0x0, symName: __ZNSt3__1plB8ue170006IcNS_11char_traitsIcEENS_9allocatorIcEEEENS_12basic_stringIT_T0_T1_EERKS9_PKS6_, symObjAddr: 0x33C, symBinAddr: 0x100000A74, symSize: 0x11C }
  - { offsetInCU: 0x1FFB9, offset: 0x1FFB9, size: 0x8, addend: 0x0, symName: __ZNSt3__111regex_matchB8ue170006INS_11char_traitsIcEENS_9allocatorIcEEcNS_12regex_traitsIcEEEEbRKNS_12basic_stringIT1_T_T0_EERKNS_11basic_regexIS8_T2_EENS_15regex_constants15match_flag_typeE, symObjAddr: 0x1D9C, symBinAddr: 0x1000024D4, symSize: 0x54 }
  - { offsetInCU: 0x20029, offset: 0x20029, size: 0x8, addend: 0x0, symName: __ZNSt3__1eqB8ue170006IcNS_11char_traitsIcEENS_9allocatorIcEEEEbRKNS_12basic_stringIT_T0_T1_EEPKS6_, symObjAddr: 0xA4B8, symBinAddr: 0x10000ABF0, symSize: 0xC0 }
  - { offsetInCU: 0x20090, offset: 0x20090, size: 0x8, addend: 0x0, symName: __ZNSt3__1lsB8ue170006IcNS_11char_traitsIcEENS_9allocatorIcEEEERNS_13basic_ostreamIT_T0_EES9_RKNS_12basic_stringIS6_S7_T1_EE, symObjAddr: 0xF5BC, symBinAddr: 0x10000FCF4, symSize: 0x4C }
  - { offsetInCU: 0x200E8, offset: 0x200E8, size: 0x8, addend: 0x0, symName: __ZNSt3__14endlB8ue170006IcNS_11char_traitsIcEEEERNS_13basic_ostreamIT_T0_EES7_, symObjAddr: 0xF634, symBinAddr: 0x10000FD6C, symSize: 0x58 }
  - { offsetInCU: 0x20128, offset: 0x20128, size: 0x8, addend: 0x0, symName: __ZNSt3__1eqB8ue170006INS_9allocatorIcEEEEbRKNS_12basic_stringIcNS_11char_traitsIcEET_EES9_, symObjAddr: 0x1473C, symBinAddr: 0x100014E74, symSize: 0x148 }
  - { offsetInCU: 0x2019B, offset: 0x2019B, size: 0x8, addend: 0x0, symName: __ZNSt3__112__to_addressB8ue170006IKcEEPT_S3_, symObjAddr: 0x14984, symBinAddr: 0x1000150BC, symSize: 0x14 }
  - { offsetInCU: 0x2020E, offset: 0x2020E, size: 0x8, addend: 0x0, symName: __ZNSt3__130__libcpp_is_constant_evaluatedB8ue170006Ev, symObjAddr: 0x14A88, symBinAddr: 0x1000151C0, symSize: 0xC }
  - { offsetInCU: 0x2022B, offset: 0x2022B, size: 0x8, addend: 0x0, symName: __ZNSt3__1neB8ue170006IcNS_11char_traitsIcEENS_9allocatorIcEEEEbRKNS_12basic_stringIT_T0_T1_EESB_, symObjAddr: 0x14A94, symBinAddr: 0x1000151CC, symSize: 0x34 }
  - { offsetInCU: 0x20283, offset: 0x20283, size: 0x8, addend: 0x0, symName: __ZNSt3__14copyB8ue170006INS_11__wrap_iterIPP18AbstractSyntaxTreeEES5_EET0_T_S7_S6_, symObjAddr: 0x15098, symBinAddr: 0x1000157D0, symSize: 0x60 }
  - { offsetInCU: 0x202DD, offset: 0x202DD, size: 0x8, addend: 0x0, symName: __ZNSt3__112__to_addressB8ue170006IP18AbstractSyntaxTreeEEPT_S4_, symObjAddr: 0x15764, symBinAddr: 0x100015E9C, symSize: 0x14 }
  - { offsetInCU: 0x20312, offset: 0x20312, size: 0x8, addend: 0x0, symName: __ZNSt3__13maxB8ue170006ImEERKT_S3_S3_, symObjAddr: 0x1592C, symBinAddr: 0x100016064, symSize: 0x2C }
  - { offsetInCU: 0x20355, offset: 0x20355, size: 0x8, addend: 0x0, symName: __ZNSt3__13minB8ue170006ImEERKT_S3_S3_, symObjAddr: 0x15958, symBinAddr: 0x100016090, symSize: 0x2C }
  - { offsetInCU: 0x20599, offset: 0x20599, size: 0x8, addend: 0x0, symName: __ZNSt3__13minB8ue170006ImNS_6__lessIvvEEEERKT_S5_S5_T0_, symObjAddr: 0x159E4, symBinAddr: 0x10001611C, symSize: 0x54 }
  - { offsetInCU: 0x20638, offset: 0x20638, size: 0x8, addend: 0x0, symName: __ZNSt3__120__throw_length_errorB8ue170006EPKc, symObjAddr: 0x15AC0, symBinAddr: 0x1000161F8, symSize: 0x64 }
  - { offsetInCU: 0x20662, offset: 0x20662, size: 0x8, addend: 0x0, symName: __ZNSt3__13maxB8ue170006ImNS_6__lessIvvEEEERKT_S5_S5_T0_, symObjAddr: 0x15C04, symBinAddr: 0x10001633C, symSize: 0x54 }
  - { offsetInCU: 0x206BC, offset: 0x206BC, size: 0x8, addend: 0x0, symName: __ZNSt3__119__allocate_at_leastB8ue170006INS_9allocatorIP18AbstractSyntaxTreeEEEENS_19__allocation_resultINS_16allocator_traitsIT_E7pointerEEERS7_m, symObjAddr: 0x15D68, symBinAddr: 0x1000164A0, symSize: 0x40 }
  - { offsetInCU: 0x206FF, offset: 0x206FF, size: 0x8, addend: 0x0, symName: __ZNSt3__117__libcpp_allocateB8ue170006Emm, symObjAddr: 0x15F34, symBinAddr: 0x10001666C, symSize: 0x28 }
  - { offsetInCU: 0x2073C, offset: 0x2073C, size: 0x8, addend: 0x0, symName: __ZNSt3__121__libcpp_operator_newB8ue170006IJmEEEPvDpT_, symObjAddr: 0x15F5C, symBinAddr: 0x100016694, symSize: 0x24 }
  - { offsetInCU: 0x20775, offset: 0x20775, size: 0x8, addend: 0x0, symName: __ZNSt3__142__uninitialized_allocator_move_if_noexceptB8ue170006INS_9allocatorIP18AbstractSyntaxTreeEENS_16reverse_iteratorIPS3_EES7_S3_vEET1_RT_T0_SB_S8_, symObjAddr: 0x16168, symBinAddr: 0x1000168A0, symSize: 0xE8 }
  - { offsetInCU: 0x207F2, offset: 0x207F2, size: 0x8, addend: 0x0, symName: __ZNSt3__14swapB8ue170006IPP18AbstractSyntaxTreeEEvRT_S5_, symObjAddr: 0x1629C, symBinAddr: 0x1000169D4, symSize: 0x3C }
  - { offsetInCU: 0x20843, offset: 0x20843, size: 0x8, addend: 0x0, symName: __ZNSt3__1neB8ue170006IPP18AbstractSyntaxTreeS3_EEbRKNS_16reverse_iteratorIT_EERKNS4_IT0_EE, symObjAddr: 0x163CC, symBinAddr: 0x100016B04, symSize: 0x48 }
  - { offsetInCU: 0x208B4, offset: 0x208B4, size: 0x8, addend: 0x0, symName: __ZNSt3__114__construct_atB8ue170006IP18AbstractSyntaxTreeJS2_EPS2_EEPT_S5_DpOT0_, symObjAddr: 0x16414, symBinAddr: 0x100016B4C, symSize: 0x2C }
  - { offsetInCU: 0x20924, offset: 0x20924, size: 0x8, addend: 0x0, symName: __ZNSt3__112__to_addressB8ue170006INS_16reverse_iteratorIPP18AbstractSyntaxTreeEEvEEu7__decayIDTclsr19__to_address_helperIT_EE6__callclsr3stdE7declvalIRKS6_EEEEES8_, symObjAddr: 0x16440, symBinAddr: 0x100016B78, symSize: 0x24 }
  - { offsetInCU: 0x2095A, offset: 0x2095A, size: 0x8, addend: 0x0, symName: __ZNSt3__14moveB8ue170006INS_16reverse_iteratorIPP18AbstractSyntaxTreeEES5_EET0_T_S7_S6_, symObjAddr: 0x164AC, symBinAddr: 0x100016BE4, symSize: 0x78 }
  - { offsetInCU: 0x209DD, offset: 0x209DD, size: 0x8, addend: 0x0, symName: __ZNSt3__16__moveB8ue170006INS_17_ClassicAlgPolicyENS_16reverse_iteratorIPP18AbstractSyntaxTreeEES6_S6_EENS_4pairIT0_T2_EES8_T1_S9_, symObjAddr: 0x16594, symBinAddr: 0x100016CCC, symSize: 0x64 }
  - { offsetInCU: 0x20A49, offset: 0x20A49, size: 0x8, addend: 0x0, symName: __ZNSt3__123__dispatch_copy_or_moveB8ue170006INS_17_ClassicAlgPolicyENS_11__move_loopIS1_EENS_14__move_trivialENS_16reverse_iteratorIPP18AbstractSyntaxTreeEES9_S9_EENS_4pairIT2_T4_EESB_T3_SC_, symObjAddr: 0x165F8, symBinAddr: 0x100016D30, symSize: 0x64 }
  - { offsetInCU: 0x20AC7, offset: 0x20AC7, size: 0x8, addend: 0x0, symName: __ZNSt3__121__unwrap_and_dispatchB8ue170006INS_10__overloadINS_11__move_loopINS_17_ClassicAlgPolicyEEENS_14__move_trivialEEENS_16reverse_iteratorIPP18AbstractSyntaxTreeEESB_SB_Li0EEENS_4pairIT0_T2_EESD_T1_SE_, symObjAddr: 0x1665C, symBinAddr: 0x100016D94, symSize: 0x12C }
  - { offsetInCU: 0x20B57, offset: 0x20B57, size: 0x8, addend: 0x0, symName: __ZNSt3__114__unwrap_rangeB8ue170006INS_16reverse_iteratorIPP18AbstractSyntaxTreeEES5_EENS_4pairIT0_S7_EET_S9_, symObjAddr: 0x16788, symBinAddr: 0x100016EC0, symSize: 0x84 }
  - { offsetInCU: 0x20D68, offset: 0x20D68, size: 0x8, addend: 0x0, symName: __ZNSt3__113__unwrap_iterB8ue170006INS_16reverse_iteratorIPP18AbstractSyntaxTreeEENS_18__unwrap_iter_implIS5_Lb0EEELi0EEEDTclsrT0_8__unwrapclsr3stdE7declvalIT_EEEES9_, symObjAddr: 0x168AC, symBinAddr: 0x100016FE4, symSize: 0x44 }
  - { offsetInCU: 0x20DAC, offset: 0x20DAC, size: 0x8, addend: 0x0, symName: __ZNSt3__19make_pairB8ue170006INS_16reverse_iteratorIPP18AbstractSyntaxTreeEES5_EENS_4pairINS_18__unwrap_ref_decayIT_E4typeENS7_IT0_E4typeEEEOS8_OSB_, symObjAddr: 0x168F0, symBinAddr: 0x100017028, symSize: 0x38 }
  - { offsetInCU: 0x20DFB, offset: 0x20DFB, size: 0x8, addend: 0x0, symName: __ZNSt3__114__rewrap_rangeB8ue170006INS_16reverse_iteratorIPP18AbstractSyntaxTreeEES5_EET_S6_T0_, symObjAddr: 0x16928, symBinAddr: 0x100017060, symSize: 0x5C }
  - { offsetInCU: 0x20E47, offset: 0x20E47, size: 0x8, addend: 0x0, symName: __ZNSt3__113__rewrap_iterB8ue170006INS_16reverse_iteratorIPP18AbstractSyntaxTreeEES5_NS_18__unwrap_iter_implIS5_Lb0EEEEET_S8_T0_, symObjAddr: 0x16984, symBinAddr: 0x1000170BC, symSize: 0x88 }
  - { offsetInCU: 0x21006, offset: 0x21006, size: 0x8, addend: 0x0, symName: __ZNSt3__119__libcpp_deallocateB8ue170006EPvmm, symObjAddr: 0x16DAC, symBinAddr: 0x1000174E4, symSize: 0x30 }
  - { offsetInCU: 0x2104E, offset: 0x2104E, size: 0x8, addend: 0x0, symName: __ZNSt3__127__do_deallocate_handle_sizeB8ue170006IJEEEvPvmDpT_, symObjAddr: 0x16DDC, symBinAddr: 0x100017514, symSize: 0x28 }
  - { offsetInCU: 0x2108C, offset: 0x2108C, size: 0x8, addend: 0x0, symName: __ZNSt3__124__libcpp_operator_deleteB8ue170006IJPvEEEvDpT_, symObjAddr: 0x16E04, symBinAddr: 0x10001753C, symSize: 0x24 }
  - { offsetInCU: 0x210C1, offset: 0x210C1, size: 0x8, addend: 0x0, symName: __ZNSt3__16__copyB8ue170006INS_17_ClassicAlgPolicyENS_11__wrap_iterIPP18AbstractSyntaxTreeEES6_S6_EENS_4pairIT0_T2_EES8_T1_S9_, symObjAddr: 0x16FC8, symBinAddr: 0x100017700, symSize: 0x5C }
  - { offsetInCU: 0x2112D, offset: 0x2112D, size: 0x8, addend: 0x0, symName: __ZNSt3__123__dispatch_copy_or_moveB8ue170006INS_17_ClassicAlgPolicyENS_11__copy_loopIS1_EENS_14__copy_trivialENS_11__wrap_iterIPP18AbstractSyntaxTreeEES9_S9_EENS_4pairIT2_T4_EESB_T3_SC_, symObjAddr: 0x17024, symBinAddr: 0x10001775C, symSize: 0x5C }
  - { offsetInCU: 0x211AB, offset: 0x211AB, size: 0x8, addend: 0x0, symName: __ZNSt3__121__unwrap_and_dispatchB8ue170006INS_10__overloadINS_11__copy_loopINS_17_ClassicAlgPolicyEEENS_14__copy_trivialEEENS_11__wrap_iterIPP18AbstractSyntaxTreeEESB_SB_Li0EEENS_4pairIT0_T2_EESD_T1_SE_, symObjAddr: 0x17080, symBinAddr: 0x1000177B8, symSize: 0xDC }
  - { offsetInCU: 0x2123A, offset: 0x2123A, size: 0x8, addend: 0x0, symName: __ZNSt3__114__unwrap_rangeB8ue170006INS_11__wrap_iterIPP18AbstractSyntaxTreeEES4_EENS_4pairIT0_S7_EET_S9_, symObjAddr: 0x1715C, symBinAddr: 0x100017894, symSize: 0x70 }
  - { offsetInCU: 0x2142D, offset: 0x2142D, size: 0x8, addend: 0x0, symName: __ZNSt3__113__unwrap_iterB8ue170006INS_11__wrap_iterIPP18AbstractSyntaxTreeEENS_18__unwrap_iter_implIS5_Lb1EEELi0EEEDTclsrT0_8__unwrapclsr3stdE7declvalIT_EEEES9_, symObjAddr: 0x17214, symBinAddr: 0x10001794C, symSize: 0x2C }
  - { offsetInCU: 0x21471, offset: 0x21471, size: 0x8, addend: 0x0, symName: __ZNSt3__19make_pairB8ue170006INS_11__wrap_iterIPP18AbstractSyntaxTreeEES5_EENS_4pairINS_18__unwrap_ref_decayIT_E4typeENS7_IT0_E4typeEEEOS8_OSB_, symObjAddr: 0x17240, symBinAddr: 0x100017978, symSize: 0x38 }
  - { offsetInCU: 0x214C0, offset: 0x214C0, size: 0x8, addend: 0x0, symName: __ZNSt3__114__rewrap_rangeB8ue170006INS_11__wrap_iterIPP18AbstractSyntaxTreeEES4_EET_S6_T0_, symObjAddr: 0x17278, symBinAddr: 0x1000179B0, symSize: 0x3C }
  - { offsetInCU: 0x2150C, offset: 0x2150C, size: 0x8, addend: 0x0, symName: __ZNSt3__113__rewrap_iterB8ue170006INS_11__wrap_iterIPP18AbstractSyntaxTreeEES4_NS_18__unwrap_iter_implIS5_Lb1EEEEET_S8_T0_, symObjAddr: 0x172B4, symBinAddr: 0x1000179EC, symSize: 0x60 }
  - { offsetInCU: 0x21561, offset: 0x21561, size: 0x8, addend: 0x0, symName: __ZNSt3__19make_pairB8ue170006IPP18AbstractSyntaxTreeS3_EENS_4pairINS_18__unwrap_ref_decayIT_E4typeENS5_IT0_E4typeEEEOS6_OS9_, symObjAddr: 0x17314, symBinAddr: 0x100017A4C, symSize: 0x38 }
  - { offsetInCU: 0x215B0, offset: 0x215B0, size: 0x8, addend: 0x0, symName: __ZNSt3__119__copy_trivial_implB8ue170006IP18AbstractSyntaxTreeS2_EENS_4pairIPT_PT0_EES5_S5_S7_, symObjAddr: 0x173BC, symBinAddr: 0x100017AF4, symSize: 0x80 }
  - { offsetInCU: 0x21618, offset: 0x21618, size: 0x8, addend: 0x0, symName: __ZNSt3__119__constexpr_memmoveB8ue170006IP18AbstractSyntaxTreeS2_Li0EEEPT_S4_PT0_NS_15__element_countE, symObjAddr: 0x1743C, symBinAddr: 0x100017B74, symSize: 0xA0 }
  - { offsetInCU: 0x21686, offset: 0x21686, size: 0x8, addend: 0x0, symName: __ZNSt3__19make_pairB8ue170006IRPP18AbstractSyntaxTreeS3_EENS_4pairINS_18__unwrap_ref_decayIT_E4typeENS6_IT0_E4typeEEEOS7_OSA_, symObjAddr: 0x174DC, symBinAddr: 0x100017C14, symSize: 0x38 }
  - { offsetInCU: 0x21728, offset: 0x21728, size: 0x8, addend: 0x0, symName: __ZNSt3__112__to_addressB8ue170006INS_11__wrap_iterIPP18AbstractSyntaxTreeEEvEEu7__decayIDTclsr19__to_address_helperIT_EE6__callclsr3stdE7declvalIRKS6_EEEEES8_, symObjAddr: 0x1753C, symBinAddr: 0x100017C74, symSize: 0x24 }
  - { offsetInCU: 0x218B0, offset: 0x218B0, size: 0x8, addend: 0x0, symName: __ZNSt3__14copyB8ue170006INS_11__wrap_iterIPP10ArgmentASTEES5_EET0_T_S7_S6_, symObjAddr: 0x18568, symBinAddr: 0x100018CA0, symSize: 0x60 }
  - { offsetInCU: 0x2190A, offset: 0x2190A, size: 0x8, addend: 0x0, symName: __ZNSt3__112__to_addressB8ue170006IP10ArgmentASTEEPT_S4_, symObjAddr: 0x18C34, symBinAddr: 0x10001936C, symSize: 0x14 }
  - { offsetInCU: 0x2193F, offset: 0x2193F, size: 0x8, addend: 0x0, symName: __ZNSt3__119__allocate_at_leastB8ue170006INS_9allocatorIP10ArgmentASTEEEENS_19__allocation_resultINS_16allocator_traitsIT_E7pointerEEERS7_m, symObjAddr: 0x19004, symBinAddr: 0x10001973C, symSize: 0x40 }
  - { offsetInCU: 0x21982, offset: 0x21982, size: 0x8, addend: 0x0, symName: __ZNSt3__142__uninitialized_allocator_move_if_noexceptB8ue170006INS_9allocatorIP10ArgmentASTEENS_16reverse_iteratorIPS3_EES7_S3_vEET1_RT_T0_SB_S8_, symObjAddr: 0x19384, symBinAddr: 0x100019ABC, symSize: 0xE8 }
  - { offsetInCU: 0x219FF, offset: 0x219FF, size: 0x8, addend: 0x0, symName: __ZNSt3__14swapB8ue170006IPP10ArgmentASTEEvRT_S5_, symObjAddr: 0x194B8, symBinAddr: 0x100019BF0, symSize: 0x3C }
  - { offsetInCU: 0x21A50, offset: 0x21A50, size: 0x8, addend: 0x0, symName: __ZNSt3__1neB8ue170006IPP10ArgmentASTS3_EEbRKNS_16reverse_iteratorIT_EERKNS4_IT0_EE, symObjAddr: 0x195E8, symBinAddr: 0x100019D20, symSize: 0x48 }
  - { offsetInCU: 0x21AC1, offset: 0x21AC1, size: 0x8, addend: 0x0, symName: __ZNSt3__114__construct_atB8ue170006IP10ArgmentASTJS2_EPS2_EEPT_S5_DpOT0_, symObjAddr: 0x19630, symBinAddr: 0x100019D68, symSize: 0x2C }
  - { offsetInCU: 0x21B31, offset: 0x21B31, size: 0x8, addend: 0x0, symName: __ZNSt3__112__to_addressB8ue170006INS_16reverse_iteratorIPP10ArgmentASTEEvEEu7__decayIDTclsr19__to_address_helperIT_EE6__callclsr3stdE7declvalIRKS6_EEEEES8_, symObjAddr: 0x1965C, symBinAddr: 0x100019D94, symSize: 0x24 }
  - { offsetInCU: 0x21B67, offset: 0x21B67, size: 0x8, addend: 0x0, symName: __ZNSt3__14moveB8ue170006INS_16reverse_iteratorIPP10ArgmentASTEES5_EET0_T_S7_S6_, symObjAddr: 0x196C8, symBinAddr: 0x100019E00, symSize: 0x78 }
  - { offsetInCU: 0x21BEA, offset: 0x21BEA, size: 0x8, addend: 0x0, symName: __ZNSt3__16__moveB8ue170006INS_17_ClassicAlgPolicyENS_16reverse_iteratorIPP10ArgmentASTEES6_S6_EENS_4pairIT0_T2_EES8_T1_S9_, symObjAddr: 0x197B0, symBinAddr: 0x100019EE8, symSize: 0x64 }
  - { offsetInCU: 0x21C56, offset: 0x21C56, size: 0x8, addend: 0x0, symName: __ZNSt3__123__dispatch_copy_or_moveB8ue170006INS_17_ClassicAlgPolicyENS_11__move_loopIS1_EENS_14__move_trivialENS_16reverse_iteratorIPP10ArgmentASTEES9_S9_EENS_4pairIT2_T4_EESB_T3_SC_, symObjAddr: 0x19814, symBinAddr: 0x100019F4C, symSize: 0x64 }
  - { offsetInCU: 0x21CD4, offset: 0x21CD4, size: 0x8, addend: 0x0, symName: __ZNSt3__121__unwrap_and_dispatchB8ue170006INS_10__overloadINS_11__move_loopINS_17_ClassicAlgPolicyEEENS_14__move_trivialEEENS_16reverse_iteratorIPP10ArgmentASTEESB_SB_Li0EEENS_4pairIT0_T2_EESD_T1_SE_, symObjAddr: 0x19878, symBinAddr: 0x100019FB0, symSize: 0x12C }
  - { offsetInCU: 0x21D64, offset: 0x21D64, size: 0x8, addend: 0x0, symName: __ZNSt3__114__unwrap_rangeB8ue170006INS_16reverse_iteratorIPP10ArgmentASTEES5_EENS_4pairIT0_S7_EET_S9_, symObjAddr: 0x199A4, symBinAddr: 0x10001A0DC, symSize: 0x84 }
  - { offsetInCU: 0x21E5D, offset: 0x21E5D, size: 0x8, addend: 0x0, symName: __ZNSt3__113__unwrap_iterB8ue170006INS_16reverse_iteratorIPP10ArgmentASTEENS_18__unwrap_iter_implIS5_Lb0EEELi0EEEDTclsrT0_8__unwrapclsr3stdE7declvalIT_EEEES9_, symObjAddr: 0x19AC8, symBinAddr: 0x10001A200, symSize: 0x44 }
  - { offsetInCU: 0x21EA1, offset: 0x21EA1, size: 0x8, addend: 0x0, symName: __ZNSt3__19make_pairB8ue170006INS_16reverse_iteratorIPP10ArgmentASTEES5_EENS_4pairINS_18__unwrap_ref_decayIT_E4typeENS7_IT0_E4typeEEEOS8_OSB_, symObjAddr: 0x19B0C, symBinAddr: 0x10001A244, symSize: 0x38 }
  - { offsetInCU: 0x21EF0, offset: 0x21EF0, size: 0x8, addend: 0x0, symName: __ZNSt3__114__rewrap_rangeB8ue170006INS_16reverse_iteratorIPP10ArgmentASTEES5_EET_S6_T0_, symObjAddr: 0x19B44, symBinAddr: 0x10001A27C, symSize: 0x5C }
  - { offsetInCU: 0x21F3C, offset: 0x21F3C, size: 0x8, addend: 0x0, symName: __ZNSt3__113__rewrap_iterB8ue170006INS_16reverse_iteratorIPP10ArgmentASTEES5_NS_18__unwrap_iter_implIS5_Lb0EEEEET_S8_T0_, symObjAddr: 0x19BA0, symBinAddr: 0x10001A2D8, symSize: 0x88 }
  - { offsetInCU: 0x21FFD, offset: 0x21FFD, size: 0x8, addend: 0x0, symName: __ZNSt3__16__copyB8ue170006INS_17_ClassicAlgPolicyENS_11__wrap_iterIPP10ArgmentASTEES6_S6_EENS_4pairIT0_T2_EES8_T1_S9_, symObjAddr: 0x1A168, symBinAddr: 0x10001A8A0, symSize: 0x5C }
  - { offsetInCU: 0x22069, offset: 0x22069, size: 0x8, addend: 0x0, symName: __ZNSt3__123__dispatch_copy_or_moveB8ue170006INS_17_ClassicAlgPolicyENS_11__copy_loopIS1_EENS_14__copy_trivialENS_11__wrap_iterIPP10ArgmentASTEES9_S9_EENS_4pairIT2_T4_EESB_T3_SC_, symObjAddr: 0x1A1C4, symBinAddr: 0x10001A8FC, symSize: 0x5C }
  - { offsetInCU: 0x220E7, offset: 0x220E7, size: 0x8, addend: 0x0, symName: __ZNSt3__121__unwrap_and_dispatchB8ue170006INS_10__overloadINS_11__copy_loopINS_17_ClassicAlgPolicyEEENS_14__copy_trivialEEENS_11__wrap_iterIPP10ArgmentASTEESB_SB_Li0EEENS_4pairIT0_T2_EESD_T1_SE_, symObjAddr: 0x1A220, symBinAddr: 0x10001A958, symSize: 0xDC }
  - { offsetInCU: 0x22176, offset: 0x22176, size: 0x8, addend: 0x0, symName: __ZNSt3__114__unwrap_rangeB8ue170006INS_11__wrap_iterIPP10ArgmentASTEES4_EENS_4pairIT0_S7_EET_S9_, symObjAddr: 0x1A2FC, symBinAddr: 0x10001AA34, symSize: 0x70 }
  - { offsetInCU: 0x2226F, offset: 0x2226F, size: 0x8, addend: 0x0, symName: __ZNSt3__113__unwrap_iterB8ue170006INS_11__wrap_iterIPP10ArgmentASTEENS_18__unwrap_iter_implIS5_Lb1EEELi0EEEDTclsrT0_8__unwrapclsr3stdE7declvalIT_EEEES9_, symObjAddr: 0x1A3B4, symBinAddr: 0x10001AAEC, symSize: 0x2C }
  - { offsetInCU: 0x222B3, offset: 0x222B3, size: 0x8, addend: 0x0, symName: __ZNSt3__19make_pairB8ue170006INS_11__wrap_iterIPP10ArgmentASTEES5_EENS_4pairINS_18__unwrap_ref_decayIT_E4typeENS7_IT0_E4typeEEEOS8_OSB_, symObjAddr: 0x1A3E0, symBinAddr: 0x10001AB18, symSize: 0x38 }
  - { offsetInCU: 0x22302, offset: 0x22302, size: 0x8, addend: 0x0, symName: __ZNSt3__114__rewrap_rangeB8ue170006INS_11__wrap_iterIPP10ArgmentASTEES4_EET_S6_T0_, symObjAddr: 0x1A418, symBinAddr: 0x10001AB50, symSize: 0x3C }
  - { offsetInCU: 0x2234E, offset: 0x2234E, size: 0x8, addend: 0x0, symName: __ZNSt3__113__rewrap_iterB8ue170006INS_11__wrap_iterIPP10ArgmentASTEES4_NS_18__unwrap_iter_implIS5_Lb1EEEEET_S8_T0_, symObjAddr: 0x1A454, symBinAddr: 0x10001AB8C, symSize: 0x60 }
  - { offsetInCU: 0x223A3, offset: 0x223A3, size: 0x8, addend: 0x0, symName: __ZNSt3__19make_pairB8ue170006IPP10ArgmentASTS3_EENS_4pairINS_18__unwrap_ref_decayIT_E4typeENS5_IT0_E4typeEEEOS6_OS9_, symObjAddr: 0x1A4B4, symBinAddr: 0x10001ABEC, symSize: 0x38 }
  - { offsetInCU: 0x223F2, offset: 0x223F2, size: 0x8, addend: 0x0, symName: __ZNSt3__119__copy_trivial_implB8ue170006IP10ArgmentASTS2_EENS_4pairIPT_PT0_EES5_S5_S7_, symObjAddr: 0x1A55C, symBinAddr: 0x10001AC94, symSize: 0x80 }
  - { offsetInCU: 0x2245A, offset: 0x2245A, size: 0x8, addend: 0x0, symName: __ZNSt3__119__constexpr_memmoveB8ue170006IP10ArgmentASTS2_Li0EEEPT_S4_PT0_NS_15__element_countE, symObjAddr: 0x1A5DC, symBinAddr: 0x10001AD14, symSize: 0xA0 }
  - { offsetInCU: 0x224C8, offset: 0x224C8, size: 0x8, addend: 0x0, symName: __ZNSt3__19make_pairB8ue170006IRPP10ArgmentASTS3_EENS_4pairINS_18__unwrap_ref_decayIT_E4typeENS6_IT0_E4typeEEEOS7_OSA_, symObjAddr: 0x1A67C, symBinAddr: 0x10001ADB4, symSize: 0x38 }
  - { offsetInCU: 0x2256A, offset: 0x2256A, size: 0x8, addend: 0x0, symName: __ZNSt3__112__to_addressB8ue170006INS_11__wrap_iterIPP10ArgmentASTEEvEEu7__decayIDTclsr19__to_address_helperIT_EE6__callclsr3stdE7declvalIRKS6_EEEEES8_, symObjAddr: 0x1A6DC, symBinAddr: 0x10001AE14, symSize: 0x24 }
  - { offsetInCU: 0x226F2, offset: 0x226F2, size: 0x8, addend: 0x0, symName: __ZNSt3__18distanceB8ue170006IPP18AbstractSyntaxTreeEENS_15iterator_traitsIT_E15difference_typeES5_S5_, symObjAddr: 0x1AC58, symBinAddr: 0x10001B390, symSize: 0x2C }
  - { offsetInCU: 0x22735, offset: 0x22735, size: 0x8, addend: 0x0, symName: __ZNSt3__14nextB8ue170006IPP18AbstractSyntaxTreeEENS_9enable_ifIXsr29__has_input_iterator_categoryIT_EE5valueES5_E4typeES5_NS_15iterator_traitsIS5_E15difference_typeE, symObjAddr: 0x1AC84, symBinAddr: 0x10001B3BC, symSize: 0x34 }
  - { offsetInCU: 0x22778, offset: 0x22778, size: 0x8, addend: 0x0, symName: __ZNSt3__14copyB8ue170006IPP18AbstractSyntaxTreeS3_EET0_T_S5_S4_, symObjAddr: 0x1ACB8, symBinAddr: 0x10001B3F0, symSize: 0x40 }
  - { offsetInCU: 0x227D2, offset: 0x227D2, size: 0x8, addend: 0x0, symName: __ZNSt3__16__copyB8ue170006INS_17_ClassicAlgPolicyEPP18AbstractSyntaxTreeS4_S4_EENS_4pairIT0_T2_EES6_T1_S7_, symObjAddr: 0x1AD8C, symBinAddr: 0x10001B4C4, symSize: 0x44 }
  - { offsetInCU: 0x2283E, offset: 0x2283E, size: 0x8, addend: 0x0, symName: __ZNSt3__121__convert_to_integralB8ue170006El, symObjAddr: 0x1AF48, symBinAddr: 0x10001B680, symSize: 0x14 }
  - { offsetInCU: 0x2286A, offset: 0x2286A, size: 0x8, addend: 0x0, symName: __ZNSt3__19__advanceB8ue170006IPP18AbstractSyntaxTreeEEvRT_NS_15iterator_traitsIS4_E15difference_typeENS_26random_access_iterator_tagE, symObjAddr: 0x1AF5C, symBinAddr: 0x10001B694, symSize: 0x28 }
  - { offsetInCU: 0x228B3, offset: 0x228B3, size: 0x8, addend: 0x0, symName: __ZNSt3__130__uninitialized_allocator_copyB8ue170006INS_9allocatorIP18AbstractSyntaxTreeEEPS3_S5_S5_EET2_RT_T0_T1_S6_, symObjAddr: 0x1AF84, symBinAddr: 0x10001B6BC, symSize: 0x80 }
  - { offsetInCU: 0x22950, offset: 0x22950, size: 0x8, addend: 0x0, symName: __ZNSt3__114__unwrap_rangeB8ue170006IPP18AbstractSyntaxTreeS3_EENS_4pairIT0_S5_EET_S7_, symObjAddr: 0x1B004, symBinAddr: 0x10001B73C, symSize: 0x60 }
  - { offsetInCU: 0x2299C, offset: 0x2299C, size: 0x8, addend: 0x0, symName: __ZNSt3__135__uninitialized_allocator_copy_implB8ue170006INS_9allocatorIP18AbstractSyntaxTreeEEPS3_S5_S5_EET2_RT_T0_T1_S6_, symObjAddr: 0x1B064, symBinAddr: 0x10001B79C, symSize: 0xFC }
  - { offsetInCU: 0x22A3A, offset: 0x22A3A, size: 0x8, addend: 0x0, symName: __ZNSt3__113__unwrap_iterB8ue170006IPP18AbstractSyntaxTreeNS_18__unwrap_iter_implIS3_Lb1EEELi0EEEDTclsrT0_8__unwrapclsr3stdE7declvalIT_EEEES7_, symObjAddr: 0x1B160, symBinAddr: 0x10001B898, symSize: 0x24 }
  - { offsetInCU: 0x22A7E, offset: 0x22A7E, size: 0x8, addend: 0x0, symName: __ZNSt3__113__rewrap_iterB8ue170006IPP18AbstractSyntaxTreeS3_NS_18__unwrap_iter_implIS3_Lb1EEEEET_S6_T0_, symObjAddr: 0x1B184, symBinAddr: 0x10001B8BC, symSize: 0x50 }
  - { offsetInCU: 0x22AD3, offset: 0x22AD3, size: 0x8, addend: 0x0, symName: __ZNSt3__122__make_exception_guardB8ue170006INS_29_AllocatorDestroyRangeReverseINS_9allocatorIP18AbstractSyntaxTreeEEPS4_EEEENS_28__exception_guard_exceptionsIT_EES9_, symObjAddr: 0x1B1D4, symBinAddr: 0x10001B90C, symSize: 0x4C }
  - { offsetInCU: 0x22B09, offset: 0x22B09, size: 0x8, addend: 0x0, symName: __ZNSt3__119__allocator_destroyB8ue170006INS_9allocatorIP18AbstractSyntaxTreeEENS_16reverse_iteratorIPS3_EES7_EEvRT_T0_T1_, symObjAddr: 0x1B454, symBinAddr: 0x10001BB8C, symSize: 0x70 }
  - { offsetInCU: 0x22BBF, offset: 0x22BBF, size: 0x8, addend: 0x0, symName: __ZNSt3__123__dispatch_copy_or_moveB8ue170006INS_17_ClassicAlgPolicyENS_11__copy_loopIS1_EENS_14__copy_trivialEPP18AbstractSyntaxTreeS7_S7_EENS_4pairIT2_T4_EES9_T3_SA_, symObjAddr: 0x1B538, symBinAddr: 0x10001BC70, symSize: 0x44 }
  - { offsetInCU: 0x22C3D, offset: 0x22C3D, size: 0x8, addend: 0x0, symName: __ZNSt3__121__unwrap_and_dispatchB8ue170006INS_10__overloadINS_11__copy_loopINS_17_ClassicAlgPolicyEEENS_14__copy_trivialEEEPP18AbstractSyntaxTreeS9_S9_Li0EEENS_4pairIT0_T2_EESB_T1_SC_, symObjAddr: 0x1B57C, symBinAddr: 0x10001BCB4, symSize: 0xB4 }
  - { offsetInCU: 0x22CCB, offset: 0x22CCB, size: 0x8, addend: 0x0, symName: __ZNSt3__114__rewrap_rangeB8ue170006IPP18AbstractSyntaxTreeS3_EET_S4_T0_, symObjAddr: 0x1B630, symBinAddr: 0x10001BD68, symSize: 0x2C }
  - { offsetInCU: 0x22D17, offset: 0x22D17, size: 0x8, addend: 0x0, symName: __ZNSt3__110__distanceB8ue170006IPP18AbstractSyntaxTreeEENS_15iterator_traitsIT_E15difference_typeES5_S5_NS_26random_access_iterator_tagE, symObjAddr: 0x1B6C8, symBinAddr: 0x10001BE00, symSize: 0x28 }
  - { offsetInCU: 0x22D64, offset: 0x22D64, size: 0x8, addend: 0x0, symName: __ZNSt3__14copyB8ue170006INS_11__wrap_iterIP14AccessModifierEES4_EET0_T_S6_S5_, symObjAddr: 0x1BDC8, symBinAddr: 0x10001C500, symSize: 0x60 }
  - { offsetInCU: 0x22DBE, offset: 0x22DBE, size: 0x8, addend: 0x0, symName: __ZNSt3__14copyB8ue170006INS_11__wrap_iterIPNS_12basic_stringIcNS_11char_traitsIcEENS_9allocatorIcEEEEEES9_EET0_T_SB_SA_, symObjAddr: 0x1BF24, symBinAddr: 0x10001C65C, symSize: 0x60 }
  - { offsetInCU: 0x22E18, offset: 0x22E18, size: 0x8, addend: 0x0, symName: __ZNSt3__112__to_addressB8ue170006I14AccessModifierEEPT_S3_, symObjAddr: 0x1C5F0, symBinAddr: 0x10001CD28, symSize: 0x14 }
  - { offsetInCU: 0x22E4D, offset: 0x22E4D, size: 0x8, addend: 0x0, symName: __ZNSt3__119__allocate_at_leastB8ue170006INS_9allocatorI14AccessModifierEEEENS_19__allocation_resultINS_16allocator_traitsIT_E7pointerEEERS6_m, symObjAddr: 0x1C9C0, symBinAddr: 0x10001D0F8, symSize: 0x40 }
  - { offsetInCU: 0x22E90, offset: 0x22E90, size: 0x8, addend: 0x0, symName: __ZNSt3__142__uninitialized_allocator_move_if_noexceptB8ue170006INS_9allocatorI14AccessModifierEENS_16reverse_iteratorIPS2_EES6_S2_vEET1_RT_T0_SA_S7_, symObjAddr: 0x1CD40, symBinAddr: 0x10001D478, symSize: 0xE8 }
  - { offsetInCU: 0x22F0D, offset: 0x22F0D, size: 0x8, addend: 0x0, symName: __ZNSt3__14swapB8ue170006IP14AccessModifierEEvRT_S4_, symObjAddr: 0x1CE74, symBinAddr: 0x10001D5AC, symSize: 0x3C }
  - { offsetInCU: 0x22F5E, offset: 0x22F5E, size: 0x8, addend: 0x0, symName: __ZNSt3__1neB8ue170006IP14AccessModifierS2_EEbRKNS_16reverse_iteratorIT_EERKNS3_IT0_EE, symObjAddr: 0x1CFA4, symBinAddr: 0x10001D6DC, symSize: 0x48 }
  - { offsetInCU: 0x22FCF, offset: 0x22FCF, size: 0x8, addend: 0x0, symName: __ZNSt3__114__construct_atB8ue170006I14AccessModifierJS1_EPS1_EEPT_S4_DpOT0_, symObjAddr: 0x1CFEC, symBinAddr: 0x10001D724, symSize: 0x2C }
  - { offsetInCU: 0x2303F, offset: 0x2303F, size: 0x8, addend: 0x0, symName: __ZNSt3__112__to_addressB8ue170006INS_16reverse_iteratorIP14AccessModifierEEvEEu7__decayIDTclsr19__to_address_helperIT_EE6__callclsr3stdE7declvalIRKS5_EEEEES7_, symObjAddr: 0x1D018, symBinAddr: 0x10001D750, symSize: 0x24 }
  - { offsetInCU: 0x23075, offset: 0x23075, size: 0x8, addend: 0x0, symName: __ZNSt3__14moveB8ue170006INS_16reverse_iteratorIP14AccessModifierEES4_EET0_T_S6_S5_, symObjAddr: 0x1D084, symBinAddr: 0x10001D7BC, symSize: 0x78 }
  - { offsetInCU: 0x230F8, offset: 0x230F8, size: 0x8, addend: 0x0, symName: __ZNSt3__16__moveB8ue170006INS_17_ClassicAlgPolicyENS_16reverse_iteratorIP14AccessModifierEES5_S5_EENS_4pairIT0_T2_EES7_T1_S8_, symObjAddr: 0x1D16C, symBinAddr: 0x10001D8A4, symSize: 0x64 }
  - { offsetInCU: 0x23164, offset: 0x23164, size: 0x8, addend: 0x0, symName: __ZNSt3__123__dispatch_copy_or_moveB8ue170006INS_17_ClassicAlgPolicyENS_11__move_loopIS1_EENS_14__move_trivialENS_16reverse_iteratorIP14AccessModifierEES8_S8_EENS_4pairIT2_T4_EESA_T3_SB_, symObjAddr: 0x1D1D0, symBinAddr: 0x10001D908, symSize: 0x64 }
  - { offsetInCU: 0x231E2, offset: 0x231E2, size: 0x8, addend: 0x0, symName: __ZNSt3__121__unwrap_and_dispatchB8ue170006INS_10__overloadINS_11__move_loopINS_17_ClassicAlgPolicyEEENS_14__move_trivialEEENS_16reverse_iteratorIP14AccessModifierEESA_SA_Li0EEENS_4pairIT0_T2_EESC_T1_SD_, symObjAddr: 0x1D234, symBinAddr: 0x10001D96C, symSize: 0x12C }
  - { offsetInCU: 0x23272, offset: 0x23272, size: 0x8, addend: 0x0, symName: __ZNSt3__114__unwrap_rangeB8ue170006INS_16reverse_iteratorIP14AccessModifierEES4_EENS_4pairIT0_S6_EET_S8_, symObjAddr: 0x1D360, symBinAddr: 0x10001DA98, symSize: 0x84 }
  - { offsetInCU: 0x2336B, offset: 0x2336B, size: 0x8, addend: 0x0, symName: __ZNSt3__113__unwrap_iterB8ue170006INS_16reverse_iteratorIP14AccessModifierEENS_18__unwrap_iter_implIS4_Lb0EEELi0EEEDTclsrT0_8__unwrapclsr3stdE7declvalIT_EEEES8_, symObjAddr: 0x1D484, symBinAddr: 0x10001DBBC, symSize: 0x44 }
  - { offsetInCU: 0x233AF, offset: 0x233AF, size: 0x8, addend: 0x0, symName: __ZNSt3__19make_pairB8ue170006INS_16reverse_iteratorIP14AccessModifierEES4_EENS_4pairINS_18__unwrap_ref_decayIT_E4typeENS6_IT0_E4typeEEEOS7_OSA_, symObjAddr: 0x1D4C8, symBinAddr: 0x10001DC00, symSize: 0x38 }
  - { offsetInCU: 0x233FE, offset: 0x233FE, size: 0x8, addend: 0x0, symName: __ZNSt3__114__rewrap_rangeB8ue170006INS_16reverse_iteratorIP14AccessModifierEES4_EET_S5_T0_, symObjAddr: 0x1D500, symBinAddr: 0x10001DC38, symSize: 0x5C }
  - { offsetInCU: 0x2344A, offset: 0x2344A, size: 0x8, addend: 0x0, symName: __ZNSt3__113__rewrap_iterB8ue170006INS_16reverse_iteratorIP14AccessModifierEES4_NS_18__unwrap_iter_implIS4_Lb0EEEEET_S7_T0_, symObjAddr: 0x1D55C, symBinAddr: 0x10001DC94, symSize: 0x88 }
  - { offsetInCU: 0x2350B, offset: 0x2350B, size: 0x8, addend: 0x0, symName: __ZNSt3__16__copyB8ue170006INS_17_ClassicAlgPolicyENS_11__wrap_iterIP14AccessModifierEES5_S5_EENS_4pairIT0_T2_EES7_T1_S8_, symObjAddr: 0x1DB24, symBinAddr: 0x10001E25C, symSize: 0x5C }
  - { offsetInCU: 0x23577, offset: 0x23577, size: 0x8, addend: 0x0, symName: __ZNSt3__123__dispatch_copy_or_moveB8ue170006INS_17_ClassicAlgPolicyENS_11__copy_loopIS1_EENS_14__copy_trivialENS_11__wrap_iterIP14AccessModifierEES8_S8_EENS_4pairIT2_T4_EESA_T3_SB_, symObjAddr: 0x1DB80, symBinAddr: 0x10001E2B8, symSize: 0x5C }
  - { offsetInCU: 0x235F5, offset: 0x235F5, size: 0x8, addend: 0x0, symName: __ZNSt3__121__unwrap_and_dispatchB8ue170006INS_10__overloadINS_11__copy_loopINS_17_ClassicAlgPolicyEEENS_14__copy_trivialEEENS_11__wrap_iterIP14AccessModifierEESA_SA_Li0EEENS_4pairIT0_T2_EESC_T1_SD_, symObjAddr: 0x1DBDC, symBinAddr: 0x10001E314, symSize: 0xDC }
  - { offsetInCU: 0x23684, offset: 0x23684, size: 0x8, addend: 0x0, symName: __ZNSt3__114__unwrap_rangeB8ue170006INS_11__wrap_iterIP14AccessModifierEES3_EENS_4pairIT0_S6_EET_S8_, symObjAddr: 0x1DCB8, symBinAddr: 0x10001E3F0, symSize: 0x70 }
  - { offsetInCU: 0x2377D, offset: 0x2377D, size: 0x8, addend: 0x0, symName: __ZNSt3__113__unwrap_iterB8ue170006INS_11__wrap_iterIP14AccessModifierEENS_18__unwrap_iter_implIS4_Lb1EEELi0EEEDTclsrT0_8__unwrapclsr3stdE7declvalIT_EEEES8_, symObjAddr: 0x1DD70, symBinAddr: 0x10001E4A8, symSize: 0x2C }
  - { offsetInCU: 0x237C1, offset: 0x237C1, size: 0x8, addend: 0x0, symName: __ZNSt3__19make_pairB8ue170006INS_11__wrap_iterIP14AccessModifierEES4_EENS_4pairINS_18__unwrap_ref_decayIT_E4typeENS6_IT0_E4typeEEEOS7_OSA_, symObjAddr: 0x1DD9C, symBinAddr: 0x10001E4D4, symSize: 0x38 }
  - { offsetInCU: 0x23810, offset: 0x23810, size: 0x8, addend: 0x0, symName: __ZNSt3__114__rewrap_rangeB8ue170006INS_11__wrap_iterIP14AccessModifierEES3_EET_S5_T0_, symObjAddr: 0x1DDD4, symBinAddr: 0x10001E50C, symSize: 0x3C }
  - { offsetInCU: 0x2385C, offset: 0x2385C, size: 0x8, addend: 0x0, symName: __ZNSt3__113__rewrap_iterB8ue170006INS_11__wrap_iterIP14AccessModifierEES3_NS_18__unwrap_iter_implIS4_Lb1EEEEET_S7_T0_, symObjAddr: 0x1DE10, symBinAddr: 0x10001E548, symSize: 0x60 }
  - { offsetInCU: 0x238B1, offset: 0x238B1, size: 0x8, addend: 0x0, symName: __ZNSt3__19make_pairB8ue170006IP14AccessModifierS2_EENS_4pairINS_18__unwrap_ref_decayIT_E4typeENS4_IT0_E4typeEEEOS5_OS8_, symObjAddr: 0x1DE70, symBinAddr: 0x10001E5A8, symSize: 0x38 }
  - { offsetInCU: 0x23900, offset: 0x23900, size: 0x8, addend: 0x0, symName: __ZNSt3__119__copy_trivial_implB8ue170006I14AccessModifierS1_EENS_4pairIPT_PT0_EES4_S4_S6_, symObjAddr: 0x1DF18, symBinAddr: 0x10001E650, symSize: 0x80 }
  - { offsetInCU: 0x23968, offset: 0x23968, size: 0x8, addend: 0x0, symName: __ZNSt3__119__constexpr_memmoveB8ue170006I14AccessModifierS1_Li0EEEPT_S3_PT0_NS_15__element_countE, symObjAddr: 0x1DF98, symBinAddr: 0x10001E6D0, symSize: 0xA0 }
  - { offsetInCU: 0x239D6, offset: 0x239D6, size: 0x8, addend: 0x0, symName: __ZNSt3__19make_pairB8ue170006IRP14AccessModifierS2_EENS_4pairINS_18__unwrap_ref_decayIT_E4typeENS5_IT0_E4typeEEEOS6_OS9_, symObjAddr: 0x1E038, symBinAddr: 0x10001E770, symSize: 0x38 }
  - { offsetInCU: 0x23A78, offset: 0x23A78, size: 0x8, addend: 0x0, symName: __ZNSt3__112__to_addressB8ue170006INS_11__wrap_iterIP14AccessModifierEEvEEu7__decayIDTclsr19__to_address_helperIT_EE6__callclsr3stdE7declvalIRKS5_EEEEES7_, symObjAddr: 0x1E098, symBinAddr: 0x10001E7D0, symSize: 0x24 }
  - { offsetInCU: 0x23C00, offset: 0x23C00, size: 0x8, addend: 0x0, symName: __ZNSt3__112__to_addressB8ue170006INS_12basic_stringIcNS_11char_traitsIcEENS_9allocatorIcEEEEEEPT_S8_, symObjAddr: 0x1E8F0, symBinAddr: 0x10001F028, symSize: 0x14 }
  - { offsetInCU: 0x23C35, offset: 0x23C35, size: 0x8, addend: 0x0, symName: __ZNSt3__119__allocate_at_leastB8ue170006INS_9allocatorINS_12basic_stringIcNS_11char_traitsIcEENS1_IcEEEEEEEENS_19__allocation_resultINS_16allocator_traitsIT_E7pointerEEERSA_m, symObjAddr: 0x1ECE4, symBinAddr: 0x10001F41C, symSize: 0x40 }
  - { offsetInCU: 0x23C78, offset: 0x23C78, size: 0x8, addend: 0x0, symName: __ZNSt3__142__uninitialized_allocator_move_if_noexceptB8ue170006INS_9allocatorINS_12basic_stringIcNS_11char_traitsIcEENS1_IcEEEEEENS_16reverse_iteratorIPS6_EESA_SA_EET2_RT_T0_T1_SB_, symObjAddr: 0x1F090, symBinAddr: 0x10001F7C8, symSize: 0x134 }
  - { offsetInCU: 0x23D18, offset: 0x23D18, size: 0x8, addend: 0x0, symName: __ZNSt3__14swapB8ue170006IPNS_12basic_stringIcNS_11char_traitsIcEENS_9allocatorIcEEEEEEvRT_S9_, symObjAddr: 0x1F210, symBinAddr: 0x10001F948, symSize: 0x3C }
  - { offsetInCU: 0x23D69, offset: 0x23D69, size: 0x8, addend: 0x0, symName: __ZNSt3__122__make_exception_guardB8ue170006INS_29_AllocatorDestroyRangeReverseINS_9allocatorINS_12basic_stringIcNS_11char_traitsIcEENS2_IcEEEEEENS_16reverse_iteratorIPS7_EEEEEENS_28__exception_guard_exceptionsIT_EESE_, symObjAddr: 0x1F35C, symBinAddr: 0x10001FA94, symSize: 0x4C }
  - { offsetInCU: 0x23D9F, offset: 0x23D9F, size: 0x8, addend: 0x0, symName: __ZNSt3__1neB8ue170006IPNS_12basic_stringIcNS_11char_traitsIcEENS_9allocatorIcEEEES7_EEbRKNS_16reverse_iteratorIT_EERKNS8_IT0_EE, symObjAddr: 0x1F3EC, symBinAddr: 0x10001FB24, symSize: 0x48 }
  - { offsetInCU: 0x23DEB, offset: 0x23DEB, size: 0x8, addend: 0x0, symName: __ZNSt3__112__to_addressB8ue170006INS_16reverse_iteratorIPNS_12basic_stringIcNS_11char_traitsIcEENS_9allocatorIcEEEEEEvEEu7__decayIDTclsr19__to_address_helperIT_EE6__callclsr3stdE7declvalIRKSA_EEEEESC_, symObjAddr: 0x1F468, symBinAddr: 0x10001FBA0, symSize: 0x24 }
  - { offsetInCU: 0x23E4A, offset: 0x23E4A, size: 0x8, addend: 0x0, symName: __ZNSt3__119__allocator_destroyB8ue170006INS_9allocatorINS_12basic_stringIcNS_11char_traitsIcEENS1_IcEEEEEENS_16reverse_iteratorINS8_IPS6_EEEESB_EEvRT_T0_T1_, symObjAddr: 0x1F754, symBinAddr: 0x10001FE8C, symSize: 0x70 }
  - { offsetInCU: 0x23EAF, offset: 0x23EAF, size: 0x8, addend: 0x0, symName: __ZNSt3__1neB8ue170006INS_16reverse_iteratorIPNS_12basic_stringIcNS_11char_traitsIcEENS_9allocatorIcEEEEEES9_EEbRKNS1_IT_EERKNS1_IT0_EE, symObjAddr: 0x1F800, symBinAddr: 0x10001FF38, symSize: 0x60 }
  - { offsetInCU: 0x23EFB, offset: 0x23EFB, size: 0x8, addend: 0x0, symName: __ZNSt3__112__to_addressB8ue170006INS_16reverse_iteratorINS1_IPNS_12basic_stringIcNS_11char_traitsIcEENS_9allocatorIcEEEEEEEEvEEu7__decayIDTclsr19__to_address_helperIT_EE6__callclsr3stdE7declvalIRKSB_EEEEESD_, symObjAddr: 0x1F88C, symBinAddr: 0x10001FFC4, symSize: 0x24 }
  - { offsetInCU: 0x23F5A, offset: 0x23F5A, size: 0x8, addend: 0x0, symName: __ZNSt3__16__copyB8ue170006INS_17_ClassicAlgPolicyENS_11__wrap_iterIPNS_12basic_stringIcNS_11char_traitsIcEENS_9allocatorIcEEEEEESA_SA_EENS_4pairIT0_T2_EESC_T1_SD_, symObjAddr: 0x1FE50, symBinAddr: 0x100020588, symSize: 0x5C }
  - { offsetInCU: 0x23FC6, offset: 0x23FC6, size: 0x8, addend: 0x0, symName: __ZNSt3__123__dispatch_copy_or_moveB8ue170006INS_17_ClassicAlgPolicyENS_11__copy_loopIS1_EENS_14__copy_trivialENS_11__wrap_iterIPNS_12basic_stringIcNS_11char_traitsIcEENS_9allocatorIcEEEEEESD_SD_EENS_4pairIT2_T4_EESF_T3_SG_, symObjAddr: 0x1FEAC, symBinAddr: 0x1000205E4, symSize: 0x5C }
  - { offsetInCU: 0x24044, offset: 0x24044, size: 0x8, addend: 0x0, symName: __ZNSt3__121__unwrap_and_dispatchB8ue170006INS_10__overloadINS_11__copy_loopINS_17_ClassicAlgPolicyEEENS_14__copy_trivialEEENS_11__wrap_iterIPNS_12basic_stringIcNS_11char_traitsIcEENS_9allocatorIcEEEEEESF_SF_Li0EEENS_4pairIT0_T2_EESH_T1_SI_, symObjAddr: 0x1FF08, symBinAddr: 0x100020640, symSize: 0xDC }
  - { offsetInCU: 0x240D3, offset: 0x240D3, size: 0x8, addend: 0x0, symName: __ZNSt3__114__unwrap_rangeB8ue170006INS_11__wrap_iterIPNS_12basic_stringIcNS_11char_traitsIcEENS_9allocatorIcEEEEEES8_EENS_4pairIT0_SB_EET_SD_, symObjAddr: 0x1FFE4, symBinAddr: 0x10002071C, symSize: 0x70 }
  - { offsetInCU: 0x2429C, offset: 0x2429C, size: 0x8, addend: 0x0, symName: __ZNSt3__113__unwrap_iterB8ue170006INS_11__wrap_iterIPNS_12basic_stringIcNS_11char_traitsIcEENS_9allocatorIcEEEEEENS_18__unwrap_iter_implIS9_Lb1EEELi0EEEDTclsrT0_8__unwrapclsr3stdE7declvalIT_EEEESD_, symObjAddr: 0x200DC, symBinAddr: 0x100020814, symSize: 0x2C }
  - { offsetInCU: 0x242E0, offset: 0x242E0, size: 0x8, addend: 0x0, symName: __ZNSt3__19make_pairB8ue170006INS_11__wrap_iterIPNS_12basic_stringIcNS_11char_traitsIcEENS_9allocatorIcEEEEEES9_EENS_4pairINS_18__unwrap_ref_decayIT_E4typeENSB_IT0_E4typeEEEOSC_OSF_, symObjAddr: 0x20108, symBinAddr: 0x100020840, symSize: 0x38 }
  - { offsetInCU: 0x2432F, offset: 0x2432F, size: 0x8, addend: 0x0, symName: __ZNSt3__114__rewrap_rangeB8ue170006INS_11__wrap_iterIPNS_12basic_stringIcNS_11char_traitsIcEENS_9allocatorIcEEEEEES8_EET_SA_T0_, symObjAddr: 0x20140, symBinAddr: 0x100020878, symSize: 0x3C }
  - { offsetInCU: 0x2437B, offset: 0x2437B, size: 0x8, addend: 0x0, symName: __ZNSt3__113__rewrap_iterB8ue170006INS_11__wrap_iterIPNS_12basic_stringIcNS_11char_traitsIcEENS_9allocatorIcEEEEEES8_NS_18__unwrap_iter_implIS9_Lb1EEEEET_SC_T0_, symObjAddr: 0x2017C, symBinAddr: 0x1000208B4, symSize: 0x60 }
  - { offsetInCU: 0x243D0, offset: 0x243D0, size: 0x8, addend: 0x0, symName: __ZNSt3__19make_pairB8ue170006IPNS_12basic_stringIcNS_11char_traitsIcEENS_9allocatorIcEEEES7_EENS_4pairINS_18__unwrap_ref_decayIT_E4typeENS9_IT0_E4typeEEEOSA_OSD_, symObjAddr: 0x201DC, symBinAddr: 0x100020914, symSize: 0x38 }
  - { offsetInCU: 0x24472, offset: 0x24472, size: 0x8, addend: 0x0, symName: __ZNSt3__112__to_addressB8ue170006INS_11__wrap_iterIPNS_12basic_stringIcNS_11char_traitsIcEENS_9allocatorIcEEEEEEvEEu7__decayIDTclsr19__to_address_helperIT_EE6__callclsr3stdE7declvalIRKSA_EEEEESC_, symObjAddr: 0x202AC, symBinAddr: 0x1000209E4, symSize: 0x24 }
  - { offsetInCU: 0x245FA, offset: 0x245FA, size: 0x8, addend: 0x0, symName: __ZNSt3__112__to_addressB8ue170006IP5TokenEEPT_S4_, symObjAddr: 0x21744, symBinAddr: 0x100021E7C, symSize: 0x14 }
  - { offsetInCU: 0x2462F, offset: 0x2462F, size: 0x8, addend: 0x0, symName: __ZNSt3__112__to_addressB8ue170006IPP5TokenEEPT_S5_, symObjAddr: 0x219B0, symBinAddr: 0x1000220E8, symSize: 0x14 }
  - { offsetInCU: 0x24664, offset: 0x24664, size: 0x8, addend: 0x0, symName: __ZNSt3__19use_facetB8ue170006INS_5ctypeIcEEEERKT_RKNS_6localeE, symObjAddr: 0x21C28, symBinAddr: 0x100022360, symSize: 0x2C }
  - { offsetInCU: 0x24699, offset: 0x24699, size: 0x8, addend: 0x0, symName: __ZNSt3__19use_facetB8ue170006INS_7collateIcEEEERKT_RKNS_6localeE, symObjAddr: 0x21C54, symBinAddr: 0x10002238C, symSize: 0x2C }
  - { offsetInCU: 0x246CE, offset: 0x246CE, size: 0x8, addend: 0x0, symName: __ZNSt3__119__throw_regex_errorB8ue170006ILNS_15regex_constants10error_typeE17EEEvv, symObjAddr: 0x220EC, symBinAddr: 0x100022824, symSize: 0x60 }
  - { offsetInCU: 0x24B8F, offset: 0x24B8F, size: 0x8, addend: 0x0, symName: __ZNSt3__119__throw_regex_errorB8ue170006ILNS_15regex_constants10error_typeE14EEEvv, symObjAddr: 0x22968, symBinAddr: 0x1000230A0, symSize: 0x60 }
  - { offsetInCU: 0x2578A, offset: 0x2578A, size: 0x8, addend: 0x0, symName: __ZNSt3__14swapB8ue170006IPNS_13__empty_stateIcEEEEvRT_S5_, symObjAddr: 0x23ADC, symBinAddr: 0x100024214, symSize: 0x3C }
  - { offsetInCU: 0x257DB, offset: 0x257DB, size: 0x8, addend: 0x0, symName: __ZNSt3__14swapB8ue170006IPNS_19__shared_weak_countEEEvRT_S4_, symObjAddr: 0x23B18, symBinAddr: 0x100024250, symSize: 0x3C }
  - { offsetInCU: 0x2582C, offset: 0x2582C, size: 0x8, addend: 0x0, symName: __ZNSt3__14nextB8ue170006IPKcEENS_9enable_ifIXsr29__has_input_iterator_categoryIT_EE5valueES4_E4typeES4_NS_15iterator_traitsIS4_E15difference_typeE, symObjAddr: 0x2536C, symBinAddr: 0x100025AA4, symSize: 0x34 }
  - { offsetInCU: 0x2586F, offset: 0x2586F, size: 0x8, addend: 0x0, symName: __ZNSt3__119__throw_regex_errorB8ue170006ILNS_15regex_constants10error_typeE6EEEvv, symObjAddr: 0x25534, symBinAddr: 0x100025C6C, symSize: 0x60 }
  - { offsetInCU: 0x2591A, offset: 0x2591A, size: 0x8, addend: 0x0, symName: __ZNSt3__18__is_eolB8ue170006IcEEbT_, symObjAddr: 0x258B0, symBinAddr: 0x100025FE8, symSize: 0x48 }
  - { offsetInCU: 0x25951, offset: 0x25951, size: 0x8, addend: 0x0, symName: __ZNSt3__14prevB8ue170006IPKcEENS_9enable_ifIXsr29__has_input_iterator_categoryIT_EE5valueES4_E4typeES4_NS_15iterator_traitsIS4_E15difference_typeE, symObjAddr: 0x258F8, symBinAddr: 0x100026030, symSize: 0x3C }
  - { offsetInCU: 0x25994, offset: 0x25994, size: 0x8, addend: 0x0, symName: __ZNSt3__19__advanceB8ue170006IPKcEEvRT_NS_15iterator_traitsIS3_E15difference_typeENS_26random_access_iterator_tagE, symObjAddr: 0x2596C, symBinAddr: 0x1000260A4, symSize: 0x28 }
  - { offsetInCU: 0x25BE5, offset: 0x25BE5, size: 0x8, addend: 0x0, symName: __ZNSt3__134__libcpp_atomic_refcount_incrementB8ue170006IlEET_RS1_, symObjAddr: 0x267AC, symBinAddr: 0x100026EE4, symSize: 0x30 }
  - { offsetInCU: 0x25EF2, offset: 0x25EF2, size: 0x8, addend: 0x0, symName: __ZNSt3__112__to_addressB8ue170006INS_9sub_matchIPKcEEEEPT_S6_, symObjAddr: 0x2767C, symBinAddr: 0x100027DB4, symSize: 0x14 }
  - { offsetInCU: 0x25F27, offset: 0x25F27, size: 0x8, addend: 0x0, symName: __ZNSt3__16fill_nB8ue170006IPNS_9sub_matchIPKcEEmS4_EET_S6_T0_RKT1_, symObjAddr: 0x27930, symBinAddr: 0x100028068, symSize: 0x44 }
  - { offsetInCU: 0x25F8A, offset: 0x25F8A, size: 0x8, addend: 0x0, symName: __ZNSt3__18__fill_nB8ue170006IPNS_9sub_matchIPKcEEmS4_EET_S6_T0_RKT1_, symObjAddr: 0x27C94, symBinAddr: 0x1000283CC, symSize: 0x6C }
  - { offsetInCU: 0x25FED, offset: 0x25FED, size: 0x8, addend: 0x0, symName: __ZNSt3__121__convert_to_integralB8ue170006Em, symObjAddr: 0x27D00, symBinAddr: 0x100028438, symSize: 0x14 }
  - { offsetInCU: 0x26019, offset: 0x26019, size: 0x8, addend: 0x0, symName: __ZNSt3__119__allocate_at_leastB8ue170006INS_9allocatorINS_9sub_matchIPKcEEEEEENS_19__allocation_resultINS_16allocator_traitsIT_E7pointerEEERS9_m, symObjAddr: 0x28050, symBinAddr: 0x100028788, symSize: 0x40 }
  - { offsetInCU: 0x2605C, offset: 0x2605C, size: 0x8, addend: 0x0, symName: __ZNSt3__119__throw_regex_errorB8ue170006ILNS_15regex_constants10error_typeE12EEEvv, symObjAddr: 0x284DC, symBinAddr: 0x100028C14, symSize: 0x60 }
  - { offsetInCU: 0x26081, offset: 0x26081, size: 0x8, addend: 0x0, symName: __ZNSt3__119__throw_regex_errorB8ue170006ILNS_15regex_constants10error_typeE16EEEvv, symObjAddr: 0x2859C, symBinAddr: 0x100028CD4, symSize: 0x60 }
  - { offsetInCU: 0x260A6, offset: 0x260A6, size: 0x8, addend: 0x0, symName: __ZNSt3__112__to_addressB8ue170006INS_7__stateIcEEEEPT_S4_, symObjAddr: 0x28A08, symBinAddr: 0x100029140, symSize: 0x14 }
  - { offsetInCU: 0x260DB, offset: 0x260DB, size: 0x8, addend: 0x0, symName: __ZNSt3__119__allocate_at_leastB8ue170006INS_9allocatorINS_7__stateIcEEEEEENS_19__allocation_resultINS_16allocator_traitsIT_E7pointerEEERS7_m, symObjAddr: 0x29060, symBinAddr: 0x100029798, symSize: 0x40 }
  - { offsetInCU: 0x2611E, offset: 0x2611E, size: 0x8, addend: 0x0, symName: __ZNSt3__142__uninitialized_allocator_move_if_noexceptB8ue170006INS_9allocatorINS_7__stateIcEEEENS_16reverse_iteratorIPS3_EES7_S7_EET2_RT_T0_T1_S8_, symObjAddr: 0x2931C, symBinAddr: 0x100029A54, symSize: 0x134 }
  - { offsetInCU: 0x261BE, offset: 0x261BE, size: 0x8, addend: 0x0, symName: __ZNSt3__14swapB8ue170006IPNS_7__stateIcEEEEvRT_S5_, symObjAddr: 0x2949C, symBinAddr: 0x100029BD4, symSize: 0x3C }
  - { offsetInCU: 0x2620F, offset: 0x2620F, size: 0x8, addend: 0x0, symName: __ZNSt3__122__make_exception_guardB8ue170006INS_29_AllocatorDestroyRangeReverseINS_9allocatorINS_7__stateIcEEEENS_16reverse_iteratorIPS4_EEEEEENS_28__exception_guard_exceptionsIT_EESB_, symObjAddr: 0x295E8, symBinAddr: 0x100029D20, symSize: 0x4C }
  - { offsetInCU: 0x26245, offset: 0x26245, size: 0x8, addend: 0x0, symName: __ZNSt3__1neB8ue170006IPNS_7__stateIcEES3_EEbRKNS_16reverse_iteratorIT_EERKNS4_IT0_EE, symObjAddr: 0x29678, symBinAddr: 0x100029DB0, symSize: 0x48 }
  - { offsetInCU: 0x26291, offset: 0x26291, size: 0x8, addend: 0x0, symName: __ZNSt3__112__to_addressB8ue170006INS_16reverse_iteratorIPNS_7__stateIcEEEEvEEu7__decayIDTclsr19__to_address_helperIT_EE6__callclsr3stdE7declvalIRKS6_EEEEES8_, symObjAddr: 0x296F4, symBinAddr: 0x100029E2C, symSize: 0x24 }
  - { offsetInCU: 0x262F0, offset: 0x262F0, size: 0x8, addend: 0x0, symName: __ZNSt3__119__allocator_destroyB8ue170006INS_9allocatorINS_7__stateIcEEEENS_16reverse_iteratorINS5_IPS3_EEEES8_EEvRT_T0_T1_, symObjAddr: 0x299E0, symBinAddr: 0x10002A118, symSize: 0x70 }
  - { offsetInCU: 0x26355, offset: 0x26355, size: 0x8, addend: 0x0, symName: __ZNSt3__1neB8ue170006INS_16reverse_iteratorIPNS_7__stateIcEEEES5_EEbRKNS1_IT_EERKNS1_IT0_EE, symObjAddr: 0x29A8C, symBinAddr: 0x10002A1C4, symSize: 0x60 }
  - { offsetInCU: 0x263A1, offset: 0x263A1, size: 0x8, addend: 0x0, symName: __ZNSt3__112__to_addressB8ue170006INS_16reverse_iteratorINS1_IPNS_7__stateIcEEEEEEvEEu7__decayIDTclsr19__to_address_helperIT_EE6__callclsr3stdE7declvalIRKS7_EEEEES9_, symObjAddr: 0x29B18, symBinAddr: 0x10002A250, symSize: 0x24 }
  - { offsetInCU: 0x26400, offset: 0x26400, size: 0x8, addend: 0x0, symName: __ZNSt3__112__to_addressB8ue170006INS_4pairImPKcEEEEPT_S6_, symObjAddr: 0x2A680, symBinAddr: 0x10002ADB8, symSize: 0x14 }
  - { offsetInCU: 0x26435, offset: 0x26435, size: 0x8, addend: 0x0, symName: __ZNSt3__142__uninitialized_allocator_move_if_noexceptB8ue170006INS_9allocatorINS_9sub_matchIPKcEEEENS_16reverse_iteratorIPS5_EES9_S9_EET2_RT_T0_T1_SA_, symObjAddr: 0x2AE8C, symBinAddr: 0x10002B5C4, symSize: 0x134 }
  - { offsetInCU: 0x264D5, offset: 0x264D5, size: 0x8, addend: 0x0, symName: __ZNSt3__14swapB8ue170006IPNS_9sub_matchIPKcEEEEvRT_S7_, symObjAddr: 0x2B00C, symBinAddr: 0x10002B744, symSize: 0x3C }
  - { offsetInCU: 0x26526, offset: 0x26526, size: 0x8, addend: 0x0, symName: __ZNSt3__122__make_exception_guardB8ue170006INS_29_AllocatorDestroyRangeReverseINS_9allocatorINS_9sub_matchIPKcEEEENS_16reverse_iteratorIPS6_EEEEEENS_28__exception_guard_exceptionsIT_EESD_, symObjAddr: 0x2B048, symBinAddr: 0x10002B780, symSize: 0x4C }
  - { offsetInCU: 0x2655C, offset: 0x2655C, size: 0x8, addend: 0x0, symName: __ZNSt3__1neB8ue170006IPNS_9sub_matchIPKcEES5_EEbRKNS_16reverse_iteratorIT_EERKNS6_IT0_EE, symObjAddr: 0x2B0D8, symBinAddr: 0x10002B810, symSize: 0x48 }
  - { offsetInCU: 0x265A8, offset: 0x265A8, size: 0x8, addend: 0x0, symName: __ZNSt3__112__to_addressB8ue170006INS_16reverse_iteratorIPNS_9sub_matchIPKcEEEEvEEu7__decayIDTclsr19__to_address_helperIT_EE6__callclsr3stdE7declvalIRKS8_EEEEESA_, symObjAddr: 0x2B154, symBinAddr: 0x10002B88C, symSize: 0x24 }
  - { offsetInCU: 0x26607, offset: 0x26607, size: 0x8, addend: 0x0, symName: __ZNSt3__119__allocator_destroyB8ue170006INS_9allocatorINS_9sub_matchIPKcEEEENS_16reverse_iteratorINS7_IPS5_EEEESA_EEvRT_T0_T1_, symObjAddr: 0x2B440, symBinAddr: 0x10002BB78, symSize: 0x70 }
  - { offsetInCU: 0x2666C, offset: 0x2666C, size: 0x8, addend: 0x0, symName: __ZNSt3__1neB8ue170006INS_16reverse_iteratorIPNS_9sub_matchIPKcEEEES7_EEbRKNS1_IT_EERKNS1_IT0_EE, symObjAddr: 0x2B4EC, symBinAddr: 0x10002BC24, symSize: 0x60 }
  - { offsetInCU: 0x266B8, offset: 0x266B8, size: 0x8, addend: 0x0, symName: __ZNSt3__112__to_addressB8ue170006INS_16reverse_iteratorINS1_IPNS_9sub_matchIPKcEEEEEEvEEu7__decayIDTclsr19__to_address_helperIT_EE6__callclsr3stdE7declvalIRKS9_EEEEESB_, symObjAddr: 0x2B54C, symBinAddr: 0x10002BC84, symSize: 0x24 }
  - { offsetInCU: 0x26717, offset: 0x26717, size: 0x8, addend: 0x0, symName: __ZNSt3__119__allocate_at_leastB8ue170006INS_9allocatorINS_4pairImPKcEEEEEENS_19__allocation_resultINS_16allocator_traitsIT_E7pointerEEERS9_m, symObjAddr: 0x2C1EC, symBinAddr: 0x10002C924, symSize: 0x40 }
  - { offsetInCU: 0x2675A, offset: 0x2675A, size: 0x8, addend: 0x0, symName: __ZNSt3__142__uninitialized_allocator_move_if_noexceptB8ue170006INS_9allocatorINS_4pairImPKcEEEENS_16reverse_iteratorIPS5_EES9_S9_EET2_RT_T0_T1_SA_, symObjAddr: 0x2C498, symBinAddr: 0x10002CBD0, symSize: 0x134 }
  - { offsetInCU: 0x267FA, offset: 0x267FA, size: 0x8, addend: 0x0, symName: __ZNSt3__14swapB8ue170006IPNS_4pairImPKcEEEEvRT_S7_, symObjAddr: 0x2C618, symBinAddr: 0x10002CD50, symSize: 0x3C }
  - { offsetInCU: 0x2684B, offset: 0x2684B, size: 0x8, addend: 0x0, symName: __ZNSt3__122__make_exception_guardB8ue170006INS_29_AllocatorDestroyRangeReverseINS_9allocatorINS_4pairImPKcEEEENS_16reverse_iteratorIPS6_EEEEEENS_28__exception_guard_exceptionsIT_EESD_, symObjAddr: 0x2C700, symBinAddr: 0x10002CE38, symSize: 0x4C }
  - { offsetInCU: 0x26881, offset: 0x26881, size: 0x8, addend: 0x0, symName: __ZNSt3__1neB8ue170006IPNS_4pairImPKcEES5_EEbRKNS_16reverse_iteratorIT_EERKNS6_IT0_EE, symObjAddr: 0x2C790, symBinAddr: 0x10002CEC8, symSize: 0x48 }
  - { offsetInCU: 0x268CD, offset: 0x268CD, size: 0x8, addend: 0x0, symName: __ZNSt3__112__to_addressB8ue170006INS_16reverse_iteratorIPNS_4pairImPKcEEEEvEEu7__decayIDTclsr19__to_address_helperIT_EE6__callclsr3stdE7declvalIRKS8_EEEEESA_, symObjAddr: 0x2C80C, symBinAddr: 0x10002CF44, symSize: 0x24 }
  - { offsetInCU: 0x2692C, offset: 0x2692C, size: 0x8, addend: 0x0, symName: __ZNSt3__119__allocator_destroyB8ue170006INS_9allocatorINS_4pairImPKcEEEENS_16reverse_iteratorINS7_IPS5_EEEESA_EEvRT_T0_T1_, symObjAddr: 0x2CAF0, symBinAddr: 0x10002D228, symSize: 0x70 }
  - { offsetInCU: 0x26991, offset: 0x26991, size: 0x8, addend: 0x0, symName: __ZNSt3__1neB8ue170006INS_16reverse_iteratorIPNS_4pairImPKcEEEES7_EEbRKNS1_IT_EERKNS1_IT0_EE, symObjAddr: 0x2CB9C, symBinAddr: 0x10002D2D4, symSize: 0x60 }
  - { offsetInCU: 0x269DD, offset: 0x269DD, size: 0x8, addend: 0x0, symName: __ZNSt3__112__to_addressB8ue170006INS_16reverse_iteratorINS1_IPNS_4pairImPKcEEEEEEvEEu7__decayIDTclsr19__to_address_helperIT_EE6__callclsr3stdE7declvalIRKS9_EEEEESB_, symObjAddr: 0x2CBFC, symBinAddr: 0x10002D334, symSize: 0x24 }
  - { offsetInCU: 0x26A3C, offset: 0x26A3C, size: 0x8, addend: 0x0, symName: __ZNSt3__122__make_exception_guardB8ue170006INS_6vectorINS_9sub_matchIPKcEENS_9allocatorIS5_EEE16__destroy_vectorEEENS_28__exception_guard_exceptionsIT_EESB_, symObjAddr: 0x2D500, symBinAddr: 0x10002DC38, symSize: 0x40 }
  - { offsetInCU: 0x26A71, offset: 0x26A71, size: 0x8, addend: 0x0, symName: __ZNSt3__130__uninitialized_allocator_copyB8ue170006INS_9allocatorINS_9sub_matchIPKcEEEEPS5_S7_S7_EET2_RT_T0_T1_S8_, symObjAddr: 0x2D674, symBinAddr: 0x10002DDAC, symSize: 0x80 }
  - { offsetInCU: 0x26B0E, offset: 0x26B0E, size: 0x8, addend: 0x0, symName: __ZNSt3__114__unwrap_rangeB8ue170006IPNS_9sub_matchIPKcEES5_EENS_4pairIT0_S7_EET_S9_, symObjAddr: 0x2D6F4, symBinAddr: 0x10002DE2C, symSize: 0x60 }
  - { offsetInCU: 0x26B5A, offset: 0x26B5A, size: 0x8, addend: 0x0, symName: __ZNSt3__135__uninitialized_allocator_copy_implB8ue170006INS_9allocatorINS_9sub_matchIPKcEEEEPS5_S7_S7_EET2_RT_T0_T1_S8_, symObjAddr: 0x2D754, symBinAddr: 0x10002DE8C, symSize: 0xFC }
  - { offsetInCU: 0x26BF8, offset: 0x26BF8, size: 0x8, addend: 0x0, symName: __ZNSt3__113__unwrap_iterB8ue170006IPNS_9sub_matchIPKcEENS_18__unwrap_iter_implIS5_Lb1EEELi0EEEDTclsrT0_8__unwrapclsr3stdE7declvalIT_EEEES9_, symObjAddr: 0x2D850, symBinAddr: 0x10002DF88, symSize: 0x24 }
  - { offsetInCU: 0x26C3C, offset: 0x26C3C, size: 0x8, addend: 0x0, symName: __ZNSt3__113__rewrap_iterB8ue170006IPNS_9sub_matchIPKcEES5_NS_18__unwrap_iter_implIS5_Lb1EEEEET_S8_T0_, symObjAddr: 0x2D874, symBinAddr: 0x10002DFAC, symSize: 0x50 }
  - { offsetInCU: 0x26C91, offset: 0x26C91, size: 0x8, addend: 0x0, symName: __ZNSt3__19make_pairB8ue170006IPNS_9sub_matchIPKcEES5_EENS_4pairINS_18__unwrap_ref_decayIT_E4typeENS7_IT0_E4typeEEEOS8_OSB_, symObjAddr: 0x2D8C4, symBinAddr: 0x10002DFFC, symSize: 0x38 }
  - { offsetInCU: 0x26D8D, offset: 0x26D8D, size: 0x8, addend: 0x0, symName: __ZNSt3__122__make_exception_guardB8ue170006INS_29_AllocatorDestroyRangeReverseINS_9allocatorINS_9sub_matchIPKcEEEEPS6_EEEENS_28__exception_guard_exceptionsIT_EESB_, symObjAddr: 0x2D96C, symBinAddr: 0x10002E0A4, symSize: 0x4C }
  - { offsetInCU: 0x26DC3, offset: 0x26DC3, size: 0x8, addend: 0x0, symName: __ZNSt3__119__allocator_destroyB8ue170006INS_9allocatorINS_9sub_matchIPKcEEEENS_16reverse_iteratorIPS5_EES9_EEvRT_T0_T1_, symObjAddr: 0x2DBF4, symBinAddr: 0x10002E32C, symSize: 0x70 }
  - { offsetInCU: 0x26E79, offset: 0x26E79, size: 0x8, addend: 0x0, symName: __ZNSt3__122__make_exception_guardB8ue170006INS_6vectorINS_4pairImPKcEENS_9allocatorIS5_EEE16__destroy_vectorEEENS_28__exception_guard_exceptionsIT_EESB_, symObjAddr: 0x2DF24, symBinAddr: 0x10002E65C, symSize: 0x40 }
  - { offsetInCU: 0x26EAE, offset: 0x26EAE, size: 0x8, addend: 0x0, symName: __ZNSt3__130__uninitialized_allocator_copyB8ue170006INS_9allocatorINS_4pairImPKcEEEEPS5_S7_S7_EET2_RT_T0_T1_S8_, symObjAddr: 0x2E144, symBinAddr: 0x10002E87C, symSize: 0x80 }
  - { offsetInCU: 0x26F4B, offset: 0x26F4B, size: 0x8, addend: 0x0, symName: __ZNSt3__114__unwrap_rangeB8ue170006IPNS_4pairImPKcEES5_EENS1_IT0_S6_EET_S8_, symObjAddr: 0x2E1C4, symBinAddr: 0x10002E8FC, symSize: 0x60 }
  - { offsetInCU: 0x26F97, offset: 0x26F97, size: 0x8, addend: 0x0, symName: __ZNSt3__135__uninitialized_allocator_copy_implB8ue170006INS_9allocatorINS_4pairImPKcEEEEPS5_S7_S7_EET2_RT_T0_T1_S8_, symObjAddr: 0x2E224, symBinAddr: 0x10002E95C, symSize: 0xFC }
  - { offsetInCU: 0x27035, offset: 0x27035, size: 0x8, addend: 0x0, symName: __ZNSt3__113__unwrap_iterB8ue170006IPNS_4pairImPKcEENS_18__unwrap_iter_implIS5_Lb1EEELi0EEEDTclsrT0_8__unwrapclsr3stdE7declvalIT_EEEES9_, symObjAddr: 0x2E320, symBinAddr: 0x10002EA58, symSize: 0x24 }
  - { offsetInCU: 0x27079, offset: 0x27079, size: 0x8, addend: 0x0, symName: __ZNSt3__113__rewrap_iterB8ue170006IPNS_4pairImPKcEES5_NS_18__unwrap_iter_implIS5_Lb1EEEEET_S8_T0_, symObjAddr: 0x2E344, symBinAddr: 0x10002EA7C, symSize: 0x50 }
  - { offsetInCU: 0x270CE, offset: 0x270CE, size: 0x8, addend: 0x0, symName: __ZNSt3__19make_pairB8ue170006IPNS_4pairImPKcEES5_EENS1_INS_18__unwrap_ref_decayIT_E4typeENS6_IT0_E4typeEEEOS7_OSA_, symObjAddr: 0x2E394, symBinAddr: 0x10002EACC, symSize: 0x38 }
  - { offsetInCU: 0x271CA, offset: 0x271CA, size: 0x8, addend: 0x0, symName: __ZNSt3__122__make_exception_guardB8ue170006INS_29_AllocatorDestroyRangeReverseINS_9allocatorINS_4pairImPKcEEEEPS6_EEEENS_28__exception_guard_exceptionsIT_EESB_, symObjAddr: 0x2E43C, symBinAddr: 0x10002EB74, symSize: 0x4C }
  - { offsetInCU: 0x27200, offset: 0x27200, size: 0x8, addend: 0x0, symName: __ZNSt3__119__allocator_destroyB8ue170006INS_9allocatorINS_4pairImPKcEEEENS_16reverse_iteratorIPS5_EES9_EEvRT_T0_T1_, symObjAddr: 0x2E6BC, symBinAddr: 0x10002EDF4, symSize: 0x70 }
  - { offsetInCU: 0x272B6, offset: 0x272B6, size: 0x8, addend: 0x0, symName: __ZNSt3__119__throw_regex_errorB8ue170006ILNS_15regex_constants10error_typeE11EEEvv, symObjAddr: 0x2EEFC, symBinAddr: 0x10002F634, symSize: 0x60 }
  - { offsetInCU: 0x2734F, offset: 0x2734F, size: 0x8, addend: 0x0, symName: __ZNSt3__119__throw_regex_errorB8ue170006ILNS_15regex_constants10error_typeE3EEEvv, symObjAddr: 0x2F29C, symBinAddr: 0x10002F9D4, symSize: 0x60 }
  - { offsetInCU: 0x27575, offset: 0x27575, size: 0x8, addend: 0x0, symName: __ZNSt3__119__throw_regex_errorB8ue170006ILNS_15regex_constants10error_typeE4EEEvv, symObjAddr: 0x30054, symBinAddr: 0x10003078C, symSize: 0x60 }
  - { offsetInCU: 0x279B4, offset: 0x279B4, size: 0x8, addend: 0x0, symName: __ZNSt3__15equalB8ue170006IPKcS2_EEbT_S3_T0_, symObjAddr: 0x313A0, symBinAddr: 0x100031AD8, symSize: 0x38 }
  - { offsetInCU: 0x27A0E, offset: 0x27A0E, size: 0x8, addend: 0x0, symName: __ZNSt3__15equalB8ue170006IPKcS2_NS_10__equal_toEEEbT_S4_T0_T1_, symObjAddr: 0x313D8, symBinAddr: 0x100031B10, symSize: 0x5C }
  - { offsetInCU: 0x27A7F, offset: 0x27A7F, size: 0x8, addend: 0x0, symName: __ZNSt3__117__equal_iter_implB8ue170006IKcS1_NS_10__equal_toELi0EEEbPT_S4_PT0_RT1_, symObjAddr: 0x31434, symBinAddr: 0x100031B6C, symSize: 0x44 }
  - { offsetInCU: 0x27AF2, offset: 0x27AF2, size: 0x8, addend: 0x0, symName: __ZNSt3__113__unwrap_iterB8ue170006IPKcNS_18__unwrap_iter_implIS2_Lb1EEELi0EEEDTclsrT0_8__unwrapclsr3stdE7declvalIT_EEEES6_, symObjAddr: 0x31478, symBinAddr: 0x100031BB0, symSize: 0x24 }
  - { offsetInCU: 0x27B36, offset: 0x27B36, size: 0x8, addend: 0x0, symName: __ZNSt3__124__constexpr_memcmp_equalB8ue170006IccEEbPKT_PKT0_NS_15__element_countE, symObjAddr: 0x3149C, symBinAddr: 0x100031BD4, symSize: 0x98 }
  - { offsetInCU: 0x27BF1, offset: 0x27BF1, size: 0x8, addend: 0x0, symName: __ZNSt3__1neB8ue170006IcNS_11char_traitsIcEENS_9allocatorIcEEEEbRKNS_12basic_stringIT_T0_T1_EEPKS6_, symObjAddr: 0x31AB0, symBinAddr: 0x1000321E8, symSize: 0x34 }
  - { offsetInCU: 0x27C49, offset: 0x27C49, size: 0x8, addend: 0x0, symName: __ZNSt3__112__to_addressB8ue170006INS_4pairIccEEEEPT_S4_, symObjAddr: 0x32C38, symBinAddr: 0x100033370, symSize: 0x14 }
  - { offsetInCU: 0x27C7E, offset: 0x27C7E, size: 0x8, addend: 0x0, symName: __ZNSt3__112__to_addressB8ue170006INS_4pairINS_12basic_stringIcNS_11char_traitsIcEENS_9allocatorIcEEEES7_EEEEPT_SA_, symObjAddr: 0x3315C, symBinAddr: 0x100033894, symSize: 0x14 }
  - { offsetInCU: 0x27CB3, offset: 0x27CB3, size: 0x8, addend: 0x0, symName: __ZNSt3__112__to_addressB8ue170006IcEEPT_S2_, symObjAddr: 0x33708, symBinAddr: 0x100033E40, symSize: 0x14 }
  - { offsetInCU: 0x27CE8, offset: 0x27CE8, size: 0x8, addend: 0x0, symName: __ZNSt3__1eqB8ue170006IccccEEbRKNS_4pairIT_T0_EERKNS1_IT1_T2_EE, symObjAddr: 0x33AC4, symBinAddr: 0x1000341FC, symSize: 0x64 }
  - { offsetInCU: 0x27D49, offset: 0x27D49, size: 0x8, addend: 0x0, symName: __ZNSt3__1leB8ue170006IcNS_11char_traitsIcEENS_9allocatorIcEEEEbRKNS_12basic_stringIT_T0_T1_EESB_, symObjAddr: 0x33C6C, symBinAddr: 0x1000343A4, symSize: 0x34 }
  - { offsetInCU: 0x27DA1, offset: 0x27DA1, size: 0x8, addend: 0x0, symName: __ZNSt3__1neB8ue170006IPKcEEbRKNS_11__wrap_iterIT_EES7_, symObjAddr: 0x33DAC, symBinAddr: 0x1000344E4, symSize: 0x34 }
  - { offsetInCU: 0x27DE4, offset: 0x27DE4, size: 0x8, addend: 0x0, symName: __ZNSt3__14findB8ue170006INS_11__wrap_iterIPKcEEcEET_S5_S5_RKT0_, symObjAddr: 0x33DE0, symBinAddr: 0x100034518, symSize: 0x78 }
  - { offsetInCU: 0x27E4C, offset: 0x27E4C, size: 0x8, addend: 0x0, symName: __ZNSt3__18distanceB8ue170006IPcEENS_15iterator_traitsIT_E15difference_typeES3_S3_, symObjAddr: 0x3436C, symBinAddr: 0x100034AA4, symSize: 0x2C }
  - { offsetInCU: 0x27E8F, offset: 0x27E8F, size: 0x8, addend: 0x0, symName: __ZNSt3__110__distanceB8ue170006IPcEENS_15iterator_traitsIT_E15difference_typeES3_S3_NS_26random_access_iterator_tagE, symObjAddr: 0x34514, symBinAddr: 0x100034C4C, symSize: 0x20 }
  - { offsetInCU: 0x27EDC, offset: 0x27EDC, size: 0x8, addend: 0x0, symName: __ZNSt3__119__allocate_at_leastB8ue170006INS_9allocatorIcEEEENS_19__allocation_resultINS_16allocator_traitsIT_E7pointerEEERS5_m, symObjAddr: 0x3470C, symBinAddr: 0x100034E44, symSize: 0x40 }
  - { offsetInCU: 0x28154, offset: 0x28154, size: 0x8, addend: 0x0, symName: __ZNSt3__1ltB8ue170006IcNS_11char_traitsIcEENS_9allocatorIcEEEEbRKNS_12basic_stringIT_T0_T1_EESB_, symObjAddr: 0x34AE8, symBinAddr: 0x100035220, symSize: 0x38 }
  - { offsetInCU: 0x281AC, offset: 0x281AC, size: 0x8, addend: 0x0, symName: __ZNSt3__1eqB8ue170006IPKcEEbRKNS_11__wrap_iterIT_EES7_, symObjAddr: 0x34F3C, symBinAddr: 0x100035674, symSize: 0x48 }
  - { offsetInCU: 0x281EF, offset: 0x281EF, size: 0x8, addend: 0x0, symName: __ZNSt3__113__rewrap_iterB8ue170006INS_11__wrap_iterIPKcEES3_NS_18__unwrap_iter_implIS4_Lb1EEEEET_S7_T0_, symObjAddr: 0x34F9C, symBinAddr: 0x1000356D4, symSize: 0x60 }
  - { offsetInCU: 0x28244, offset: 0x28244, size: 0x8, addend: 0x0, symName: __ZNSt3__111__find_implB8ue170006IKccNS_10__identityELi0EEEPT_S4_S4_RKT0_RT1_, symObjAddr: 0x34FFC, symBinAddr: 0x100035734, symSize: 0x78 }
  - { offsetInCU: 0x282CB, offset: 0x282CB, size: 0x8, addend: 0x0, symName: __ZNSt3__113__unwrap_iterB8ue170006INS_11__wrap_iterIPKcEENS_18__unwrap_iter_implIS4_Lb1EEELi0EEEDTclsrT0_8__unwrapclsr3stdE7declvalIT_EEEES8_, symObjAddr: 0x35074, symBinAddr: 0x1000357AC, symSize: 0x2C }
  - { offsetInCU: 0x28362, offset: 0x28362, size: 0x8, addend: 0x0, symName: __ZNSt3__112__to_addressB8ue170006INS_11__wrap_iterIPKcEEvEEu7__decayIDTclsr19__to_address_helperIT_EE6__callclsr3stdE7declvalIRKS5_EEEEES7_, symObjAddr: 0x35130, symBinAddr: 0x100035868, symSize: 0x24 }
  - { offsetInCU: 0x283FF, offset: 0x283FF, size: 0x8, addend: 0x0, symName: __ZNSt3__118__constexpr_memchrB8ue170006IKccEEPT_S3_T0_m, symObjAddr: 0x351D8, symBinAddr: 0x100035910, symSize: 0xC0 }
  - { offsetInCU: 0x28476, offset: 0x28476, size: 0x8, addend: 0x0, symName: __ZNSt3__142__uninitialized_allocator_move_if_noexceptB8ue170006INS_9allocatorIcEENS_16reverse_iteratorIPcEES5_cvEET1_RT_T0_S9_S6_, symObjAddr: 0x35C58, symBinAddr: 0x100036390, symSize: 0xE8 }
  - { offsetInCU: 0x284F3, offset: 0x284F3, size: 0x8, addend: 0x0, symName: __ZNSt3__14swapB8ue170006IPcEEvRT_S3_, symObjAddr: 0x35D8C, symBinAddr: 0x1000364C4, symSize: 0x3C }
  - { offsetInCU: 0x28544, offset: 0x28544, size: 0x8, addend: 0x0, symName: __ZNSt3__1neB8ue170006IPcS1_EEbRKNS_16reverse_iteratorIT_EERKNS2_IT0_EE, symObjAddr: 0x35E74, symBinAddr: 0x1000365AC, symSize: 0x48 }
  - { offsetInCU: 0x285B5, offset: 0x285B5, size: 0x8, addend: 0x0, symName: __ZNSt3__114__construct_atB8ue170006IcJcEPcEEPT_S3_DpOT0_, symObjAddr: 0x35EBC, symBinAddr: 0x1000365F4, symSize: 0x2C }
  - { offsetInCU: 0x28625, offset: 0x28625, size: 0x8, addend: 0x0, symName: __ZNSt3__112__to_addressB8ue170006INS_16reverse_iteratorIPcEEvEEu7__decayIDTclsr19__to_address_helperIT_EE6__callclsr3stdE7declvalIRKS4_EEEEES6_, symObjAddr: 0x35EE8, symBinAddr: 0x100036620, symSize: 0x24 }
  - { offsetInCU: 0x2865B, offset: 0x2865B, size: 0x8, addend: 0x0, symName: __ZNSt3__14moveB8ue170006INS_16reverse_iteratorIPcEES3_EET0_T_S5_S4_, symObjAddr: 0x35F54, symBinAddr: 0x10003668C, symSize: 0x78 }
  - { offsetInCU: 0x286DE, offset: 0x286DE, size: 0x8, addend: 0x0, symName: __ZNSt3__16__moveB8ue170006INS_17_ClassicAlgPolicyENS_16reverse_iteratorIPcEES4_S4_EENS_4pairIT0_T2_EES6_T1_S7_, symObjAddr: 0x3603C, symBinAddr: 0x100036774, symSize: 0x64 }
  - { offsetInCU: 0x2874A, offset: 0x2874A, size: 0x8, addend: 0x0, symName: __ZNSt3__123__dispatch_copy_or_moveB8ue170006INS_17_ClassicAlgPolicyENS_11__move_loopIS1_EENS_14__move_trivialENS_16reverse_iteratorIPcEES7_S7_EENS_4pairIT2_T4_EES9_T3_SA_, symObjAddr: 0x360A0, symBinAddr: 0x1000367D8, symSize: 0x64 }
  - { offsetInCU: 0x287C8, offset: 0x287C8, size: 0x8, addend: 0x0, symName: __ZNSt3__121__unwrap_and_dispatchB8ue170006INS_10__overloadINS_11__move_loopINS_17_ClassicAlgPolicyEEENS_14__move_trivialEEENS_16reverse_iteratorIPcEES9_S9_Li0EEENS_4pairIT0_T2_EESB_T1_SC_, symObjAddr: 0x36104, symBinAddr: 0x10003683C, symSize: 0x12C }
  - { offsetInCU: 0x28858, offset: 0x28858, size: 0x8, addend: 0x0, symName: __ZNSt3__114__unwrap_rangeB8ue170006INS_16reverse_iteratorIPcEES3_EENS_4pairIT0_S5_EET_S7_, symObjAddr: 0x36230, symBinAddr: 0x100036968, symSize: 0x84 }
  - { offsetInCU: 0x28951, offset: 0x28951, size: 0x8, addend: 0x0, symName: __ZNSt3__113__unwrap_iterB8ue170006INS_16reverse_iteratorIPcEENS_18__unwrap_iter_implIS3_Lb0EEELi0EEEDTclsrT0_8__unwrapclsr3stdE7declvalIT_EEEES7_, symObjAddr: 0x36354, symBinAddr: 0x100036A8C, symSize: 0x44 }
  - { offsetInCU: 0x28995, offset: 0x28995, size: 0x8, addend: 0x0, symName: __ZNSt3__19make_pairB8ue170006INS_16reverse_iteratorIPcEES3_EENS_4pairINS_18__unwrap_ref_decayIT_E4typeENS5_IT0_E4typeEEEOS6_OS9_, symObjAddr: 0x36398, symBinAddr: 0x100036AD0, symSize: 0x38 }
  - { offsetInCU: 0x289E4, offset: 0x289E4, size: 0x8, addend: 0x0, symName: __ZNSt3__114__rewrap_rangeB8ue170006INS_16reverse_iteratorIPcEES3_EET_S4_T0_, symObjAddr: 0x363D0, symBinAddr: 0x100036B08, symSize: 0x5C }
  - { offsetInCU: 0x28A30, offset: 0x28A30, size: 0x8, addend: 0x0, symName: __ZNSt3__113__rewrap_iterB8ue170006INS_16reverse_iteratorIPcEES3_NS_18__unwrap_iter_implIS3_Lb0EEEEET_S6_T0_, symObjAddr: 0x3642C, symBinAddr: 0x100036B64, symSize: 0x88 }
  - { offsetInCU: 0x28AF1, offset: 0x28AF1, size: 0x8, addend: 0x0, symName: __ZNSt3__17__is_07B8ue170006Eh, symObjAddr: 0x36AD4, symBinAddr: 0x10003720C, symSize: 0x24 }
  - { offsetInCU: 0x28B1F, offset: 0x28B1F, size: 0x8, addend: 0x0, symName: __ZNSt3__17__is_89B8ue170006Eh, symObjAddr: 0x36AF8, symBinAddr: 0x100037230, symSize: 0x24 }
  - { offsetInCU: 0x28B4D, offset: 0x28B4D, size: 0x8, addend: 0x0, symName: __ZNSt3__110__to_lowerB8ue170006Eh, symObjAddr: 0x36B1C, symBinAddr: 0x100037254, symSize: 0x1C }
  - { offsetInCU: 0x28B7B, offset: 0x28B7B, size: 0x8, addend: 0x0, symName: __ZNSt3__119__throw_regex_errorB8ue170006ILNS_15regex_constants10error_typeE5EEEvv, symObjAddr: 0x36B38, symBinAddr: 0x100037270, symSize: 0x60 }
  - { offsetInCU: 0x28BA0, offset: 0x28BA0, size: 0x8, addend: 0x0, symName: __ZNSt3__16searchB8ue170006IPKcPcEET_S4_S4_T0_S5_, symObjAddr: 0x38624, symBinAddr: 0x100038D5C, symSize: 0x3C }
  - { offsetInCU: 0x28C08, offset: 0x28C08, size: 0x8, addend: 0x0, symName: __ZNSt3__119__throw_regex_errorB8ue170006ILNS_15regex_constants10error_typeE1EEEvv, symObjAddr: 0x386A0, symBinAddr: 0x100038DD8, symSize: 0x60 }
  - { offsetInCU: 0x28C2D, offset: 0x28C2D, size: 0x8, addend: 0x0, symName: __ZNSt3__16searchB8ue170006IPKcPcNS_10__equal_toEEET_S5_S5_T0_S6_T1_, symObjAddr: 0x38834, symBinAddr: 0x100038F6C, symSize: 0x5C }
  - { offsetInCU: 0x28CBA, offset: 0x28CBA, size: 0x8, addend: 0x0, symName: __ZNSt3__113__search_implB8ue170006IPKcS2_PcS3_NS_10__equal_toENS_10__identityES5_EENS_4pairIT_S7_EES7_T0_T1_T2_RT3_RT4_RT5_PNS_9enable_ifIXaasr37__has_random_access_iterator_categoryIS7_EE5valuesr37__has_random_access_iterator_categoryISA_EE5valueEvE4typeE, symObjAddr: 0x38890, symBinAddr: 0x100038FC8, symSize: 0xF8 }
  - { offsetInCU: 0x28D9F, offset: 0x28D9F, size: 0x8, addend: 0x0, symName: __ZNSt3__19make_pairB8ue170006IRPKcS3_EENS_4pairINS_18__unwrap_ref_decayIT_E4typeENS5_IT0_E4typeEEEOS6_OS9_, symObjAddr: 0x38988, symBinAddr: 0x1000390C0, symSize: 0x38 }
  - { offsetInCU: 0x28DEE, offset: 0x28DEE, size: 0x8, addend: 0x0, symName: __ZNSt3__127__search_random_access_implB8ue170006INS_17_ClassicAlgPolicyEPKcS3_PcS4_NS_10__equal_toENS_10__identityES6_llEENS_4pairIT0_S8_EES8_T1_T2_T3_RT4_RT5_RT6_T7_T8_, symObjAddr: 0x389C0, symBinAddr: 0x1000390F8, symSize: 0x1BC }
  - { offsetInCU: 0x28F21, offset: 0x28F21, size: 0x8, addend: 0x0, symName: __ZNSt3__18__invokeB8ue170006IRNS_10__equal_toEJRKcRcEEEDTclclsr3stdE7declvalIT_EEspclsr3stdE7declvalIT0_EEEEOS6_DpOS7_, symObjAddr: 0x38C0C, symBinAddr: 0x100039344, symSize: 0x38 }
  - { offsetInCU: 0x28F86, offset: 0x28F86, size: 0x8, addend: 0x0, symName: __ZNSt3__18__invokeB8ue170006IRNS_10__identityEJRKcEEEDTclclsr3stdE7declvalIT_EEspclsr3stdE7declvalIT0_EEEEOS5_DpOS6_, symObjAddr: 0x38C44, symBinAddr: 0x10003937C, symSize: 0x2C }
  - { offsetInCU: 0x28FD7, offset: 0x28FD7, size: 0x8, addend: 0x0, symName: __ZNSt3__18__invokeB8ue170006IRNS_10__identityEJRcEEEDTclclsr3stdE7declvalIT_EEspclsr3stdE7declvalIT0_EEEEOS4_DpOS5_, symObjAddr: 0x38C70, symBinAddr: 0x1000393A8, symSize: 0x2C }
  - { offsetInCU: 0x29028, offset: 0x29028, size: 0x8, addend: 0x0, symName: __ZNSt3__19make_pairB8ue170006IRPKcS2_EENS_4pairINS_18__unwrap_ref_decayIT_E4typeENS5_IT0_E4typeEEEOS6_OS9_, symObjAddr: 0x38C9C, symBinAddr: 0x1000393D4, symSize: 0x38 }
  - { offsetInCU: 0x29102, offset: 0x29102, size: 0x8, addend: 0x0, symName: __ZNSt3__18distanceB8ue170006IPKcEENS_15iterator_traitsIT_E15difference_typeES4_S4_, symObjAddr: 0x39090, symBinAddr: 0x1000397C8, symSize: 0x2C }
  - { offsetInCU: 0x29145, offset: 0x29145, size: 0x8, addend: 0x0, symName: __ZNSt3__110__distanceB8ue170006IPKcEENS_15iterator_traitsIT_E15difference_typeES4_S4_NS_26random_access_iterator_tagE, symObjAddr: 0x39238, symBinAddr: 0x100039970, symSize: 0x20 }
  - { offsetInCU: 0x29192, offset: 0x29192, size: 0x8, addend: 0x0, symName: __ZNSt3__18distanceB8ue170006INS_11__wrap_iterIPcEEEENS_15iterator_traitsIT_E15difference_typeES5_S5_, symObjAddr: 0x3951C, symBinAddr: 0x100039C54, symSize: 0x3C }
  - { offsetInCU: 0x291D5, offset: 0x291D5, size: 0x8, addend: 0x0, symName: __ZNSt3__110__distanceB8ue170006INS_11__wrap_iterIPcEEEENS_15iterator_traitsIT_E15difference_typeES5_S5_NS_26random_access_iterator_tagE, symObjAddr: 0x396DC, symBinAddr: 0x100039E14, symSize: 0x30 }
  - { offsetInCU: 0x29222, offset: 0x29222, size: 0x8, addend: 0x0, symName: __ZNSt3__1miB8ue170006IPcS1_EENS_11__wrap_iterIT_E15difference_typeERKS4_RKNS2_IT0_EE, symObjAddr: 0x3970C, symBinAddr: 0x100039E44, symSize: 0x40 }
  - { offsetInCU: 0x2926E, offset: 0x2926E, size: 0x8, addend: 0x0, symName: __ZNSt3__1neB8ue170006IPcEEbRKNS_11__wrap_iterIT_EES6_, symObjAddr: 0x39764, symBinAddr: 0x100039E9C, symSize: 0x34 }
  - { offsetInCU: 0x292B1, offset: 0x292B1, size: 0x8, addend: 0x0, symName: __ZNSt3__1eqB8ue170006IPcEEbRKNS_11__wrap_iterIT_EES6_, symObjAddr: 0x397D0, symBinAddr: 0x100039F08, symSize: 0x48 }
  - { offsetInCU: 0x292F4, offset: 0x292F4, size: 0x8, addend: 0x0, symName: __ZNSt3__119__throw_regex_errorB8ue170006ILNS_15regex_constants10error_typeE2EEEvv, symObjAddr: 0x39B20, symBinAddr: 0x10003A258, symSize: 0x60 }
  - { offsetInCU: 0x29319, offset: 0x29319, size: 0x8, addend: 0x0, symName: __ZNSt3__19make_pairB8ue170006INS_12basic_stringIcNS_11char_traitsIcEENS_9allocatorIcEEEES6_EENS_4pairINS_18__unwrap_ref_decayIT_E4typeENS8_IT0_E4typeEEEOS9_OSC_, symObjAddr: 0x39E04, symBinAddr: 0x10003A53C, symSize: 0x40 }
  - { offsetInCU: 0x29368, offset: 0x29368, size: 0x8, addend: 0x0, symName: __ZNSt3__119__throw_regex_errorB8ue170006ILNS_15regex_constants10error_typeE9EEEvv, symObjAddr: 0x39F4C, symBinAddr: 0x10003A684, symSize: 0x60 }
  - { offsetInCU: 0x2938D, offset: 0x2938D, size: 0x8, addend: 0x0, symName: __ZNSt3__119__allocate_at_leastB8ue170006INS_9allocatorINS_4pairINS_12basic_stringIcNS_11char_traitsIcEENS1_IcEEEES7_EEEEEENS_19__allocation_resultINS_16allocator_traitsIT_E7pointerEEERSC_m, symObjAddr: 0x3A7E4, symBinAddr: 0x10003AF1C, symSize: 0x40 }
  - { offsetInCU: 0x293D0, offset: 0x293D0, size: 0x8, addend: 0x0, symName: __ZNSt3__142__uninitialized_allocator_move_if_noexceptB8ue170006INS_9allocatorINS_4pairINS_12basic_stringIcNS_11char_traitsIcEENS1_IcEEEES7_EEEENS_16reverse_iteratorIPS8_EESC_SC_EET2_RT_T0_T1_SD_, symObjAddr: 0x3A9CC, symBinAddr: 0x10003B104, symSize: 0x134 }
  - { offsetInCU: 0x29470, offset: 0x29470, size: 0x8, addend: 0x0, symName: __ZNSt3__14swapB8ue170006IPNS_4pairINS_12basic_stringIcNS_11char_traitsIcEENS_9allocatorIcEEEES7_EEEEvRT_SB_, symObjAddr: 0x3AB4C, symBinAddr: 0x10003B284, symSize: 0x3C }
  - { offsetInCU: 0x294C1, offset: 0x294C1, size: 0x8, addend: 0x0, symName: __ZNSt3__122__make_exception_guardB8ue170006INS_29_AllocatorDestroyRangeReverseINS_9allocatorINS_4pairINS_12basic_stringIcNS_11char_traitsIcEENS2_IcEEEES8_EEEENS_16reverse_iteratorIPS9_EEEEEENS_28__exception_guard_exceptionsIT_EESG_, symObjAddr: 0x3AC50, symBinAddr: 0x10003B388, symSize: 0x4C }
  - { offsetInCU: 0x294F7, offset: 0x294F7, size: 0x8, addend: 0x0, symName: __ZNSt3__1neB8ue170006IPNS_4pairINS_12basic_stringIcNS_11char_traitsIcEENS_9allocatorIcEEEES7_EES9_EEbRKNS_16reverse_iteratorIT_EERKNSA_IT0_EE, symObjAddr: 0x3ACE0, symBinAddr: 0x10003B418, symSize: 0x48 }
  - { offsetInCU: 0x29543, offset: 0x29543, size: 0x8, addend: 0x0, symName: __ZNSt3__112__to_addressB8ue170006INS_16reverse_iteratorIPNS_4pairINS_12basic_stringIcNS_11char_traitsIcEENS_9allocatorIcEEEES8_EEEEvEEu7__decayIDTclsr19__to_address_helperIT_EE6__callclsr3stdE7declvalIRKSC_EEEEESE_, symObjAddr: 0x3AD5C, symBinAddr: 0x10003B494, symSize: 0x24 }
  - { offsetInCU: 0x295A2, offset: 0x295A2, size: 0x8, addend: 0x0, symName: __ZNSt3__119__allocator_destroyB8ue170006INS_9allocatorINS_4pairINS_12basic_stringIcNS_11char_traitsIcEENS1_IcEEEES7_EEEENS_16reverse_iteratorINSA_IPS8_EEEESD_EEvRT_T0_T1_, symObjAddr: 0x3B0F4, symBinAddr: 0x10003B82C, symSize: 0x70 }
  - { offsetInCU: 0x29607, offset: 0x29607, size: 0x8, addend: 0x0, symName: __ZNSt3__1neB8ue170006INS_16reverse_iteratorIPNS_4pairINS_12basic_stringIcNS_11char_traitsIcEENS_9allocatorIcEEEES8_EEEESB_EEbRKNS1_IT_EERKNS1_IT0_EE, symObjAddr: 0x3B1A0, symBinAddr: 0x10003B8D8, symSize: 0x60 }
  - { offsetInCU: 0x29653, offset: 0x29653, size: 0x8, addend: 0x0, symName: __ZNSt3__112__to_addressB8ue170006INS_16reverse_iteratorINS1_IPNS_4pairINS_12basic_stringIcNS_11char_traitsIcEENS_9allocatorIcEEEES8_EEEEEEvEEu7__decayIDTclsr19__to_address_helperIT_EE6__callclsr3stdE7declvalIRKSD_EEEEESF_, symObjAddr: 0x3B200, symBinAddr: 0x10003B938, symSize: 0x24 }
  - { offsetInCU: 0x296B2, offset: 0x296B2, size: 0x8, addend: 0x0, symName: __ZNSt3__19make_pairB8ue170006IccEENS_4pairINS_18__unwrap_ref_decayIT_E4typeENS2_IT0_E4typeEEEOS3_OS6_, symObjAddr: 0x3B6A4, symBinAddr: 0x10003BDDC, symSize: 0x34 }
  - { offsetInCU: 0x29701, offset: 0x29701, size: 0x8, addend: 0x0, symName: __ZNSt3__19make_pairB8ue170006IRcS1_EENS_4pairINS_18__unwrap_ref_decayIT_E4typeENS3_IT0_E4typeEEEOS4_OS7_, symObjAddr: 0x3B6D8, symBinAddr: 0x10003BE10, symSize: 0x34 }
  - { offsetInCU: 0x29750, offset: 0x29750, size: 0x8, addend: 0x0, symName: __ZNSt3__119__allocate_at_leastB8ue170006INS_9allocatorINS_4pairIccEEEEEENS_19__allocation_resultINS_16allocator_traitsIT_E7pointerEEERS7_m, symObjAddr: 0x3BE78, symBinAddr: 0x10003C5B0, symSize: 0x40 }
  - { offsetInCU: 0x29793, offset: 0x29793, size: 0x8, addend: 0x0, symName: __ZNSt3__142__uninitialized_allocator_move_if_noexceptB8ue170006INS_9allocatorINS_4pairIccEEEENS_16reverse_iteratorIPS3_EES7_S7_EET2_RT_T0_T1_S8_, symObjAddr: 0x3C058, symBinAddr: 0x10003C790, symSize: 0x134 }
  - { offsetInCU: 0x29833, offset: 0x29833, size: 0x8, addend: 0x0, symName: __ZNSt3__14swapB8ue170006IPNS_4pairIccEEEEvRT_S5_, symObjAddr: 0x3C1D8, symBinAddr: 0x10003C910, symSize: 0x3C }
  - { offsetInCU: 0x29884, offset: 0x29884, size: 0x8, addend: 0x0, symName: __ZNSt3__122__make_exception_guardB8ue170006INS_29_AllocatorDestroyRangeReverseINS_9allocatorINS_4pairIccEEEENS_16reverse_iteratorIPS4_EEEEEENS_28__exception_guard_exceptionsIT_EESB_, symObjAddr: 0x3C2C0, symBinAddr: 0x10003C9F8, symSize: 0x4C }
  - { offsetInCU: 0x298BA, offset: 0x298BA, size: 0x8, addend: 0x0, symName: __ZNSt3__1neB8ue170006IPNS_4pairIccEES3_EEbRKNS_16reverse_iteratorIT_EERKNS4_IT0_EE, symObjAddr: 0x3C350, symBinAddr: 0x10003CA88, symSize: 0x48 }
  - { offsetInCU: 0x29906, offset: 0x29906, size: 0x8, addend: 0x0, symName: __ZNSt3__112__to_addressB8ue170006INS_16reverse_iteratorIPNS_4pairIccEEEEvEEu7__decayIDTclsr19__to_address_helperIT_EE6__callclsr3stdE7declvalIRKS6_EEEEES8_, symObjAddr: 0x3C398, symBinAddr: 0x10003CAD0, symSize: 0x24 }
  - { offsetInCU: 0x29965, offset: 0x29965, size: 0x8, addend: 0x0, symName: __ZNSt3__119__allocator_destroyB8ue170006INS_9allocatorINS_4pairIccEEEENS_16reverse_iteratorINS5_IPS3_EEEES8_EEvRT_T0_T1_, symObjAddr: 0x3C654, symBinAddr: 0x10003CD8C, symSize: 0x70 }
  - { offsetInCU: 0x299CA, offset: 0x299CA, size: 0x8, addend: 0x0, symName: __ZNSt3__1neB8ue170006INS_16reverse_iteratorIPNS_4pairIccEEEES5_EEbRKNS1_IT_EERKNS1_IT0_EE, symObjAddr: 0x3C700, symBinAddr: 0x10003CE38, symSize: 0x60 }
  - { offsetInCU: 0x29A16, offset: 0x29A16, size: 0x8, addend: 0x0, symName: __ZNSt3__112__to_addressB8ue170006INS_16reverse_iteratorINS1_IPNS_4pairIccEEEEEEvEEu7__decayIDTclsr19__to_address_helperIT_EE6__callclsr3stdE7declvalIRKS7_EEEEES9_, symObjAddr: 0x3C760, symBinAddr: 0x10003CE98, symSize: 0x24 }
  - { offsetInCU: 0x29B81, offset: 0x29B81, size: 0x8, addend: 0x0, symName: __ZNSt3__119__throw_regex_errorB8ue170006ILNS_15regex_constants10error_typeE8EEEvv, symObjAddr: 0x3D314, symBinAddr: 0x10003DA4C, symSize: 0x60 }
  - { offsetInCU: 0x29BA6, offset: 0x29BA6, size: 0x8, addend: 0x0, symName: __ZNSt3__119__throw_regex_errorB8ue170006ILNS_15regex_constants10error_typeE7EEEvv, symObjAddr: 0x3D374, symBinAddr: 0x10003DAAC, symSize: 0x60 }
  - { offsetInCU: 0x2A536, offset: 0x2A536, size: 0x8, addend: 0x0, symName: __ZNSt3__119__throw_regex_errorB8ue170006ILNS_15regex_constants10error_typeE15EEEvv, symObjAddr: 0x3E504, symBinAddr: 0x10003EC3C, symSize: 0x60 }
  - { offsetInCU: 0x2A5CF, offset: 0x2A5CF, size: 0x8, addend: 0x0, symName: __ZNSt3__14findB8ue170006IPKccEET_S3_S3_RKT0_, symObjAddr: 0x3FC64, symBinAddr: 0x10004039C, symSize: 0x60 }
  - { offsetInCU: 0x2A637, offset: 0x2A637, size: 0x8, addend: 0x0, symName: __ZNSt3__113__rewrap_iterB8ue170006IPKcS2_NS_18__unwrap_iter_implIS2_Lb1EEEEET_S5_T0_, symObjAddr: 0x3FCC4, symBinAddr: 0x1000403FC, symSize: 0x50 }
  - { offsetInCU: 0x2A68C, offset: 0x2A68C, size: 0x8, addend: 0x0, symName: __ZNSt3__118__constexpr_strlenB8ue170006EPKc, symObjAddr: 0x3FDA4, symBinAddr: 0x1000404DC, symSize: 0x24 }
  - { offsetInCU: 0x2A6B8, offset: 0x2A6B8, size: 0x8, addend: 0x0, symName: __ZNSt3__134__libcpp_atomic_refcount_decrementB8ue170006IlEET_RS1_, symObjAddr: 0x3FED4, symBinAddr: 0x10004060C, symSize: 0x30 }
  - { offsetInCU: 0x2A6ED, offset: 0x2A6ED, size: 0x8, addend: 0x0, symName: __ZNSt3__1neB8ue170006ERKNS_16__deque_iteratorIP5TokenPS2_RS2_PS3_lLl512EEES8_, symObjAddr: 0x40578, symBinAddr: 0x100040CB0, symSize: 0x34 }
  - { offsetInCU: 0x2A72A, offset: 0x2A72A, size: 0x8, addend: 0x0, symName: __ZNSt3__1eqB8ue170006ERKNS_16__deque_iteratorIP5TokenPS2_RS2_PS3_lLl512EEES8_, symObjAddr: 0x4075C, symBinAddr: 0x100040E94, symSize: 0x30 }
  - { offsetInCU: 0x2A767, offset: 0x2A767, size: 0x8, addend: 0x0, symName: __ZNSt3__14copyB8ue170006IPKcPcEET0_T_S5_S4_, symObjAddr: 0x41C60, symBinAddr: 0x100042398, symSize: 0x40 }
  - { offsetInCU: 0x2A7C1, offset: 0x2A7C1, size: 0x8, addend: 0x0, symName: __ZNSt3__16__copyB8ue170006INS_17_ClassicAlgPolicyEPKcS3_PcEENS_4pairIT0_T2_EES6_T1_S7_, symObjAddr: 0x41CA0, symBinAddr: 0x1000423D8, symSize: 0x44 }
  - { offsetInCU: 0x2A82D, offset: 0x2A82D, size: 0x8, addend: 0x0, symName: __ZNSt3__123__dispatch_copy_or_moveB8ue170006INS_17_ClassicAlgPolicyENS_11__copy_loopIS1_EENS_14__copy_trivialEPKcS6_PcEENS_4pairIT2_T4_EES9_T3_SA_, symObjAddr: 0x41CE4, symBinAddr: 0x10004241C, symSize: 0x44 }
  - { offsetInCU: 0x2A8AB, offset: 0x2A8AB, size: 0x8, addend: 0x0, symName: __ZNSt3__121__unwrap_and_dispatchB8ue170006INS_10__overloadINS_11__copy_loopINS_17_ClassicAlgPolicyEEENS_14__copy_trivialEEEPKcS8_PcLi0EEENS_4pairIT0_T2_EESB_T1_SC_, symObjAddr: 0x41D28, symBinAddr: 0x100042460, symSize: 0xB4 }
  - { offsetInCU: 0x2A939, offset: 0x2A939, size: 0x8, addend: 0x0, symName: __ZNSt3__114__unwrap_rangeB8ue170006IPKcS2_EENS_4pairIT0_S4_EET_S6_, symObjAddr: 0x41DDC, symBinAddr: 0x100042514, symSize: 0x60 }
  - { offsetInCU: 0x2AA32, offset: 0x2AA32, size: 0x8, addend: 0x0, symName: __ZNSt3__113__unwrap_iterB8ue170006IPcNS_18__unwrap_iter_implIS1_Lb1EEELi0EEEDTclsrT0_8__unwrapclsr3stdE7declvalIT_EEEES5_, symObjAddr: 0x41E84, symBinAddr: 0x1000425BC, symSize: 0x24 }
  - { offsetInCU: 0x2AA76, offset: 0x2AA76, size: 0x8, addend: 0x0, symName: __ZNSt3__19make_pairB8ue170006IPKcPcEENS_4pairINS_18__unwrap_ref_decayIT_E4typeENS5_IT0_E4typeEEEOS6_OS9_, symObjAddr: 0x41EA8, symBinAddr: 0x1000425E0, symSize: 0x38 }
  - { offsetInCU: 0x2AAC5, offset: 0x2AAC5, size: 0x8, addend: 0x0, symName: __ZNSt3__114__rewrap_rangeB8ue170006IPKcS2_EET_S3_T0_, symObjAddr: 0x41EE0, symBinAddr: 0x100042618, symSize: 0x2C }
  - { offsetInCU: 0x2AB11, offset: 0x2AB11, size: 0x8, addend: 0x0, symName: __ZNSt3__113__rewrap_iterB8ue170006IPcS1_NS_18__unwrap_iter_implIS1_Lb1EEEEET_S4_T0_, symObjAddr: 0x41F0C, symBinAddr: 0x100042644, symSize: 0x50 }
  - { offsetInCU: 0x2AB66, offset: 0x2AB66, size: 0x8, addend: 0x0, symName: __ZNSt3__19make_pairB8ue170006IPKcS2_EENS_4pairINS_18__unwrap_ref_decayIT_E4typeENS4_IT0_E4typeEEEOS5_OS8_, symObjAddr: 0x41F5C, symBinAddr: 0x100042694, symSize: 0x38 }
  - { offsetInCU: 0x2ABB5, offset: 0x2ABB5, size: 0x8, addend: 0x0, symName: __ZNSt3__119__copy_trivial_implB8ue170006IKccEENS_4pairIPT_PT0_EES4_S4_S6_, symObjAddr: 0x41F94, symBinAddr: 0x1000426CC, symSize: 0x78 }
  - { offsetInCU: 0x2AC1D, offset: 0x2AC1D, size: 0x8, addend: 0x0, symName: __ZNSt3__119__constexpr_memmoveB8ue170006IcKcLi0EEEPT_S3_PT0_NS_15__element_countE, symObjAddr: 0x4200C, symBinAddr: 0x100042744, symSize: 0xA0 }
  - { offsetInCU: 0x2AC8B, offset: 0x2AC8B, size: 0x8, addend: 0x0, symName: __ZNSt3__19make_pairB8ue170006IRPKcPcEENS_4pairINS_18__unwrap_ref_decayIT_E4typeENS6_IT0_E4typeEEEOS7_OSA_, symObjAddr: 0x420AC, symBinAddr: 0x1000427E4, symSize: 0x38 }
  - { offsetInCU: 0x2AD2D, offset: 0x2AD2D, size: 0x8, addend: 0x0, symName: __ZNSt3__16fill_nB8ue170006IPcmcEET_S2_T0_RKT1_, symObjAddr: 0x421C0, symBinAddr: 0x1000428F8, symSize: 0x44 }
  - { offsetInCU: 0x2AD90, offset: 0x2AD90, size: 0x8, addend: 0x0, symName: __ZNSt3__18__fill_nB8ue170006IPcmcEET_S2_T0_RKT1_, symObjAddr: 0x42204, symBinAddr: 0x10004293C, symSize: 0x64 }
  - { offsetInCU: 0x2B27C, offset: 0x2B27C, size: 0x8, addend: 0x0, symName: __ZNSt3__14swapB8ue170006IPPP5TokenEEvRT_S6_, symObjAddr: 0x436EC, symBinAddr: 0x100043E24, symSize: 0x3C }
  - { offsetInCU: 0x2B2CD, offset: 0x2B2CD, size: 0x8, addend: 0x0, symName: __ZNSt3__14moveB8ue170006IPPP5TokenS4_EET0_T_S6_S5_, symObjAddr: 0x437D0, symBinAddr: 0x100043F08, symSize: 0x40 }
  - { offsetInCU: 0x2B344, offset: 0x2B344, size: 0x8, addend: 0x0, symName: __ZNSt3__16__moveB8ue170006INS_17_ClassicAlgPolicyEPPP5TokenS5_S5_EENS_4pairIT0_T2_EES7_T1_S8_, symObjAddr: 0x438D8, symBinAddr: 0x100044010, symSize: 0x44 }
  - { offsetInCU: 0x2B3B0, offset: 0x2B3B0, size: 0x8, addend: 0x0, symName: __ZNSt3__123__dispatch_copy_or_moveB8ue170006INS_17_ClassicAlgPolicyENS_11__move_loopIS1_EENS_14__move_trivialEPPP5TokenS8_S8_EENS_4pairIT2_T4_EESA_T3_SB_, symObjAddr: 0x4391C, symBinAddr: 0x100044054, symSize: 0x44 }
  - { offsetInCU: 0x2B42E, offset: 0x2B42E, size: 0x8, addend: 0x0, symName: __ZNSt3__121__unwrap_and_dispatchB8ue170006INS_10__overloadINS_11__move_loopINS_17_ClassicAlgPolicyEEENS_14__move_trivialEEEPPP5TokenSA_SA_Li0EEENS_4pairIT0_T2_EESC_T1_SD_, symObjAddr: 0x43960, symBinAddr: 0x100044098, symSize: 0xB4 }
  - { offsetInCU: 0x2B4BC, offset: 0x2B4BC, size: 0x8, addend: 0x0, symName: __ZNSt3__114__unwrap_rangeB8ue170006IPPP5TokenS4_EENS_4pairIT0_S6_EET_S8_, symObjAddr: 0x43A14, symBinAddr: 0x10004414C, symSize: 0x60 }
  - { offsetInCU: 0x2B637, offset: 0x2B637, size: 0x8, addend: 0x0, symName: __ZNSt3__113__unwrap_iterB8ue170006IPPP5TokenNS_18__unwrap_iter_implIS4_Lb1EEELi0EEEDTclsrT0_8__unwrapclsr3stdE7declvalIT_EEEES8_, symObjAddr: 0x43ABC, symBinAddr: 0x1000441F4, symSize: 0x24 }
  - { offsetInCU: 0x2B67B, offset: 0x2B67B, size: 0x8, addend: 0x0, symName: __ZNSt3__19make_pairB8ue170006IPPP5TokenS4_EENS_4pairINS_18__unwrap_ref_decayIT_E4typeENS6_IT0_E4typeEEEOS7_OSA_, symObjAddr: 0x43AE0, symBinAddr: 0x100044218, symSize: 0x38 }
  - { offsetInCU: 0x2B6CA, offset: 0x2B6CA, size: 0x8, addend: 0x0, symName: __ZNSt3__114__rewrap_rangeB8ue170006IPPP5TokenS4_EET_S5_T0_, symObjAddr: 0x43B18, symBinAddr: 0x100044250, symSize: 0x2C }
  - { offsetInCU: 0x2B716, offset: 0x2B716, size: 0x8, addend: 0x0, symName: __ZNSt3__113__rewrap_iterB8ue170006IPPP5TokenS4_NS_18__unwrap_iter_implIS4_Lb1EEEEET_S7_T0_, symObjAddr: 0x43B44, symBinAddr: 0x10004427C, symSize: 0x50 }
  - { offsetInCU: 0x2B76B, offset: 0x2B76B, size: 0x8, addend: 0x0, symName: __ZNSt3__119__copy_trivial_implB8ue170006IPP5TokenS3_EENS_4pairIPT_PT0_EES6_S6_S8_, symObjAddr: 0x43B94, symBinAddr: 0x1000442CC, symSize: 0x80 }
  - { offsetInCU: 0x2B7D3, offset: 0x2B7D3, size: 0x8, addend: 0x0, symName: __ZNSt3__119__constexpr_memmoveB8ue170006IPP5TokenS3_Li0EEEPT_S5_PT0_NS_15__element_countE, symObjAddr: 0x43C14, symBinAddr: 0x10004434C, symSize: 0xA0 }
  - { offsetInCU: 0x2B841, offset: 0x2B841, size: 0x8, addend: 0x0, symName: __ZNSt3__19make_pairB8ue170006IRPPP5TokenS4_EENS_4pairINS_18__unwrap_ref_decayIT_E4typeENS7_IT0_E4typeEEEOS8_OSB_, symObjAddr: 0x43CB4, symBinAddr: 0x1000443EC, symSize: 0x38 }
  - { offsetInCU: 0x2B8E3, offset: 0x2B8E3, size: 0x8, addend: 0x0, symName: __ZNSt3__18distanceB8ue170006INS_13move_iteratorIPPP5TokenEEEENS_15iterator_traitsIT_E15difference_typeES8_S8_, symObjAddr: 0x43EB4, symBinAddr: 0x1000445EC, symSize: 0x3C }
  - { offsetInCU: 0x2B926, offset: 0x2B926, size: 0x8, addend: 0x0, symName: __ZNSt3__110__distanceB8ue170006INS_13move_iteratorIPPP5TokenEEEENS_15iterator_traitsIT_E15difference_typeES8_S8_NS_26random_access_iterator_tagE, symObjAddr: 0x440B8, symBinAddr: 0x1000447F0, symSize: 0x30 }
  - { offsetInCU: 0x2B973, offset: 0x2B973, size: 0x8, addend: 0x0, symName: __ZNSt3__1miB8ue170006IPPP5TokenS4_EENS_13move_iteratorIT_E15difference_typeERKS7_RKNS5_IT0_EE, symObjAddr: 0x440E8, symBinAddr: 0x100044820, symSize: 0x48 }
  - { offsetInCU: 0x2B9C2, offset: 0x2B9C2, size: 0x8, addend: 0x0, symName: __ZNSt3__113move_backwardB8ue170006IPPP5TokenS4_EET0_T_S6_S5_, symObjAddr: 0x4424C, symBinAddr: 0x100044984, symSize: 0x40 }
  - { offsetInCU: 0x2BA1C, offset: 0x2BA1C, size: 0x8, addend: 0x0, symName: __ZNSt3__115__move_backwardB8ue170006INS_17_ClassicAlgPolicyEPPP5TokenS5_S5_EENS_4pairIT0_T2_EES7_T1_S8_, symObjAddr: 0x4428C, symBinAddr: 0x1000449C4, symSize: 0x44 }
  - { offsetInCU: 0x2BA88, offset: 0x2BA88, size: 0x8, addend: 0x0, symName: __ZNSt3__123__dispatch_copy_or_moveB8ue170006INS_17_ClassicAlgPolicyENS_20__move_backward_loopIS1_EENS_23__move_backward_trivialEPPP5TokenS8_S8_EENS_4pairIT2_T4_EESA_T3_SB_, symObjAddr: 0x442D0, symBinAddr: 0x100044A08, symSize: 0x44 }
  - { offsetInCU: 0x2BB06, offset: 0x2BB06, size: 0x8, addend: 0x0, symName: __ZNSt3__121__unwrap_and_dispatchB8ue170006INS_10__overloadINS_20__move_backward_loopINS_17_ClassicAlgPolicyEEENS_23__move_backward_trivialEEEPPP5TokenSA_SA_Li0EEENS_4pairIT0_T2_EESC_T1_SD_, symObjAddr: 0x44314, symBinAddr: 0x100044A4C, symSize: 0xB4 }
  - { offsetInCU: 0x2BC16, offset: 0x2BC16, size: 0x8, addend: 0x0, symName: __ZNSt3__128__copy_backward_trivial_implB8ue170006IPP5TokenS3_EENS_4pairIPT_PT0_EES6_S6_S8_, symObjAddr: 0x44410, symBinAddr: 0x100044B48, symSize: 0x90 }
  - { offsetInCU: 0x2BC7E, offset: 0x2BC7E, size: 0x8, addend: 0x0, symName: __ZNSt3__19make_pairB8ue170006IRPPP5TokenS5_EENS_4pairINS_18__unwrap_ref_decayIT_E4typeENS7_IT0_E4typeEEEOS8_OSB_, symObjAddr: 0x444A0, symBinAddr: 0x100044BD8, symSize: 0x38 }
  - { offsetInCU: 0x2BCCD, offset: 0x2BCCD, size: 0x8, addend: 0x0, symName: __ZNSt3__119__allocate_at_leastB8ue170006INS_9allocatorIPP5TokenEEEENS_19__allocation_resultINS_16allocator_traitsIT_E7pointerEEERS8_m, symObjAddr: 0x445E8, symBinAddr: 0x100044D20, symSize: 0x40 }
  - { offsetInCU: 0x2BD10, offset: 0x2BD10, size: 0x8, addend: 0x0, symName: __ZNSt3__111regex_matchB8ue170006INS_11__wrap_iterIPKcEEcNS_12regex_traitsIcEEEEbT_S7_RKNS_11basic_regexIT0_T1_EENS_15regex_constants15match_flag_typeE, symObjAddr: 0x44CCC, symBinAddr: 0x100045404, symSize: 0xB8 }
  - { offsetInCU: 0x2C09B, offset: 0x2C09B, size: 0x8, addend: 0x0, symName: __ZNSt3__111regex_matchB8ue170006INS_11__wrap_iterIPKcEENS_9allocatorINS_9sub_matchIS4_EEEEcNS_12regex_traitsIcEEEEbT_SB_RNS_13match_resultsISB_T0_EERKNS_11basic_regexIT1_T2_EENS_15regex_constants15match_flag_typeE, symObjAddr: 0x44E98, symBinAddr: 0x1000455D0, symSize: 0xD0 }
  - { offsetInCU: 0x2C144, offset: 0x2C144, size: 0x8, addend: 0x0, symName: __ZNSt3__112__to_addressB8ue170006INS_9sub_matchINS_11__wrap_iterIPKcEEEEEEPT_S8_, symObjAddr: 0x4562C, symBinAddr: 0x100045D64, symSize: 0x14 }
  - { offsetInCU: 0x2C179, offset: 0x2C179, size: 0x8, addend: 0x0, symName: __ZNSt3__112regex_searchB8ue170006IPKcNS_9allocatorINS_9sub_matchINS_11__wrap_iterIS2_EEEEEEcNS_12regex_traitsIcEEEEbNS5_IT_EESC_RNS_13match_resultsISC_T0_EERKNS_11basic_regexIT1_T2_EENS_15regex_constants15match_flag_typeE, symObjAddr: 0x457D0, symBinAddr: 0x100045F08, symSize: 0x13C }
  - { offsetInCU: 0x2C227, offset: 0x2C227, size: 0x8, addend: 0x0, symName: __ZNSt3__112__to_addressB8ue170006IPNS_7__stateIcEEEEPT_S5_, symObjAddr: 0x47FB0, symBinAddr: 0x1000486E8, symSize: 0x14 }
  - { offsetInCU: 0x2C631, offset: 0x2C631, size: 0x8, addend: 0x0, symName: __ZNSt3__14swapB8ue170006IPPNS_7__stateIcEEEEvRT_S6_, symObjAddr: 0x495E0, symBinAddr: 0x100049D18, symSize: 0x3C }
  - { offsetInCU: 0x2C682, offset: 0x2C682, size: 0x8, addend: 0x0, symName: __ZNSt3__14moveB8ue170006IPPNS_7__stateIcEES4_EET0_T_S6_S5_, symObjAddr: 0x49710, symBinAddr: 0x100049E48, symSize: 0x40 }
  - { offsetInCU: 0x2C6DC, offset: 0x2C6DC, size: 0x8, addend: 0x0, symName: __ZNSt3__16__moveB8ue170006INS_17_ClassicAlgPolicyEPPNS_7__stateIcEES5_S5_EENS_4pairIT0_T2_EES7_T1_S8_, symObjAddr: 0x49818, symBinAddr: 0x100049F50, symSize: 0x44 }
  - { offsetInCU: 0x2C748, offset: 0x2C748, size: 0x8, addend: 0x0, symName: __ZNSt3__123__dispatch_copy_or_moveB8ue170006INS_17_ClassicAlgPolicyENS_11__move_loopIS1_EENS_14__move_trivialEPPNS_7__stateIcEES8_S8_EENS_4pairIT2_T4_EESA_T3_SB_, symObjAddr: 0x4985C, symBinAddr: 0x100049F94, symSize: 0x44 }
  - { offsetInCU: 0x2C7C6, offset: 0x2C7C6, size: 0x8, addend: 0x0, symName: __ZNSt3__121__unwrap_and_dispatchB8ue170006INS_10__overloadINS_11__move_loopINS_17_ClassicAlgPolicyEEENS_14__move_trivialEEEPPNS_7__stateIcEESA_SA_Li0EEENS_4pairIT0_T2_EESC_T1_SD_, symObjAddr: 0x498A0, symBinAddr: 0x100049FD8, symSize: 0xB4 }
  - { offsetInCU: 0x2C854, offset: 0x2C854, size: 0x8, addend: 0x0, symName: __ZNSt3__114__unwrap_rangeB8ue170006IPPNS_7__stateIcEES4_EENS_4pairIT0_S6_EET_S8_, symObjAddr: 0x49954, symBinAddr: 0x10004A08C, symSize: 0x60 }
  - { offsetInCU: 0x2C94D, offset: 0x2C94D, size: 0x8, addend: 0x0, symName: __ZNSt3__113__unwrap_iterB8ue170006IPPNS_7__stateIcEENS_18__unwrap_iter_implIS4_Lb1EEELi0EEEDTclsrT0_8__unwrapclsr3stdE7declvalIT_EEEES8_, symObjAddr: 0x499FC, symBinAddr: 0x10004A134, symSize: 0x24 }
  - { offsetInCU: 0x2C991, offset: 0x2C991, size: 0x8, addend: 0x0, symName: __ZNSt3__19make_pairB8ue170006IPPNS_7__stateIcEES4_EENS_4pairINS_18__unwrap_ref_decayIT_E4typeENS6_IT0_E4typeEEEOS7_OSA_, symObjAddr: 0x49A20, symBinAddr: 0x10004A158, symSize: 0x38 }
  - { offsetInCU: 0x2C9E0, offset: 0x2C9E0, size: 0x8, addend: 0x0, symName: __ZNSt3__114__rewrap_rangeB8ue170006IPPNS_7__stateIcEES4_EET_S5_T0_, symObjAddr: 0x49A58, symBinAddr: 0x10004A190, symSize: 0x2C }
  - { offsetInCU: 0x2CA2C, offset: 0x2CA2C, size: 0x8, addend: 0x0, symName: __ZNSt3__113__rewrap_iterB8ue170006IPPNS_7__stateIcEES4_NS_18__unwrap_iter_implIS4_Lb1EEEEET_S7_T0_, symObjAddr: 0x49A84, symBinAddr: 0x10004A1BC, symSize: 0x50 }
  - { offsetInCU: 0x2CA81, offset: 0x2CA81, size: 0x8, addend: 0x0, symName: __ZNSt3__119__copy_trivial_implB8ue170006IPNS_7__stateIcEES3_EENS_4pairIPT_PT0_EES6_S6_S8_, symObjAddr: 0x49AD4, symBinAddr: 0x10004A20C, symSize: 0x80 }
  - { offsetInCU: 0x2CAE9, offset: 0x2CAE9, size: 0x8, addend: 0x0, symName: __ZNSt3__119__constexpr_memmoveB8ue170006IPNS_7__stateIcEES3_Li0EEEPT_S5_PT0_NS_15__element_countE, symObjAddr: 0x49B54, symBinAddr: 0x10004A28C, symSize: 0xA0 }
  - { offsetInCU: 0x2CB57, offset: 0x2CB57, size: 0x8, addend: 0x0, symName: __ZNSt3__19make_pairB8ue170006IRPPNS_7__stateIcEES4_EENS_4pairINS_18__unwrap_ref_decayIT_E4typeENS7_IT0_E4typeEEEOS8_OSB_, symObjAddr: 0x49BF4, symBinAddr: 0x10004A32C, symSize: 0x38 }
  - { offsetInCU: 0x2CBF9, offset: 0x2CBF9, size: 0x8, addend: 0x0, symName: __ZNSt3__18distanceB8ue170006INS_13move_iteratorIPPNS_7__stateIcEEEEEENS_15iterator_traitsIT_E15difference_typeES8_S8_, symObjAddr: 0x49DF4, symBinAddr: 0x10004A52C, symSize: 0x3C }
  - { offsetInCU: 0x2CC3C, offset: 0x2CC3C, size: 0x8, addend: 0x0, symName: __ZNSt3__110__distanceB8ue170006INS_13move_iteratorIPPNS_7__stateIcEEEEEENS_15iterator_traitsIT_E15difference_typeES8_S8_NS_26random_access_iterator_tagE, symObjAddr: 0x49FF8, symBinAddr: 0x10004A730, symSize: 0x30 }
  - { offsetInCU: 0x2CC89, offset: 0x2CC89, size: 0x8, addend: 0x0, symName: __ZNSt3__1miB8ue170006IPPNS_7__stateIcEES4_EENS_13move_iteratorIT_E15difference_typeERKS7_RKNS5_IT0_EE, symObjAddr: 0x4A028, symBinAddr: 0x10004A760, symSize: 0x48 }
  - { offsetInCU: 0x2CCD8, offset: 0x2CCD8, size: 0x8, addend: 0x0, symName: __ZNSt3__113move_backwardB8ue170006IPPNS_7__stateIcEES4_EET0_T_S6_S5_, symObjAddr: 0x4A0D0, symBinAddr: 0x10004A808, symSize: 0x40 }
  - { offsetInCU: 0x2CD32, offset: 0x2CD32, size: 0x8, addend: 0x0, symName: __ZNSt3__115__move_backwardB8ue170006INS_17_ClassicAlgPolicyEPPNS_7__stateIcEES5_S5_EENS_4pairIT0_T2_EES7_T1_S8_, symObjAddr: 0x4A110, symBinAddr: 0x10004A848, symSize: 0x44 }
  - { offsetInCU: 0x2CD9E, offset: 0x2CD9E, size: 0x8, addend: 0x0, symName: __ZNSt3__123__dispatch_copy_or_moveB8ue170006INS_17_ClassicAlgPolicyENS_20__move_backward_loopIS1_EENS_23__move_backward_trivialEPPNS_7__stateIcEES8_S8_EENS_4pairIT2_T4_EESA_T3_SB_, symObjAddr: 0x4A154, symBinAddr: 0x10004A88C, symSize: 0x44 }
  - { offsetInCU: 0x2CE1C, offset: 0x2CE1C, size: 0x8, addend: 0x0, symName: __ZNSt3__121__unwrap_and_dispatchB8ue170006INS_10__overloadINS_20__move_backward_loopINS_17_ClassicAlgPolicyEEENS_23__move_backward_trivialEEEPPNS_7__stateIcEESA_SA_Li0EEENS_4pairIT0_T2_EESC_T1_SD_, symObjAddr: 0x4A198, symBinAddr: 0x10004A8D0, symSize: 0xB4 }
  - { offsetInCU: 0x2CEAA, offset: 0x2CEAA, size: 0x8, addend: 0x0, symName: __ZNSt3__128__copy_backward_trivial_implB8ue170006IPNS_7__stateIcEES3_EENS_4pairIPT_PT0_EES6_S6_S8_, symObjAddr: 0x4A294, symBinAddr: 0x10004A9CC, symSize: 0x90 }
  - { offsetInCU: 0x2CF12, offset: 0x2CF12, size: 0x8, addend: 0x0, symName: __ZNSt3__19make_pairB8ue170006IRPPNS_7__stateIcEES5_EENS_4pairINS_18__unwrap_ref_decayIT_E4typeENS7_IT0_E4typeEEEOS8_OSB_, symObjAddr: 0x4A324, symBinAddr: 0x10004AA5C, symSize: 0x38 }
  - { offsetInCU: 0x2CF61, offset: 0x2CF61, size: 0x8, addend: 0x0, symName: __ZNSt3__119__allocate_at_leastB8ue170006INS_9allocatorIPNS_7__stateIcEEEEEENS_19__allocation_resultINS_16allocator_traitsIT_E7pointerEEERS8_m, symObjAddr: 0x4A4B0, symBinAddr: 0x10004ABE8, symSize: 0x40 }
  - { offsetInCU: 0x2CFA4, offset: 0x2CFA4, size: 0x8, addend: 0x0, symName: __ZNSt3__1neB8ue170006ERKNS_16__deque_iteratorINS_7__stateIcEEPS2_RS2_PS3_lLl42EEES8_, symObjAddr: 0x4AF24, symBinAddr: 0x10004B65C, symSize: 0x34 }
  - { offsetInCU: 0x2CFE1, offset: 0x2CFE1, size: 0x8, addend: 0x0, symName: __ZNSt3__1eqB8ue170006ERKNS_16__deque_iteratorINS_7__stateIcEEPS2_RS2_PS3_lLl42EEES8_, symObjAddr: 0x4AFC8, symBinAddr: 0x10004B700, symSize: 0x30 }
  - { offsetInCU: 0x2D01E, offset: 0x2D01E, size: 0x8, addend: 0x0, symName: __ZNSt3__18distanceB8ue170006IPNS_9sub_matchIPKcEEEENS_15iterator_traitsIT_E15difference_typeES7_S7_, symObjAddr: 0x4BD78, symBinAddr: 0x10004C4B0, symSize: 0x2C }
  - { offsetInCU: 0x2D061, offset: 0x2D061, size: 0x8, addend: 0x0, symName: __ZNSt3__14nextB8ue170006IPNS_9sub_matchIPKcEEEENS_9enable_ifIXsr29__has_input_iterator_categoryIT_EE5valueES7_E4typeES7_NS_15iterator_traitsIS7_E15difference_typeE, symObjAddr: 0x4BDA4, symBinAddr: 0x10004C4DC, symSize: 0x34 }
  - { offsetInCU: 0x2D0A4, offset: 0x2D0A4, size: 0x8, addend: 0x0, symName: __ZNSt3__14copyB8ue170006IPNS_9sub_matchIPKcEES5_EET0_T_S7_S6_, symObjAddr: 0x4BDD8, symBinAddr: 0x10004C510, symSize: 0x40 }
  - { offsetInCU: 0x2D0FE, offset: 0x2D0FE, size: 0x8, addend: 0x0, symName: __ZNSt3__16__copyB8ue170006INS_17_ClassicAlgPolicyEPNS_9sub_matchIPKcEES6_S6_EENS_4pairIT0_T2_EES8_T1_S9_, symObjAddr: 0x4BE18, symBinAddr: 0x10004C550, symSize: 0x44 }
  - { offsetInCU: 0x2D16A, offset: 0x2D16A, size: 0x8, addend: 0x0, symName: __ZNSt3__19__advanceB8ue170006IPNS_9sub_matchIPKcEEEEvRT_NS_15iterator_traitsIS6_E15difference_typeENS_26random_access_iterator_tagE, symObjAddr: 0x4BE94, symBinAddr: 0x10004C5CC, symSize: 0x30 }
  - { offsetInCU: 0x2D1B3, offset: 0x2D1B3, size: 0x8, addend: 0x0, symName: __ZNSt3__123__dispatch_copy_or_moveB8ue170006INS_17_ClassicAlgPolicyENS_11__copy_loopIS1_EENS_14__copy_trivialEPNS_9sub_matchIPKcEES9_S9_EENS_4pairIT2_T4_EESB_T3_SC_, symObjAddr: 0x4BEC4, symBinAddr: 0x10004C5FC, symSize: 0x44 }
  - { offsetInCU: 0x2D231, offset: 0x2D231, size: 0x8, addend: 0x0, symName: __ZNSt3__121__unwrap_and_dispatchB8ue170006INS_10__overloadINS_11__copy_loopINS_17_ClassicAlgPolicyEEENS_14__copy_trivialEEEPNS_9sub_matchIPKcEESB_SB_Li0EEENS_4pairIT0_T2_EESD_T1_SE_, symObjAddr: 0x4BF08, symBinAddr: 0x10004C640, symSize: 0xB4 }
  - { offsetInCU: 0x2D2BF, offset: 0x2D2BF, size: 0x8, addend: 0x0, symName: __ZNSt3__114__rewrap_rangeB8ue170006IPNS_9sub_matchIPKcEES5_EET_S6_T0_, symObjAddr: 0x4C044, symBinAddr: 0x10004C77C, symSize: 0x2C }
  - { offsetInCU: 0x2D30B, offset: 0x2D30B, size: 0x8, addend: 0x0, symName: __ZNSt3__110__distanceB8ue170006IPNS_9sub_matchIPKcEEEENS_15iterator_traitsIT_E15difference_typeES7_S7_NS_26random_access_iterator_tagE, symObjAddr: 0x4C070, symBinAddr: 0x10004C7A8, symSize: 0x28 }
  - { offsetInCU: 0x2D358, offset: 0x2D358, size: 0x8, addend: 0x0, symName: __ZNSt3__18distanceB8ue170006IPNS_4pairImPKcEEEENS_15iterator_traitsIT_E15difference_typeES7_S7_, symObjAddr: 0x4C298, symBinAddr: 0x10004C9D0, symSize: 0x2C }
  - { offsetInCU: 0x2D39B, offset: 0x2D39B, size: 0x8, addend: 0x0, symName: __ZNSt3__14nextB8ue170006IPNS_4pairImPKcEEEENS_9enable_ifIXsr29__has_input_iterator_categoryIT_EE5valueES7_E4typeES7_NS_15iterator_traitsIS7_E15difference_typeE, symObjAddr: 0x4C2C4, symBinAddr: 0x10004C9FC, symSize: 0x34 }
  - { offsetInCU: 0x2D3DE, offset: 0x2D3DE, size: 0x8, addend: 0x0, symName: __ZNSt3__14copyB8ue170006IPNS_4pairImPKcEES5_EET0_T_S7_S6_, symObjAddr: 0x4C2F8, symBinAddr: 0x10004CA30, symSize: 0x40 }
  - { offsetInCU: 0x2D438, offset: 0x2D438, size: 0x8, addend: 0x0, symName: __ZNSt3__16__copyB8ue170006INS_17_ClassicAlgPolicyEPNS_4pairImPKcEES6_S6_EENS2_IT0_T2_EES7_T1_S8_, symObjAddr: 0x4C338, symBinAddr: 0x10004CA70, symSize: 0x44 }
  - { offsetInCU: 0x2D4A4, offset: 0x2D4A4, size: 0x8, addend: 0x0, symName: __ZNSt3__19__advanceB8ue170006IPNS_4pairImPKcEEEEvRT_NS_15iterator_traitsIS6_E15difference_typeENS_26random_access_iterator_tagE, symObjAddr: 0x4C448, symBinAddr: 0x10004CB80, symSize: 0x28 }
  - { offsetInCU: 0x2D4ED, offset: 0x2D4ED, size: 0x8, addend: 0x0, symName: __ZNSt3__123__dispatch_copy_or_moveB8ue170006INS_17_ClassicAlgPolicyENS_11__copy_loopIS1_EENS_14__copy_trivialEPNS_4pairImPKcEES9_S9_EENS5_IT2_T4_EESA_T3_SB_, symObjAddr: 0x4C470, symBinAddr: 0x10004CBA8, symSize: 0x44 }
  - { offsetInCU: 0x2D56B, offset: 0x2D56B, size: 0x8, addend: 0x0, symName: __ZNSt3__121__unwrap_and_dispatchB8ue170006INS_10__overloadINS_11__copy_loopINS_17_ClassicAlgPolicyEEENS_14__copy_trivialEEEPNS_4pairImPKcEESB_SB_Li0EEENS7_IT0_T2_EESC_T1_SD_, symObjAddr: 0x4C4B4, symBinAddr: 0x10004CBEC, symSize: 0xB4 }
  - { offsetInCU: 0x2D5F9, offset: 0x2D5F9, size: 0x8, addend: 0x0, symName: __ZNSt3__114__rewrap_rangeB8ue170006IPNS_4pairImPKcEES5_EET_S6_T0_, symObjAddr: 0x4C5F0, symBinAddr: 0x10004CD28, symSize: 0x2C }
  - { offsetInCU: 0x2D645, offset: 0x2D645, size: 0x8, addend: 0x0, symName: __ZNSt3__110__distanceB8ue170006IPNS_4pairImPKcEEEENS_15iterator_traitsIT_E15difference_typeES7_S7_NS_26random_access_iterator_tagE, symObjAddr: 0x4C690, symBinAddr: 0x10004CDC8, symSize: 0x28 }
  - { offsetInCU: 0x2D692, offset: 0x2D692, size: 0x8, addend: 0x0, symName: __ZNSt3__14nextB8ue170006INS_11__wrap_iterIPKcEEEENS_9enable_ifIXsr29__has_input_iterator_categoryIT_EE5valueES6_E4typeES6_NS_15iterator_traitsIS6_E15difference_typeE, symObjAddr: 0x4C798, symBinAddr: 0x10004CED0, symSize: 0x3C }
  - { offsetInCU: 0x2D6D5, offset: 0x2D6D5, size: 0x8, addend: 0x0, symName: __ZNSt3__119__allocate_at_leastB8ue170006INS_9allocatorINS_9sub_matchINS_11__wrap_iterIPKcEEEEEEEENS_19__allocation_resultINS_16allocator_traitsIT_E7pointerEEERSB_m, symObjAddr: 0x4D120, symBinAddr: 0x10004D858, symSize: 0x40 }
  - { offsetInCU: 0x2D718, offset: 0x2D718, size: 0x8, addend: 0x0, symName: __ZNSt3__142__uninitialized_allocator_move_if_noexceptB8ue170006INS_9allocatorINS_9sub_matchINS_11__wrap_iterIPKcEEEEEENS_16reverse_iteratorIPS7_EESB_SB_EET2_RT_T0_T1_SC_, symObjAddr: 0x4D3DC, symBinAddr: 0x10004DB14, symSize: 0x134 }
  - { offsetInCU: 0x2D7B8, offset: 0x2D7B8, size: 0x8, addend: 0x0, symName: __ZNSt3__14swapB8ue170006IPNS_9sub_matchINS_11__wrap_iterIPKcEEEEEEvRT_S9_, symObjAddr: 0x4D55C, symBinAddr: 0x10004DC94, symSize: 0x3C }
  - { offsetInCU: 0x2D809, offset: 0x2D809, size: 0x8, addend: 0x0, symName: __ZNSt3__122__make_exception_guardB8ue170006INS_29_AllocatorDestroyRangeReverseINS_9allocatorINS_9sub_matchINS_11__wrap_iterIPKcEEEEEENS_16reverse_iteratorIPS8_EEEEEENS_28__exception_guard_exceptionsIT_EESF_, symObjAddr: 0x4D660, symBinAddr: 0x10004DD98, symSize: 0x4C }
  - { offsetInCU: 0x2D83F, offset: 0x2D83F, size: 0x8, addend: 0x0, symName: __ZNSt3__1neB8ue170006IPNS_9sub_matchINS_11__wrap_iterIPKcEEEES7_EEbRKNS_16reverse_iteratorIT_EERKNS8_IT0_EE, symObjAddr: 0x4D6F0, symBinAddr: 0x10004DE28, symSize: 0x48 }
  - { offsetInCU: 0x2D88B, offset: 0x2D88B, size: 0x8, addend: 0x0, symName: __ZNSt3__112__to_addressB8ue170006INS_16reverse_iteratorIPNS_9sub_matchINS_11__wrap_iterIPKcEEEEEEvEEu7__decayIDTclsr19__to_address_helperIT_EE6__callclsr3stdE7declvalIRKSA_EEEEESC_, symObjAddr: 0x4D76C, symBinAddr: 0x10004DEA4, symSize: 0x24 }
  - { offsetInCU: 0x2D8EA, offset: 0x2D8EA, size: 0x8, addend: 0x0, symName: __ZNSt3__119__allocator_destroyB8ue170006INS_9allocatorINS_9sub_matchINS_11__wrap_iterIPKcEEEEEENS_16reverse_iteratorINS9_IPS7_EEEESC_EEvRT_T0_T1_, symObjAddr: 0x4DA58, symBinAddr: 0x10004E190, symSize: 0x70 }
  - { offsetInCU: 0x2D94F, offset: 0x2D94F, size: 0x8, addend: 0x0, symName: __ZNSt3__1neB8ue170006INS_16reverse_iteratorIPNS_9sub_matchINS_11__wrap_iterIPKcEEEEEES9_EEbRKNS1_IT_EERKNS1_IT0_EE, symObjAddr: 0x4DB04, symBinAddr: 0x10004E23C, symSize: 0x60 }
  - { offsetInCU: 0x2D99B, offset: 0x2D99B, size: 0x8, addend: 0x0, symName: __ZNSt3__112__to_addressB8ue170006INS_16reverse_iteratorINS1_IPNS_9sub_matchINS_11__wrap_iterIPKcEEEEEEEEvEEu7__decayIDTclsr19__to_address_helperIT_EE6__callclsr3stdE7declvalIRKSB_EEEEESD_, symObjAddr: 0x4DB64, symBinAddr: 0x10004E29C, symSize: 0x24 }
  - { offsetInCU: 0x2D9FA, offset: 0x2D9FA, size: 0x8, addend: 0x0, symName: __ZNSt3__19__advanceB8ue170006INS_11__wrap_iterIPKcEEEEvRT_NS_15iterator_traitsIS5_E15difference_typeENS_26random_access_iterator_tagE, symObjAddr: 0x4DFF0, symBinAddr: 0x10004E728, symSize: 0x2C }
  - { offsetInCU: 0x2DA43, offset: 0x2DA43, size: 0x8, addend: 0x0, symName: __ZNSt3__122__make_exception_guardB8ue170006INS_6vectorIP18AbstractSyntaxTreeNS_9allocatorIS3_EEE16__destroy_vectorEEENS_28__exception_guard_exceptionsIT_EES9_, symObjAddr: 0x4EE98, symBinAddr: 0x10004F5D0, symSize: 0x40 }
  - { offsetInCU: 0x2DA78, offset: 0x2DA78, size: 0x8, addend: 0x0, symName: __ZNSt3__110__str_findB8ue170006IcmNS_11char_traitsIcEELm18446744073709551615EEET0_PKT_S3_S6_S3_S3_, symObjAddr: 0x4EFC0, symBinAddr: 0x10004F6F8, symSize: 0xE4 }
  - { offsetInCU: 0x2DB1F, offset: 0x2DB1F, size: 0x8, addend: 0x0, symName: __ZNSt3__118__search_substringB8ue170006IcNS_11char_traitsIcEEEEPKT_S5_S5_S5_S5_, symObjAddr: 0x4F0A4, symBinAddr: 0x10004F7DC, symSize: 0x154 }
  - { offsetInCU: 0x2DBB9, offset: 0x2DBB9, size: 0x8, addend: 0x0, symName: __ZNSt3__122__make_exception_guardB8ue170006INS_6vectorIP10ArgmentASTNS_9allocatorIS3_EEE16__destroy_vectorEEENS_28__exception_guard_exceptionsIT_EES9_, symObjAddr: 0x4F628, symBinAddr: 0x10004FD60, symSize: 0x40 }
  - { offsetInCU: 0x2DBEE, offset: 0x2DBEE, size: 0x8, addend: 0x0, symName: __ZNSt3__130__uninitialized_allocator_copyB8ue170006INS_9allocatorIP10ArgmentASTEEPS3_S5_S5_EET2_RT_T0_T1_S6_, symObjAddr: 0x4F848, symBinAddr: 0x10004FF80, symSize: 0x80 }
  - { offsetInCU: 0x2DC8B, offset: 0x2DC8B, size: 0x8, addend: 0x0, symName: __ZNSt3__114__unwrap_rangeB8ue170006IPP10ArgmentASTS3_EENS_4pairIT0_S5_EET_S7_, symObjAddr: 0x4F8C8, symBinAddr: 0x100050000, symSize: 0x60 }
  - { offsetInCU: 0x2DCD7, offset: 0x2DCD7, size: 0x8, addend: 0x0, symName: __ZNSt3__135__uninitialized_allocator_copy_implB8ue170006INS_9allocatorIP10ArgmentASTEEPS3_S5_S5_EET2_RT_T0_T1_S6_, symObjAddr: 0x4F928, symBinAddr: 0x100050060, symSize: 0xFC }
  - { offsetInCU: 0x2DD75, offset: 0x2DD75, size: 0x8, addend: 0x0, symName: __ZNSt3__113__unwrap_iterB8ue170006IPP10ArgmentASTNS_18__unwrap_iter_implIS3_Lb1EEELi0EEEDTclsrT0_8__unwrapclsr3stdE7declvalIT_EEEES7_, symObjAddr: 0x4FA24, symBinAddr: 0x10005015C, symSize: 0x24 }
  - { offsetInCU: 0x2DDB9, offset: 0x2DDB9, size: 0x8, addend: 0x0, symName: __ZNSt3__113__rewrap_iterB8ue170006IPP10ArgmentASTS3_NS_18__unwrap_iter_implIS3_Lb1EEEEET_S6_T0_, symObjAddr: 0x4FA48, symBinAddr: 0x100050180, symSize: 0x50 }
  - { offsetInCU: 0x2DE0E, offset: 0x2DE0E, size: 0x8, addend: 0x0, symName: __ZNSt3__122__make_exception_guardB8ue170006INS_29_AllocatorDestroyRangeReverseINS_9allocatorIP10ArgmentASTEEPS4_EEEENS_28__exception_guard_exceptionsIT_EES9_, symObjAddr: 0x4FA98, symBinAddr: 0x1000501D0, symSize: 0x4C }
  - { offsetInCU: 0x2DE44, offset: 0x2DE44, size: 0x8, addend: 0x0, symName: __ZNSt3__119__allocator_destroyB8ue170006INS_9allocatorIP10ArgmentASTEENS_16reverse_iteratorIPS3_EES7_EEvRT_T0_T1_, symObjAddr: 0x4FD18, symBinAddr: 0x100050450, symSize: 0x70 }
  - { offsetInCU: 0x2DEFA, offset: 0x2DEFA, size: 0x8, addend: 0x0, symName: __ZNSt3__122__make_exception_guardB8ue170006INS_6vectorINS_12basic_stringIcNS_11char_traitsIcEENS_9allocatorIcEEEENS5_IS7_EEE16__destroy_vectorEEENS_28__exception_guard_exceptionsIT_EESC_, symObjAddr: 0x503F0, symBinAddr: 0x100050B28, symSize: 0x40 }
  - { offsetInCU: 0x2DF2F, offset: 0x2DF2F, size: 0x8, addend: 0x0, symName: __ZNSt3__130__uninitialized_allocator_copyB8ue170006INS_9allocatorINS_12basic_stringIcNS_11char_traitsIcEENS1_IcEEEEEEPS6_S8_S8_EET2_RT_T0_T1_S9_, symObjAddr: 0x50618, symBinAddr: 0x100050D50, symSize: 0x80 }
  - { offsetInCU: 0x2DFCC, offset: 0x2DFCC, size: 0x8, addend: 0x0, symName: __ZNSt3__114__unwrap_rangeB8ue170006IPNS_12basic_stringIcNS_11char_traitsIcEENS_9allocatorIcEEEES7_EENS_4pairIT0_S9_EET_SB_, symObjAddr: 0x50698, symBinAddr: 0x100050DD0, symSize: 0x60 }
  - { offsetInCU: 0x2E018, offset: 0x2E018, size: 0x8, addend: 0x0, symName: __ZNSt3__135__uninitialized_allocator_copy_implB8ue170006INS_9allocatorINS_12basic_stringIcNS_11char_traitsIcEENS1_IcEEEEEEPS6_S8_S8_EET2_RT_T0_T1_S9_, symObjAddr: 0x506F8, symBinAddr: 0x100050E30, symSize: 0xFC }
  - { offsetInCU: 0x2E0B6, offset: 0x2E0B6, size: 0x8, addend: 0x0, symName: __ZNSt3__113__unwrap_iterB8ue170006IPNS_12basic_stringIcNS_11char_traitsIcEENS_9allocatorIcEEEENS_18__unwrap_iter_implIS7_Lb1EEELi0EEEDTclsrT0_8__unwrapclsr3stdE7declvalIT_EEEESB_, symObjAddr: 0x507F4, symBinAddr: 0x100050F2C, symSize: 0x24 }
  - { offsetInCU: 0x2E0FA, offset: 0x2E0FA, size: 0x8, addend: 0x0, symName: __ZNSt3__113__rewrap_iterB8ue170006IPNS_12basic_stringIcNS_11char_traitsIcEENS_9allocatorIcEEEES7_NS_18__unwrap_iter_implIS7_Lb1EEEEET_SA_T0_, symObjAddr: 0x50818, symBinAddr: 0x100050F50, symSize: 0x50 }
  - { offsetInCU: 0x2E14F, offset: 0x2E14F, size: 0x8, addend: 0x0, symName: __ZNSt3__122__make_exception_guardB8ue170006INS_29_AllocatorDestroyRangeReverseINS_9allocatorINS_12basic_stringIcNS_11char_traitsIcEENS2_IcEEEEEEPS7_EEEENS_28__exception_guard_exceptionsIT_EESC_, symObjAddr: 0x50868, symBinAddr: 0x100050FA0, symSize: 0x4C }
  - { offsetInCU: 0x2E185, offset: 0x2E185, size: 0x8, addend: 0x0, symName: __ZNSt3__119__allocator_destroyB8ue170006INS_9allocatorINS_12basic_stringIcNS_11char_traitsIcEENS1_IcEEEEEENS_16reverse_iteratorIPS6_EESA_EEvRT_T0_T1_, symObjAddr: 0x50AF0, symBinAddr: 0x100051228, symSize: 0x70 }
  - { offsetInCU: 0x2E23B, offset: 0x2E23B, size: 0x8, addend: 0x0, symName: __ZNSt3__122__make_exception_guardB8ue170006INS_6vectorI14AccessModifierNS_9allocatorIS2_EEE16__destroy_vectorEEENS_28__exception_guard_exceptionsIT_EES8_, symObjAddr: 0x50E20, symBinAddr: 0x100051558, symSize: 0x40 }
  - { offsetInCU: 0x2E270, offset: 0x2E270, size: 0x8, addend: 0x0, symName: __ZNSt3__130__uninitialized_allocator_copyB8ue170006INS_9allocatorI14AccessModifierEEPS2_S4_S4_EET2_RT_T0_T1_S5_, symObjAddr: 0x51040, symBinAddr: 0x100051778, symSize: 0x80 }
  - { offsetInCU: 0x2E30D, offset: 0x2E30D, size: 0x8, addend: 0x0, symName: __ZNSt3__114__unwrap_rangeB8ue170006IP14AccessModifierS2_EENS_4pairIT0_S4_EET_S6_, symObjAddr: 0x510C0, symBinAddr: 0x1000517F8, symSize: 0x60 }
  - { offsetInCU: 0x2E359, offset: 0x2E359, size: 0x8, addend: 0x0, symName: __ZNSt3__135__uninitialized_allocator_copy_implB8ue170006INS_9allocatorI14AccessModifierEEPS2_S4_S4_EET2_RT_T0_T1_S5_, symObjAddr: 0x51120, symBinAddr: 0x100051858, symSize: 0xFC }
  - { offsetInCU: 0x2E3F7, offset: 0x2E3F7, size: 0x8, addend: 0x0, symName: __ZNSt3__113__unwrap_iterB8ue170006IP14AccessModifierNS_18__unwrap_iter_implIS2_Lb1EEELi0EEEDTclsrT0_8__unwrapclsr3stdE7declvalIT_EEEES6_, symObjAddr: 0x5121C, symBinAddr: 0x100051954, symSize: 0x24 }
  - { offsetInCU: 0x2E43B, offset: 0x2E43B, size: 0x8, addend: 0x0, symName: __ZNSt3__113__rewrap_iterB8ue170006IP14AccessModifierS2_NS_18__unwrap_iter_implIS2_Lb1EEEEET_S5_T0_, symObjAddr: 0x51240, symBinAddr: 0x100051978, symSize: 0x50 }
  - { offsetInCU: 0x2E490, offset: 0x2E490, size: 0x8, addend: 0x0, symName: __ZNSt3__122__make_exception_guardB8ue170006INS_29_AllocatorDestroyRangeReverseINS_9allocatorI14AccessModifierEEPS3_EEEENS_28__exception_guard_exceptionsIT_EES8_, symObjAddr: 0x51290, symBinAddr: 0x1000519C8, symSize: 0x4C }
  - { offsetInCU: 0x2E4C6, offset: 0x2E4C6, size: 0x8, addend: 0x0, symName: __ZNSt3__119__allocator_destroyB8ue170006INS_9allocatorI14AccessModifierEENS_16reverse_iteratorIPS2_EES6_EEvRT_T0_T1_, symObjAddr: 0x51510, symBinAddr: 0x100051C48, symSize: 0x70 }
  - { offsetInCU: 0x2E57C, offset: 0x2E57C, size: 0x8, addend: 0x0, symName: __ZNSt3__116__pad_and_outputB8ue170006IcNS_11char_traitsIcEEEENS_19ostreambuf_iteratorIT_T0_EES6_PKS4_S8_S8_RNS_8ios_baseES4_, symObjAddr: 0x5184C, symBinAddr: 0x100051F84, symSize: 0x248 }
  - { offsetInCU: 0x2EE9A, offset: 0x2EE9A, size: 0x8, addend: 0x0, symName: __ZSt28__throw_bad_array_new_lengthB8ue170006v, symObjAddr: 0x15F00, symBinAddr: 0x100016638, symSize: 0x34 }
  - { offsetInCU: 0x2FDED, offset: 0x2FDED, size: 0x8, addend: 0x0, symName: __ZNSt3__16vectorIP18AbstractSyntaxTreeNS_9allocatorIS2_EEE26__swap_out_circular_bufferERNS_14__split_bufferIS2_RS4_EE, symObjAddr: 0x15588, symBinAddr: 0x100015CC0, symSize: 0x110 }
  - { offsetInCU: 0x3017A, offset: 0x3017A, size: 0x8, addend: 0x0, symName: __ZNSt3__16vectorIP10ArgmentASTNS_9allocatorIS2_EEE26__swap_out_circular_bufferERNS_14__split_bufferIS2_RS4_EE, symObjAddr: 0x18A58, symBinAddr: 0x100019190, symSize: 0x110 }
  - { offsetInCU: 0x303BE, offset: 0x303BE, size: 0x8, addend: 0x0, symName: __ZNSt3__16vectorI14AccessModifierNS_9allocatorIS1_EEE26__swap_out_circular_bufferERNS_14__split_bufferIS1_RS3_EE, symObjAddr: 0x1C414, symBinAddr: 0x10001CB4C, symSize: 0x110 }
  - { offsetInCU: 0x305CF, offset: 0x305CF, size: 0x8, addend: 0x0, symName: __ZNSt3__16vectorINS_12basic_stringIcNS_11char_traitsIcEENS_9allocatorIcEEEENS4_IS6_EEE26__swap_out_circular_bufferERNS_14__split_bufferIS6_RS7_EE, symObjAddr: 0x1E714, symBinAddr: 0x10001EE4C, symSize: 0x110 }
  - { offsetInCU: 0x30E2E, offset: 0x30E2E, size: 0x8, addend: 0x0, symName: __ZNSt3__16vectorINS_7__stateIcEENS_9allocatorIS2_EEE26__swap_out_circular_bufferERNS_14__split_bufferIS2_RS4_EE, symObjAddr: 0x28C3C, symBinAddr: 0x100029374, symSize: 0x110 }
  - { offsetInCU: 0x30ED3, offset: 0x30ED3, size: 0x8, addend: 0x0, symName: __ZNSt3__16vectorINS_9sub_matchIPKcEENS_9allocatorIS4_EEE26__swap_out_circular_bufferERNS_14__split_bufferIS4_RS6_EE, symObjAddr: 0x2AA44, symBinAddr: 0x10002B17C, symSize: 0x110 }
  - { offsetInCU: 0x30F72, offset: 0x30F72, size: 0x8, addend: 0x0, symName: __ZNSt3__16vectorINS_4pairImPKcEENS_9allocatorIS4_EEE26__swap_out_circular_bufferERNS_14__split_bufferIS4_RS6_EE, symObjAddr: 0x2BCD8, symBinAddr: 0x10002C410, symSize: 0x110 }
  - { offsetInCU: 0x310BF, offset: 0x310BF, size: 0x8, addend: 0x0, symName: __ZNSt3__16vectorIcNS_9allocatorIcEEE26__swap_out_circular_bufferERNS_14__split_bufferIcRS2_EE, symObjAddr: 0x35814, symBinAddr: 0x100035F4C, symSize: 0x110 }
  - { offsetInCU: 0x31119, offset: 0x31119, size: 0x8, addend: 0x0, symName: __ZNSt3__16vectorINS_4pairINS_12basic_stringIcNS_11char_traitsIcEENS_9allocatorIcEEEES7_EENS5_IS8_EEE26__swap_out_circular_bufferERNS_14__split_bufferIS8_RS9_EE, symObjAddr: 0x3A460, symBinAddr: 0x10003AB98, symSize: 0x110 }
  - { offsetInCU: 0x311B8, offset: 0x311B8, size: 0x8, addend: 0x0, symName: __ZNSt3__16vectorINS_4pairIccEENS_9allocatorIS2_EEE26__swap_out_circular_bufferERNS_14__split_bufferIS2_RS4_EE, symObjAddr: 0x3BB04, symBinAddr: 0x10003C23C, symSize: 0x110 }
  - { offsetInCU: 0x315AD, offset: 0x315AD, size: 0x8, addend: 0x0, symName: __ZNSt3__16vectorINS_9sub_matchINS_11__wrap_iterIPKcEEEENS_9allocatorIS6_EEE26__swap_out_circular_bufferERNS_14__split_bufferIS6_RS8_EE, symObjAddr: 0x4CC3C, symBinAddr: 0x10004D374, symSize: 0x110 }
  - { offsetInCU: 0x33B9E, offset: 0x33B9E, size: 0x8, addend: 0x0, symName: __Z17ExpectedCharactercii, symObjAddr: 0x0, symBinAddr: 0x100000738, symSize: 0x208 }
  - { offsetInCU: 0x33BE7, offset: 0x33BE7, size: 0x8, addend: 0x0, symName: __ZNSt3__112basic_stringIcNS_11char_traitsIcEENS_9allocatorIcEEEC1B8ue170006Emc, symObjAddr: 0x458, symBinAddr: 0x100000B90, symSize: 0x3C }
  - { offsetInCU: 0x33C2E, offset: 0x33C2E, size: 0x8, addend: 0x0, symName: __Z14UnsuitableTypeNSt3__112basic_stringIcNS_11char_traitsIcEENS_9allocatorIcEEEES5_i, symObjAddr: 0x4A0, symBinAddr: 0x100000BD8, symSize: 0x1E4 }
  - { offsetInCU: 0x33C78, offset: 0x33C78, size: 0x8, addend: 0x0, symName: __Z26UnsuitableTypeWithOperatorNSt3__112basic_stringIcNS_11char_traitsIcEENS_9allocatorIcEEEES5_i, symObjAddr: 0x684, symBinAddr: 0x100000DBC, symSize: 0x190 }
  - { offsetInCU: 0x33CC2, offset: 0x33CC2, size: 0x8, addend: 0x0, symName: __Z15UnexpectedTokenNSt3__112basic_stringIcNS_11char_traitsIcEENS_9allocatorIcEEEEi, symObjAddr: 0x814, symBinAddr: 0x100000F4C, symSize: 0x114 }
  - { offsetInCU: 0x33CFD, offset: 0x33CFD, size: 0x8, addend: 0x0, symName: __Z17TypeHasNoChildrenNSt3__112basic_stringIcNS_11char_traitsIcEENS_9allocatorIcEEEEi, symObjAddr: 0x928, symBinAddr: 0x100001060, symSize: 0x114 }
  - { offsetInCU: 0x33D38, offset: 0x33D38, size: 0x8, addend: 0x0, symName: __Z25TypeHasNoChildrenMoreThanNSt3__112basic_stringIcNS_11char_traitsIcEENS_9allocatorIcEEEEii, symObjAddr: 0xA3C, symBinAddr: 0x100001174, symSize: 0x1D8 }
  - { offsetInCU: 0x33EAC, offset: 0x33EAC, size: 0x8, addend: 0x0, symName: __ZN5Lexer9ReadTokenEv, symObjAddr: 0xC14, symBinAddr: 0x10000134C, symSize: 0x6C }
  - { offsetInCU: 0x33EE1, offset: 0x33EE1, size: 0x8, addend: 0x0, symName: __ZNKSt3__15dequeIP5TokenNS_9allocatorIS2_EEE4sizeB8ue170006Ev, symObjAddr: 0xC80, symBinAddr: 0x1000013B8, symSize: 0x28 }
  - { offsetInCU: 0x33F07, offset: 0x33F07, size: 0x8, addend: 0x0, symName: __ZN5Lexer15ReadLineToQueueEv, symObjAddr: 0xCA8, symBinAddr: 0x1000013E0, symSize: 0x188 }
  - { offsetInCU: 0x33F3C, offset: 0x33F3C, size: 0x8, addend: 0x0, symName: __ZNSt3__15dequeIP5TokenNS_9allocatorIS2_EEE5frontEv, symObjAddr: 0xE30, symBinAddr: 0x100001568, symSize: 0x50 }
  - { offsetInCU: 0x33F64, offset: 0x33F64, size: 0x8, addend: 0x0, symName: __ZNSt3__15dequeIP5TokenNS_9allocatorIS2_EEE9pop_frontEv, symObjAddr: 0xE80, symBinAddr: 0x1000015B8, symSize: 0xD4 }
  - { offsetInCU: 0x33FB9, offset: 0x33FB9, size: 0x8, addend: 0x0, symName: __ZN5Lexer9PeakTokenEi, symObjAddr: 0xF54, symBinAddr: 0x10000168C, symSize: 0x68 }
  - { offsetInCU: 0x33FFC, offset: 0x33FFC, size: 0x8, addend: 0x0, symName: __ZNSt3__15dequeIP5TokenNS_9allocatorIS2_EEEixEm, symObjAddr: 0xFBC, symBinAddr: 0x1000016F4, symSize: 0x5C }
  - { offsetInCU: 0x34042, offset: 0x34042, size: 0x8, addend: 0x0, symName: __ZN5Lexer12GetNextTokenEv, symObjAddr: 0x1018, symBinAddr: 0x100001750, symSize: 0xBD8 }
  - { offsetInCU: 0x340F9, offset: 0x340F9, size: 0x8, addend: 0x0, symName: __ZNSt3__15dequeIP5TokenNS_9allocatorIS2_EEE9push_backERKS2_, symObjAddr: 0x1BF0, symBinAddr: 0x100002328, symSize: 0xAC }
  - { offsetInCU: 0x34145, offset: 0x34145, size: 0x8, addend: 0x0, symName: __ZNSt3__112basic_stringIcNS_11char_traitsIcEENS_9allocatorIcEEEC1B8ue170006ILi0EEEPKc, symObjAddr: 0x1C9C, symBinAddr: 0x1000023D4, symSize: 0x34 }
  - { offsetInCU: 0x34233, offset: 0x34233, size: 0x8, addend: 0x0, symName: __ZN8EOLTokenC1EiNSt3__112basic_stringIcNS0_11char_traitsIcEENS0_9allocatorIcEEEE, symObjAddr: 0x1CD0, symBinAddr: 0x100002408, symSize: 0x3C }
  - { offsetInCU: 0x3427A, offset: 0x3427A, size: 0x8, addend: 0x0, symName: __ZNKSt3__112basic_stringIcNS_11char_traitsIcEENS_9allocatorIcEEE6lengthB8ue170006Ev, symObjAddr: 0x1D0C, symBinAddr: 0x100002444, symSize: 0x24 }
  - { offsetInCU: 0x3434F, offset: 0x3434F, size: 0x8, addend: 0x0, symName: __ZN8EOFTokenC1EiNSt3__112basic_stringIcNS0_11char_traitsIcEENS0_9allocatorIcEEEE, symObjAddr: 0x1D30, symBinAddr: 0x100002468, symSize: 0x3C }
  - { offsetInCU: 0x34396, offset: 0x34396, size: 0x8, addend: 0x0, symName: __ZNSt3__112basic_stringIcNS_11char_traitsIcEENS_9allocatorIcEEEixB8ue170006Em, symObjAddr: 0x1D6C, symBinAddr: 0x1000024A4, symSize: 0x30 }
  - { offsetInCU: 0x343CB, offset: 0x343CB, size: 0x8, addend: 0x0, symName: __ZNKSt3__112basic_stringIcNS_11char_traitsIcEENS_9allocatorIcEEE6substrB8ue170006Emm, symObjAddr: 0x1DF0, symBinAddr: 0x100002528, symSize: 0x68 }
  - { offsetInCU: 0x344CA, offset: 0x344CA, size: 0x8, addend: 0x0, symName: __ZN15IdentifierTokenC1EiNSt3__112basic_stringIcNS0_11char_traitsIcEENS0_9allocatorIcEEEE, symObjAddr: 0x1E58, symBinAddr: 0x100002590, symSize: 0x3C }
  - { offsetInCU: 0x345CC, offset: 0x345CC, size: 0x8, addend: 0x0, symName: __ZN13OperatorTokenC1EiNSt3__112basic_stringIcNS0_11char_traitsIcEENS0_9allocatorIcEEEE, symObjAddr: 0x1E94, symBinAddr: 0x1000025CC, symSize: 0x3C }
  - { offsetInCU: 0x346CE, offset: 0x346CE, size: 0x8, addend: 0x0, symName: __ZN11NumberTokenC1EiNSt3__112basic_stringIcNS0_11char_traitsIcEENS0_9allocatorIcEEEE, symObjAddr: 0x1ED0, symBinAddr: 0x100002608, symSize: 0x3C }
  - { offsetInCU: 0x347D0, offset: 0x347D0, size: 0x8, addend: 0x0, symName: __ZN11StringTokenC1EiNSt3__112basic_stringIcNS0_11char_traitsIcEENS0_9allocatorIcEEEE, symObjAddr: 0x1F0C, symBinAddr: 0x100002644, symSize: 0x3C }
  - { offsetInCU: 0x34A68, offset: 0x34A68, size: 0x8, addend: 0x0, symName: __ZN9NumberAST10OutputCodeEv, symObjAddr: 0x1F48, symBinAddr: 0x100002680, symSize: 0x38 }
  - { offsetInCU: 0x34A8F, offset: 0x34A8F, size: 0x8, addend: 0x0, symName: __ZN5Value7GetLongEv, symObjAddr: 0x1F80, symBinAddr: 0x1000026B8, symSize: 0x188 }
  - { offsetInCU: 0x34B57, offset: 0x34B57, size: 0x8, addend: 0x0, symName: __ZN14FloatNumberAST10OutputCodeEv, symObjAddr: 0x2108, symBinAddr: 0x100002840, symSize: 0x38 }
  - { offsetInCU: 0x34B7E, offset: 0x34B7E, size: 0x8, addend: 0x0, symName: __ZN5Value9GetDoubleEv, symObjAddr: 0x2140, symBinAddr: 0x100002878, symSize: 0x188 }
  - { offsetInCU: 0x34C57, offset: 0x34C57, size: 0x8, addend: 0x0, symName: __ZN7PlusAST10OutputCodeEv, symObjAddr: 0x22C8, symBinAddr: 0x100002A00, symSize: 0x19C }
  - { offsetInCU: 0x34D31, offset: 0x34D31, size: 0x8, addend: 0x0, symName: __ZN17MultiplicationAST10OutputCodeEv, symObjAddr: 0x2464, symBinAddr: 0x100002B9C, symSize: 0x19C }
  - { offsetInCU: 0x34D58, offset: 0x34D58, size: 0x8, addend: 0x0, symName: __ZN13IdentifierAST10OutputCodeEv, symObjAddr: 0x2600, symBinAddr: 0x100002D38, symSize: 0x3C }
  - { offsetInCU: 0x34E43, offset: 0x34E43, size: 0x8, addend: 0x0, symName: __ZN11ConstantAST10OutputCodeEv, symObjAddr: 0x263C, symBinAddr: 0x100002D74, symSize: 0x1E0 }
  - { offsetInCU: 0x34F0C, offset: 0x34F0C, size: 0x8, addend: 0x0, symName: __ZN9StringAST10OutputCodeEv, symObjAddr: 0x281C, symBinAddr: 0x100002F54, symSize: 0xC4 }
  - { offsetInCU: 0x34F33, offset: 0x34F33, size: 0x8, addend: 0x0, symName: __ZN5Value6GetStrEv, symObjAddr: 0x28E0, symBinAddr: 0x100003018, symSize: 0x198 }
  - { offsetInCU: 0x34FFB, offset: 0x34FFB, size: 0x8, addend: 0x0, symName: __ZN7CharAST10OutputCodeEv, symObjAddr: 0x2A78, symBinAddr: 0x1000031B0, symSize: 0xCC }
  - { offsetInCU: 0x35022, offset: 0x35022, size: 0x8, addend: 0x0, symName: __ZN5Value7GetCharEv, symObjAddr: 0x2B44, symBinAddr: 0x10000327C, symSize: 0x188 }
  - { offsetInCU: 0x3510C, offset: 0x3510C, size: 0x8, addend: 0x0, symName: __ZN14DeclarationAST10OutputCodeEv, symObjAddr: 0x2CCC, symBinAddr: 0x100003404, symSize: 0x198 }
  - { offsetInCU: 0x351E6, offset: 0x351E6, size: 0x8, addend: 0x0, symName: __ZN11DivisionAST10OutputCodeEv, symObjAddr: 0x2E64, symBinAddr: 0x10000359C, symSize: 0x19C }
  - { offsetInCU: 0x352C0, offset: 0x352C0, size: 0x8, addend: 0x0, symName: __ZN8MinusAST10OutputCodeEv, symObjAddr: 0x3000, symBinAddr: 0x100003738, symSize: 0x19C }
  - { offsetInCU: 0x3539A, offset: 0x3539A, size: 0x8, addend: 0x0, symName: __ZN8PowerAST10OutputCodeEv, symObjAddr: 0x319C, symBinAddr: 0x1000038D4, symSize: 0x19C }
  - { offsetInCU: 0x35474, offset: 0x35474, size: 0x8, addend: 0x0, symName: __ZN6ModAST10OutputCodeEv, symObjAddr: 0x3338, symBinAddr: 0x100003A70, symSize: 0x19C }
  - { offsetInCU: 0x3553D, offset: 0x3553D, size: 0x8, addend: 0x0, symName: __ZN7CodeAST10OutputCodeEv, symObjAddr: 0x34D4, symBinAddr: 0x100003C0C, symSize: 0x164 }
  - { offsetInCU: 0x35587, offset: 0x35587, size: 0x8, addend: 0x0, symName: __ZNKSt3__16vectorIP18AbstractSyntaxTreeNS_9allocatorIS2_EEE4sizeB8ue170006Ev, symObjAddr: 0x3638, symBinAddr: 0x100003D70, symSize: 0x28 }
  - { offsetInCU: 0x355AD, offset: 0x355AD, size: 0x8, addend: 0x0, symName: __ZNSt3__16vectorIP18AbstractSyntaxTreeNS_9allocatorIS2_EEEixB8ue170006Em, symObjAddr: 0x3660, symBinAddr: 0x100003D98, symSize: 0x24 }
  - { offsetInCU: 0x355E4, offset: 0x355E4, size: 0x8, addend: 0x0, symName: __ZNSt3__112basic_stringIcNS_11char_traitsIcEENS_9allocatorIcEEEpLB8ue170006ERKS5_, symObjAddr: 0x3684, symBinAddr: 0x100003DBC, symSize: 0x2C }
  - { offsetInCU: 0x35619, offset: 0x35619, size: 0x8, addend: 0x0, symName: __ZNSt3__112basic_stringIcNS_11char_traitsIcEENS_9allocatorIcEEEpLB8ue170006EPKc, symObjAddr: 0x36B0, symBinAddr: 0x100003DE8, symSize: 0x2C }
  - { offsetInCU: 0x35701, offset: 0x35701, size: 0x8, addend: 0x0, symName: __ZN13AssignmentAST10OutputCodeEv, symObjAddr: 0x36DC, symBinAddr: 0x100003E14, symSize: 0x19C }
  - { offsetInCU: 0x35728, offset: 0x35728, size: 0x8, addend: 0x0, symName: __ZN10ArgmentAST10OutputCodeEv, symObjAddr: 0x3878, symBinAddr: 0x100003FB0, symSize: 0xCC }
  - { offsetInCU: 0x35824, offset: 0x35824, size: 0x8, addend: 0x0, symName: __ZN14DefFunctionAST10OutputCodeEv, symObjAddr: 0x3944, symBinAddr: 0x10000407C, symSize: 0x3B4 }
  - { offsetInCU: 0x3586F, offset: 0x3586F, size: 0x8, addend: 0x0, symName: __ZNKSt3__16vectorIP10ArgmentASTNS_9allocatorIS2_EEE4sizeB8ue170006Ev, symObjAddr: 0x3CF8, symBinAddr: 0x100004430, symSize: 0x28 }
  - { offsetInCU: 0x35895, offset: 0x35895, size: 0x8, addend: 0x0, symName: __ZNSt3__16vectorIP10ArgmentASTNS_9allocatorIS2_EEEixB8ue170006Em, symObjAddr: 0x3D20, symBinAddr: 0x100004458, symSize: 0x24 }
  - { offsetInCU: 0x358CC, offset: 0x358CC, size: 0x8, addend: 0x0, symName: __ZNKSt3__112basic_stringIcNS_11char_traitsIcEENS_9allocatorIcEEE4sizeB8ue170006Ev, symObjAddr: 0x3D44, symBinAddr: 0x10000447C, symSize: 0x54 }
  - { offsetInCU: 0x359B6, offset: 0x359B6, size: 0x8, addend: 0x0, symName: __ZN21DefVirtualFunctionAST10OutputCodeEv, symObjAddr: 0x3D98, symBinAddr: 0x1000044D0, symSize: 0x334 }
  - { offsetInCU: 0x35AB4, offset: 0x35AB4, size: 0x8, addend: 0x0, symName: __ZN15CallFunctionAST10OutputCodeEv, symObjAddr: 0x40CC, symBinAddr: 0x100004804, symSize: 0x240 }
  - { offsetInCU: 0x35BC2, offset: 0x35BC2, size: 0x8, addend: 0x0, symName: __ZN12InterfaceAST10OutputCodeEv, symObjAddr: 0x430C, symBinAddr: 0x100004A44, symSize: 0x4A0 }
  - { offsetInCU: 0x35C49, offset: 0x35C49, size: 0x8, addend: 0x0, symName: __ZNSt3__16vectorI14AccessModifierNS_9allocatorIS1_EEEixB8ue170006Em, symObjAddr: 0x47AC, symBinAddr: 0x100004EE4, symSize: 0x24 }
  - { offsetInCU: 0x35D55, offset: 0x35D55, size: 0x8, addend: 0x0, symName: __ZN8ClassAST10OutputCodeEv, symObjAddr: 0x47D0, symBinAddr: 0x100004F08, symSize: 0x534 }
  - { offsetInCU: 0x35DFA, offset: 0x35DFA, size: 0x8, addend: 0x0, symName: __ZNKSt3__16vectorINS_12basic_stringIcNS_11char_traitsIcEENS_9allocatorIcEEEENS4_IS6_EEE4sizeB8ue170006Ev, symObjAddr: 0x4D04, symBinAddr: 0x10000543C, symSize: 0x28 }
  - { offsetInCU: 0x35E20, offset: 0x35E20, size: 0x8, addend: 0x0, symName: __ZNSt3__16vectorINS_12basic_stringIcNS_11char_traitsIcEENS_9allocatorIcEEEENS4_IS6_EEEixB8ue170006Em, symObjAddr: 0x4D2C, symBinAddr: 0x100005464, symSize: 0x2C }
  - { offsetInCU: 0x35F0A, offset: 0x35F0A, size: 0x8, addend: 0x0, symName: __ZN13MakeObjectAST10OutputCodeEv, symObjAddr: 0x4D58, symBinAddr: 0x100005490, symSize: 0x284 }
  - { offsetInCU: 0x36019, offset: 0x36019, size: 0x8, addend: 0x0, symName: __ZN14ConstructorAST10OutputCodeEv, symObjAddr: 0x4FDC, symBinAddr: 0x100005714, symSize: 0x310 }
  - { offsetInCU: 0x36117, offset: 0x36117, size: 0x8, addend: 0x0, symName: __ZN13DestructorAST10OutputCodeEv, symObjAddr: 0x52EC, symBinAddr: 0x100005A24, symSize: 0x204 }
  - { offsetInCU: 0x361EF, offset: 0x361EF, size: 0x8, addend: 0x0, symName: __ZN20VirtualDestructorAST10OutputCodeEv, symObjAddr: 0x54F0, symBinAddr: 0x100005C28, symSize: 0x104 }
  - { offsetInCU: 0x362C7, offset: 0x362C7, size: 0x8, addend: 0x0, symName: __ZN11NegativeAST10OutputCodeEv, symObjAddr: 0x55F4, symBinAddr: 0x100005D2C, symSize: 0xCC }
  - { offsetInCU: 0x363A7, offset: 0x363A7, size: 0x8, addend: 0x0, symName: __ZN5IfAST10OutputCodeEv, symObjAddr: 0x56C0, symBinAddr: 0x100005DF8, symSize: 0x19C }
  - { offsetInCU: 0x364A3, offset: 0x364A3, size: 0x8, addend: 0x0, symName: __ZN6ForAST10OutputCodeEv, symObjAddr: 0x585C, symBinAddr: 0x100005F94, symSize: 0x33C }
  - { offsetInCU: 0x3657D, offset: 0x3657D, size: 0x8, addend: 0x0, symName: __ZN8WhileAST10OutputCodeEv, symObjAddr: 0x5B98, symBinAddr: 0x1000062D0, symSize: 0x19C }
  - { offsetInCU: 0x36657, offset: 0x36657, size: 0x8, addend: 0x0, symName: __ZN7ElifAST10OutputCodeEv, symObjAddr: 0x5D34, symBinAddr: 0x10000646C, symSize: 0x19C }
  - { offsetInCU: 0x36720, offset: 0x36720, size: 0x8, addend: 0x0, symName: __ZN7ElseAST10OutputCodeEv, symObjAddr: 0x5ED0, symBinAddr: 0x100006608, symSize: 0xCC }
  - { offsetInCU: 0x367FA, offset: 0x367FA, size: 0x8, addend: 0x0, symName: __ZN8EqualAST10OutputCodeEv, symObjAddr: 0x5F9C, symBinAddr: 0x1000066D4, symSize: 0x19C }
  - { offsetInCU: 0x368D4, offset: 0x368D4, size: 0x8, addend: 0x0, symName: __ZN11MoreThanAST10OutputCodeEv, symObjAddr: 0x6138, symBinAddr: 0x100006870, symSize: 0x19C }
  - { offsetInCU: 0x369AE, offset: 0x369AE, size: 0x8, addend: 0x0, symName: __ZN11LessThanAST10OutputCodeEv, symObjAddr: 0x62D4, symBinAddr: 0x100006A0C, symSize: 0x19C }
  - { offsetInCU: 0x36A88, offset: 0x36A88, size: 0x8, addend: 0x0, symName: __ZN18MoreThanOrEqualAST10OutputCodeEv, symObjAddr: 0x6470, symBinAddr: 0x100006BA8, symSize: 0x19C }
  - { offsetInCU: 0x36B62, offset: 0x36B62, size: 0x8, addend: 0x0, symName: __ZN18LessThanOrEqualAST10OutputCodeEv, symObjAddr: 0x660C, symBinAddr: 0x100006D44, symSize: 0x19C }
  - { offsetInCU: 0x36C3C, offset: 0x36C3C, size: 0x8, addend: 0x0, symName: __ZN6AndAST10OutputCodeEv, symObjAddr: 0x67A8, symBinAddr: 0x100006EE0, symSize: 0x19C }
  - { offsetInCU: 0x36D16, offset: 0x36D16, size: 0x8, addend: 0x0, symName: __ZN5OrAST10OutputCodeEv, symObjAddr: 0x6944, symBinAddr: 0x10000707C, symSize: 0x19C }
  - { offsetInCU: 0x36F1D, offset: 0x36F1D, size: 0x8, addend: 0x0, symName: __ZN6Parser7GetTreeEv, symObjAddr: 0x6AE0, symBinAddr: 0x100007218, symSize: 0x24 }
  - { offsetInCU: 0x36F44, offset: 0x36F44, size: 0x8, addend: 0x0, symName: __ZN6Parser4CodeEv, symObjAddr: 0x6B04, symBinAddr: 0x10000723C, symSize: 0x1A8 }
  - { offsetInCU: 0x36F7B, offset: 0x36F7B, size: 0x8, addend: 0x0, symName: __ZN6Parser6FactorEv, symObjAddr: 0x6CAC, symBinAddr: 0x1000073E4, symSize: 0xF90 }
  - { offsetInCU: 0x3701D, offset: 0x3701D, size: 0x8, addend: 0x0, symName: __ZN6Parser7IsTokenENSt3__112basic_stringIcNS0_11char_traitsIcEENS0_9allocatorIcEEEE, symObjAddr: 0x7C3C, symBinAddr: 0x100008374, symSize: 0xD8 }
  - { offsetInCU: 0x37052, offset: 0x37052, size: 0x8, addend: 0x0, symName: __ZN6Parser15IsExpectedTokenENSt3__112basic_stringIcNS0_11char_traitsIcEENS0_9allocatorIcEEEE, symObjAddr: 0x7D14, symBinAddr: 0x10000844C, symSize: 0x1F4 }
  - { offsetInCU: 0x37095, offset: 0x37095, size: 0x8, addend: 0x0, symName: __ZN6Parser20DeclarationStatementEv, symObjAddr: 0x7F08, symBinAddr: 0x100008640, symSize: 0x248C }
  - { offsetInCU: 0x372B7, offset: 0x372B7, size: 0x8, addend: 0x0, symName: __ZNKSt3__112basic_stringIcNS_11char_traitsIcEENS_9allocatorIcEEE4findB8ue170006EPKcm, symObjAddr: 0xA394, symBinAddr: 0x10000AACC, symSize: 0x74 }
  - { offsetInCU: 0x372FD, offset: 0x372FD, size: 0x8, addend: 0x0, symName: __ZN6Parser12GetNowLinenoEv, symObjAddr: 0xA408, symBinAddr: 0x10000AB40, symSize: 0x38 }
  - { offsetInCU: 0x37323, offset: 0x37323, size: 0x8, addend: 0x0, symName: __ZN14FloatNumberASTC1Edi, symObjAddr: 0xA440, symBinAddr: 0x10000AB78, symSize: 0x3C }
  - { offsetInCU: 0x37369, offset: 0x37369, size: 0x8, addend: 0x0, symName: __ZN9NumberASTC1Eli, symObjAddr: 0xA47C, symBinAddr: 0x10000ABB4, symSize: 0x3C }
  - { offsetInCU: 0x373AF, offset: 0x373AF, size: 0x8, addend: 0x0, symName: __ZN6Parser10GetVarNameEv, symObjAddr: 0xA578, symBinAddr: 0x10000ACB0, symSize: 0x240 }
  - { offsetInCU: 0x373E3, offset: 0x373E3, size: 0x8, addend: 0x0, symName: __ZN13IdentifierASTC1ENSt3__112basic_stringIcNS0_11char_traitsIcEENS0_9allocatorIcEEEEi, symObjAddr: 0xA7B8, symBinAddr: 0x10000AEF0, symSize: 0x3C }
  - { offsetInCU: 0x3742A, offset: 0x3742A, size: 0x8, addend: 0x0, symName: __ZNSt3__16vectorIP18AbstractSyntaxTreeNS_9allocatorIS2_EEEC1B8ue170006Ev, symObjAddr: 0xA7F4, symBinAddr: 0x10000AF2C, symSize: 0x2C }
  - { offsetInCU: 0x37454, offset: 0x37454, size: 0x8, addend: 0x0, symName: __ZNSt3__16vectorIP18AbstractSyntaxTreeNS_9allocatorIS2_EEE9push_backB8ue170006EOS2_, symObjAddr: 0xA820, symBinAddr: 0x10000AF58, symSize: 0x6C }
  - { offsetInCU: 0x3748B, offset: 0x3748B, size: 0x8, addend: 0x0, symName: __ZN6Parser20AssignmentExpressionEv, symObjAddr: 0xA88C, symBinAddr: 0x10000AFC4, symSize: 0x164 }
  - { offsetInCU: 0x374D8, offset: 0x374D8, size: 0x8, addend: 0x0, symName: __ZNSt3__16vectorIP18AbstractSyntaxTreeNS_9allocatorIS2_EEEC1ERKS5_, symObjAddr: 0xA9F0, symBinAddr: 0x10000B128, symSize: 0x34 }
  - { offsetInCU: 0x37513, offset: 0x37513, size: 0x8, addend: 0x0, symName: __ZN15CallFunctionASTC1EP13IdentifierASTNSt3__16vectorIP18AbstractSyntaxTreeNS2_9allocatorIS5_EEEEi, symObjAddr: 0xAA24, symBinAddr: 0x10000B15C, symSize: 0x44 }
  - { offsetInCU: 0x37568, offset: 0x37568, size: 0x8, addend: 0x0, symName: __ZNSt3__16vectorIP18AbstractSyntaxTreeNS_9allocatorIS2_EEED1B8ue170006Ev, symObjAddr: 0xAA68, symBinAddr: 0x10000B1A0, symSize: 0x2C }
  - { offsetInCU: 0x37592, offset: 0x37592, size: 0x8, addend: 0x0, symName: __ZN13MakeObjectASTC1EP13IdentifierASTNSt3__16vectorIP18AbstractSyntaxTreeNS2_9allocatorIS5_EEEEi, symObjAddr: 0xAA94, symBinAddr: 0x10000B1CC, symSize: 0x44 }
  - { offsetInCU: 0x375E7, offset: 0x375E7, size: 0x8, addend: 0x0, symName: __ZN9StringASTC1ENSt3__112basic_stringIcNS0_11char_traitsIcEENS0_9allocatorIcEEEEi, symObjAddr: 0xAAD8, symBinAddr: 0x10000B210, symSize: 0x3C }
  - { offsetInCU: 0x3762E, offset: 0x3762E, size: 0x8, addend: 0x0, symName: __ZN6Parser8UnuOpExpEv, symObjAddr: 0xAB14, symBinAddr: 0x10000B24C, symSize: 0x210 }
  - { offsetInCU: 0x3767F, offset: 0x3767F, size: 0x8, addend: 0x0, symName: __ZN11NegativeASTC1EP18AbstractSyntaxTreei, symObjAddr: 0xAD24, symBinAddr: 0x10000B45C, symSize: 0x3C }
  - { offsetInCU: 0x376C5, offset: 0x376C5, size: 0x8, addend: 0x0, symName: __ZN6Parser15PowerExpressionEv, symObjAddr: 0xAD60, symBinAddr: 0x10000B498, symSize: 0x164 }
  - { offsetInCU: 0x3770F, offset: 0x3770F, size: 0x8, addend: 0x0, symName: __ZN8PowerASTC1EP18AbstractSyntaxTreeS1_i, symObjAddr: 0xAEC4, symBinAddr: 0x10000B5FC, symSize: 0x44 }
  - { offsetInCU: 0x37763, offset: 0x37763, size: 0x8, addend: 0x0, symName: __ZN6Parser24MultiplicationExpressionEv, symObjAddr: 0xAF08, symBinAddr: 0x10000B640, symSize: 0x6F4 }
  - { offsetInCU: 0x37874, offset: 0x37874, size: 0x8, addend: 0x0, symName: __ZN17MultiplicationASTC1EP18AbstractSyntaxTreeS1_i, symObjAddr: 0xB5FC, symBinAddr: 0x10000BD34, symSize: 0x44 }
  - { offsetInCU: 0x378C8, offset: 0x378C8, size: 0x8, addend: 0x0, symName: __ZN11DivisionASTC1EP18AbstractSyntaxTreeS1_i, symObjAddr: 0xB640, symBinAddr: 0x10000BD78, symSize: 0x44 }
  - { offsetInCU: 0x3791C, offset: 0x3791C, size: 0x8, addend: 0x0, symName: __ZN6ModASTC1EP18AbstractSyntaxTreeS1_i, symObjAddr: 0xB684, symBinAddr: 0x10000BDBC, symSize: 0x44 }
  - { offsetInCU: 0x37970, offset: 0x37970, size: 0x8, addend: 0x0, symName: __ZN6Parser14PlusExpressionEv, symObjAddr: 0xB6C8, symBinAddr: 0x10000BE00, symSize: 0x4BC }
  - { offsetInCU: 0x37A3F, offset: 0x37A3F, size: 0x8, addend: 0x0, symName: __ZN7PlusASTC1EP18AbstractSyntaxTreeS1_i, symObjAddr: 0xBB84, symBinAddr: 0x10000C2BC, symSize: 0x44 }
  - { offsetInCU: 0x37A93, offset: 0x37A93, size: 0x8, addend: 0x0, symName: __ZN8MinusASTC1EP18AbstractSyntaxTreeS1_i, symObjAddr: 0xBBC8, symBinAddr: 0x10000C300, symSize: 0x44 }
  - { offsetInCU: 0x37AE7, offset: 0x37AE7, size: 0x8, addend: 0x0, symName: __ZN6Parser17CompareExpressionEv, symObjAddr: 0xBC0C, symBinAddr: 0x10000C344, symSize: 0xB64 }
  - { offsetInCU: 0x37C9A, offset: 0x37C9A, size: 0x8, addend: 0x0, symName: __ZN8EqualASTC1EP18AbstractSyntaxTreeS1_i, symObjAddr: 0xC770, symBinAddr: 0x10000CEA8, symSize: 0x44 }
  - { offsetInCU: 0x37CEE, offset: 0x37CEE, size: 0x8, addend: 0x0, symName: __ZN11MoreThanASTC1EP18AbstractSyntaxTreeS1_i, symObjAddr: 0xC7B4, symBinAddr: 0x10000CEEC, symSize: 0x44 }
  - { offsetInCU: 0x37D42, offset: 0x37D42, size: 0x8, addend: 0x0, symName: __ZN11LessThanASTC1EP18AbstractSyntaxTreeS1_i, symObjAddr: 0xC7F8, symBinAddr: 0x10000CF30, symSize: 0x44 }
  - { offsetInCU: 0x37D96, offset: 0x37D96, size: 0x8, addend: 0x0, symName: __ZN18MoreThanOrEqualASTC1EP18AbstractSyntaxTreeS1_i, symObjAddr: 0xC83C, symBinAddr: 0x10000CF74, symSize: 0x44 }
  - { offsetInCU: 0x37DEA, offset: 0x37DEA, size: 0x8, addend: 0x0, symName: __ZN18LessThanOrEqualASTC1EP18AbstractSyntaxTreeS1_i, symObjAddr: 0xC880, symBinAddr: 0x10000CFB8, symSize: 0x44 }
  - { offsetInCU: 0x37E3E, offset: 0x37E3E, size: 0x8, addend: 0x0, symName: __ZN6Parser20LogicalAndExpressionEv, symObjAddr: 0xC8C4, symBinAddr: 0x10000CFFC, symSize: 0x284 }
  - { offsetInCU: 0x37EC1, offset: 0x37EC1, size: 0x8, addend: 0x0, symName: __ZN6AndASTC1EP18AbstractSyntaxTreeS1_i, symObjAddr: 0xCB48, symBinAddr: 0x10000D280, symSize: 0x44 }
  - { offsetInCU: 0x37F15, offset: 0x37F15, size: 0x8, addend: 0x0, symName: __ZN6Parser19LogicalOrExpressionEv, symObjAddr: 0xCB8C, symBinAddr: 0x10000D2C4, symSize: 0x284 }
  - { offsetInCU: 0x37F98, offset: 0x37F98, size: 0x8, addend: 0x0, symName: __ZN5OrASTC1EP18AbstractSyntaxTreeS1_i, symObjAddr: 0xCE10, symBinAddr: 0x10000D548, symSize: 0x44 }
  - { offsetInCU: 0x37FEC, offset: 0x37FEC, size: 0x8, addend: 0x0, symName: __ZN13AssignmentASTC1EP18AbstractSyntaxTreeS1_i, symObjAddr: 0xCE54, symBinAddr: 0x10000D58C, symSize: 0x44 }
  - { offsetInCU: 0x38040, offset: 0x38040, size: 0x8, addend: 0x0, symName: __ZNSt3__112basic_stringIcNS_11char_traitsIcEENS_9allocatorIcEEEC1B8ue170006Ev, symObjAddr: 0xCE98, symBinAddr: 0x10000D5D0, symSize: 0x2C }
  - { offsetInCU: 0x3806A, offset: 0x3806A, size: 0x8, addend: 0x0, symName: __ZN6Parser11GetTypeNameEv, symObjAddr: 0xCEC4, symBinAddr: 0x10000D5FC, symSize: 0x128 }
  - { offsetInCU: 0x3809E, offset: 0x3809E, size: 0x8, addend: 0x0, symName: __ZN14DeclarationASTC1ENSt3__112basic_stringIcNS0_11char_traitsIcEENS0_9allocatorIcEEEEP13IdentifierASTP18AbstractSyntaxTreei, symObjAddr: 0xCFEC, symBinAddr: 0x10000D724, symSize: 0x4C }
  - { offsetInCU: 0x38101, offset: 0x38101, size: 0x8, addend: 0x0, symName: __ZN11ConstantASTC1ENSt3__112basic_stringIcNS0_11char_traitsIcEENS0_9allocatorIcEEEEP13IdentifierASTP18AbstractSyntaxTreei, symObjAddr: 0xD038, symBinAddr: 0x10000D770, symSize: 0x4C }
  - { offsetInCU: 0x38164, offset: 0x38164, size: 0x8, addend: 0x0, symName: __ZNSt3__16vectorIP10ArgmentASTNS_9allocatorIS2_EEEC1B8ue170006Ev, symObjAddr: 0xD084, symBinAddr: 0x10000D7BC, symSize: 0x2C }
  - { offsetInCU: 0x3818E, offset: 0x3818E, size: 0x8, addend: 0x0, symName: __ZNSt3__16vectorIP10ArgmentASTNS_9allocatorIS2_EEE9push_backB8ue170006EOS2_, symObjAddr: 0xD0B0, symBinAddr: 0x10000D7E8, symSize: 0x6C }
  - { offsetInCU: 0x381C5, offset: 0x381C5, size: 0x8, addend: 0x0, symName: __ZN10ArgmentASTC1ENSt3__112basic_stringIcNS0_11char_traitsIcEENS0_9allocatorIcEEEEP13IdentifierASTi, symObjAddr: 0xD11C, symBinAddr: 0x10000D854, symSize: 0x44 }
  - { offsetInCU: 0x3821A, offset: 0x3821A, size: 0x8, addend: 0x0, symName: __ZNSt3__16vectorIP10ArgmentASTNS_9allocatorIS2_EEEC1ERKS5_, symObjAddr: 0xD160, symBinAddr: 0x10000D898, symSize: 0x34 }
  - { offsetInCU: 0x38255, offset: 0x38255, size: 0x8, addend: 0x0, symName: __ZN21DefVirtualFunctionASTC1ENSt3__112basic_stringIcNS0_11char_traitsIcEENS0_9allocatorIcEEEEP13IdentifierASTNS0_6vectorIP10ArgmentASTNS4_ISB_EEEEi, symObjAddr: 0xD194, symBinAddr: 0x10000D8CC, symSize: 0x4C }
  - { offsetInCU: 0x382B9, offset: 0x382B9, size: 0x8, addend: 0x0, symName: __ZNSt3__16vectorIP10ArgmentASTNS_9allocatorIS2_EEED1B8ue170006Ev, symObjAddr: 0xD1E0, symBinAddr: 0x10000D918, symSize: 0x2C }
  - { offsetInCU: 0x382E3, offset: 0x382E3, size: 0x8, addend: 0x0, symName: __ZN6Parser15OtherStatementsEv, symObjAddr: 0xD20C, symBinAddr: 0x10000D944, symSize: 0x90C }
  - { offsetInCU: 0x383D9, offset: 0x383D9, size: 0x8, addend: 0x0, symName: __ZN7CodeASTC1ENSt3__16vectorIP18AbstractSyntaxTreeNS0_9allocatorIS3_EEEEi, symObjAddr: 0xDB18, symBinAddr: 0x10000E250, symSize: 0x3C }
  - { offsetInCU: 0x38420, offset: 0x38420, size: 0x8, addend: 0x0, symName: __ZN14DefFunctionASTC1ENSt3__112basic_stringIcNS0_11char_traitsIcEENS0_9allocatorIcEEEEP13IdentifierASTNS0_6vectorIP10ArgmentASTNS4_ISB_EEEEP18AbstractSyntaxTreei, symObjAddr: 0xDB54, symBinAddr: 0x10000E28C, symSize: 0x54 }
  - { offsetInCU: 0x38492, offset: 0x38492, size: 0x8, addend: 0x0, symName: __ZN14ConstructorASTC1EP13IdentifierASTNSt3__16vectorIP10ArgmentASTNS2_9allocatorIS5_EEEEP18AbstractSyntaxTreei, symObjAddr: 0xDBA8, symBinAddr: 0x10000E2E0, symSize: 0x4C }
  - { offsetInCU: 0x384F5, offset: 0x384F5, size: 0x8, addend: 0x0, symName: __ZN20VirtualDestructorASTC1EP13IdentifierASTi, symObjAddr: 0xDBF4, symBinAddr: 0x10000E32C, symSize: 0x3C }
  - { offsetInCU: 0x3853B, offset: 0x3853B, size: 0x8, addend: 0x0, symName: __ZN13DestructorASTC1EP13IdentifierASTP18AbstractSyntaxTreei, symObjAddr: 0xDC30, symBinAddr: 0x10000E368, symSize: 0x44 }
  - { offsetInCU: 0x3858F, offset: 0x3858F, size: 0x8, addend: 0x0, symName: __ZN6Parser14ClassStatementEv, symObjAddr: 0xDC74, symBinAddr: 0x10000E3AC, symSize: 0x1134 }
  - { offsetInCU: 0x38653, offset: 0x38653, size: 0x8, addend: 0x0, symName: __ZNSt3__16vectorI14AccessModifierNS_9allocatorIS1_EEEC1B8ue170006Ev, symObjAddr: 0xEDA8, symBinAddr: 0x10000F4E0, symSize: 0x2C }
  - { offsetInCU: 0x3867D, offset: 0x3867D, size: 0x8, addend: 0x0, symName: __ZNSt3__16vectorINS_12basic_stringIcNS_11char_traitsIcEENS_9allocatorIcEEEENS4_IS6_EEEC1B8ue170006Ev, symObjAddr: 0xEDD4, symBinAddr: 0x10000F50C, symSize: 0x2C }
  - { offsetInCU: 0x386A7, offset: 0x386A7, size: 0x8, addend: 0x0, symName: __ZNSt3__16vectorINS_12basic_stringIcNS_11char_traitsIcEENS_9allocatorIcEEEENS4_IS6_EEE9push_backB8ue170006EOS6_, symObjAddr: 0xEE00, symBinAddr: 0x10000F538, symSize: 0x6C }
  - { offsetInCU: 0x386DE, offset: 0x386DE, size: 0x8, addend: 0x0, symName: __ZNSt3__16vectorI14AccessModifierNS_9allocatorIS1_EEE9push_backB8ue170006EOS1_, symObjAddr: 0xEE6C, symBinAddr: 0x10000F5A4, symSize: 0x6C }
  - { offsetInCU: 0x38715, offset: 0x38715, size: 0x8, addend: 0x0, symName: __ZNSt3__16vectorINS_12basic_stringIcNS_11char_traitsIcEENS_9allocatorIcEEEENS4_IS6_EEEC1ERKS8_, symObjAddr: 0xEED8, symBinAddr: 0x10000F610, symSize: 0x34 }
  - { offsetInCU: 0x38750, offset: 0x38750, size: 0x8, addend: 0x0, symName: __ZNSt3__16vectorI14AccessModifierNS_9allocatorIS1_EEEC1ERKS4_, symObjAddr: 0xEF0C, symBinAddr: 0x10000F644, symSize: 0x34 }
  - { offsetInCU: 0x3878B, offset: 0x3878B, size: 0x8, addend: 0x0, symName: __ZN8ClassASTC1EP13IdentifierASTNSt3__16vectorINS2_12basic_stringIcNS2_11char_traitsIcEENS2_9allocatorIcEEEENS7_IS9_EEEENS3_IP18AbstractSyntaxTreeNS7_ISD_EEEENS3_I14AccessModifierNS7_ISG_EEEEi, symObjAddr: 0xEF40, symBinAddr: 0x10000F678, symSize: 0x54 }
  - { offsetInCU: 0x387FE, offset: 0x387FE, size: 0x8, addend: 0x0, symName: __ZNSt3__16vectorI14AccessModifierNS_9allocatorIS1_EEED1B8ue170006Ev, symObjAddr: 0xEF94, symBinAddr: 0x10000F6CC, symSize: 0x2C }
  - { offsetInCU: 0x38828, offset: 0x38828, size: 0x8, addend: 0x0, symName: __ZNSt3__16vectorINS_12basic_stringIcNS_11char_traitsIcEENS_9allocatorIcEEEENS4_IS6_EEED1B8ue170006Ev, symObjAddr: 0xEFC0, symBinAddr: 0x10000F6F8, symSize: 0x2C }
  - { offsetInCU: 0x38852, offset: 0x38852, size: 0x8, addend: 0x0, symName: __ZN12InterfaceASTC1EP13IdentifierASTNSt3__16vectorIP18AbstractSyntaxTreeNS2_9allocatorIS5_EEEENS3_I14AccessModifierNS6_IS9_EEEEi, symObjAddr: 0xEFEC, symBinAddr: 0x10000F724, symSize: 0x4C }
  - { offsetInCU: 0x388B6, offset: 0x388B6, size: 0x8, addend: 0x0, symName: __ZN6Parser8GetBlockEv, symObjAddr: 0xF038, symBinAddr: 0x10000F770, symSize: 0x244 }
  - { offsetInCU: 0x388EA, offset: 0x388EA, size: 0x8, addend: 0x0, symName: __ZN5IfASTC1EP18AbstractSyntaxTreeP7CodeASTi, symObjAddr: 0xF27C, symBinAddr: 0x10000F9B4, symSize: 0x44 }
  - { offsetInCU: 0x3893E, offset: 0x3893E, size: 0x8, addend: 0x0, symName: __ZN7ElifASTC1EP18AbstractSyntaxTreeP7CodeASTi, symObjAddr: 0xF2C0, symBinAddr: 0x10000F9F8, symSize: 0x44 }
  - { offsetInCU: 0x38992, offset: 0x38992, size: 0x8, addend: 0x0, symName: __ZN7ElseASTC1EP7CodeASTi, symObjAddr: 0xF304, symBinAddr: 0x10000FA3C, symSize: 0x3C }
  - { offsetInCU: 0x389D8, offset: 0x389D8, size: 0x8, addend: 0x0, symName: __ZN6ForASTC1EP18AbstractSyntaxTreeS1_S1_P7CodeASTi, symObjAddr: 0xF340, symBinAddr: 0x10000FA78, symSize: 0x54 }
  - { offsetInCU: 0x38A48, offset: 0x38A48, size: 0x8, addend: 0x0, symName: __ZN8WhileASTC1EP18AbstractSyntaxTreeP7CodeASTi, symObjAddr: 0xF394, symBinAddr: 0x10000FACC, symSize: 0x44 }
  - { offsetInCU: 0x38A9C, offset: 0x38A9C, size: 0x8, addend: 0x0, symName: _main, symObjAddr: 0xF3D8, symBinAddr: 0x10000FB10, symSize: 0x17C }
  - { offsetInCU: 0x38AF1, offset: 0x38AF1, size: 0x8, addend: 0x0, symName: __ZN5LexerC1ENSt3__112basic_stringIcNS0_11char_traitsIcEENS0_9allocatorIcEEEE, symObjAddr: 0xF554, symBinAddr: 0x10000FC8C, symSize: 0x34 }
  - { offsetInCU: 0x38B2A, offset: 0x38B2A, size: 0x8, addend: 0x0, symName: __ZN6ParserC1EP5Lexer, symObjAddr: 0xF588, symBinAddr: 0x10000FCC0, symSize: 0x34 }
  - { offsetInCU: 0x38B62, offset: 0x38B62, size: 0x8, addend: 0x0, symName: __ZNSt3__113basic_ostreamIcNS_11char_traitsIcEEElsB8ue170006EPFRS3_S4_E, symObjAddr: 0xF608, symBinAddr: 0x10000FD40, symSize: 0x2C }
  - { offsetInCU: 0x38B96, offset: 0x38B96, size: 0x8, addend: 0x0, symName: __ZN5LexerD1Ev, symObjAddr: 0xF68C, symBinAddr: 0x10000FDC4, symSize: 0x2C }
  - { offsetInCU: 0x38BC2, offset: 0x38BC2, size: 0x8, addend: 0x0, symName: __ZN9NumberAST8GetChildEi, symObjAddr: 0xF6B8, symBinAddr: 0x10000FDF0, symSize: 0x118 }
  - { offsetInCU: 0x38BF6, offset: 0x38BF6, size: 0x8, addend: 0x0, symName: __ZN9NumberASTD1Ev, symObjAddr: 0xF7D0, symBinAddr: 0x10000FF08, symSize: 0x2C }
  - { offsetInCU: 0x38C20, offset: 0x38C20, size: 0x8, addend: 0x0, symName: __ZN9NumberASTD0Ev, symObjAddr: 0xF7FC, symBinAddr: 0x10000FF34, symSize: 0x58 }
  - { offsetInCU: 0x38C4A, offset: 0x38C4A, size: 0x8, addend: 0x0, symName: __ZN14FloatNumberAST8GetChildEi, symObjAddr: 0xF854, symBinAddr: 0x10000FF8C, symSize: 0x118 }
  - { offsetInCU: 0x38C7E, offset: 0x38C7E, size: 0x8, addend: 0x0, symName: __ZN14FloatNumberASTD1Ev, symObjAddr: 0xF96C, symBinAddr: 0x1000100A4, symSize: 0x2C }
  - { offsetInCU: 0x38CA8, offset: 0x38CA8, size: 0x8, addend: 0x0, symName: __ZN14FloatNumberASTD0Ev, symObjAddr: 0xF998, symBinAddr: 0x1000100D0, symSize: 0x58 }
  - { offsetInCU: 0x38CD2, offset: 0x38CD2, size: 0x8, addend: 0x0, symName: __ZN7PlusAST8GetChildEi, symObjAddr: 0xF9F0, symBinAddr: 0x100010128, symSize: 0x174 }
  - { offsetInCU: 0x38D06, offset: 0x38D06, size: 0x8, addend: 0x0, symName: __ZN7PlusASTD1Ev, symObjAddr: 0xFB64, symBinAddr: 0x10001029C, symSize: 0x2C }
  - { offsetInCU: 0x38D30, offset: 0x38D30, size: 0x8, addend: 0x0, symName: __ZN7PlusASTD0Ev, symObjAddr: 0xFB90, symBinAddr: 0x1000102C8, symSize: 0x58 }
  - { offsetInCU: 0x38D5A, offset: 0x38D5A, size: 0x8, addend: 0x0, symName: __ZN17MultiplicationAST8GetChildEi, symObjAddr: 0xFBE8, symBinAddr: 0x100010320, symSize: 0x174 }
  - { offsetInCU: 0x38D8E, offset: 0x38D8E, size: 0x8, addend: 0x0, symName: __ZN17MultiplicationASTD1Ev, symObjAddr: 0xFD5C, symBinAddr: 0x100010494, symSize: 0x2C }
  - { offsetInCU: 0x38DB8, offset: 0x38DB8, size: 0x8, addend: 0x0, symName: __ZN17MultiplicationASTD0Ev, symObjAddr: 0xFD88, symBinAddr: 0x1000104C0, symSize: 0x58 }
  - { offsetInCU: 0x38DE2, offset: 0x38DE2, size: 0x8, addend: 0x0, symName: __ZN13IdentifierAST8GetChildEi, symObjAddr: 0xFDE0, symBinAddr: 0x100010518, symSize: 0x118 }
  - { offsetInCU: 0x38E16, offset: 0x38E16, size: 0x8, addend: 0x0, symName: __ZN13IdentifierASTD1Ev, symObjAddr: 0xFEF8, symBinAddr: 0x100010630, symSize: 0x2C }
  - { offsetInCU: 0x38E40, offset: 0x38E40, size: 0x8, addend: 0x0, symName: __ZN13IdentifierASTD0Ev, symObjAddr: 0xFF24, symBinAddr: 0x10001065C, symSize: 0x58 }
  - { offsetInCU: 0x38E6A, offset: 0x38E6A, size: 0x8, addend: 0x0, symName: __ZN11ConstantAST8GetChildEi, symObjAddr: 0xFF7C, symBinAddr: 0x1000106B4, symSize: 0x174 }
  - { offsetInCU: 0x38E9E, offset: 0x38E9E, size: 0x8, addend: 0x0, symName: __ZN11ConstantASTD1Ev, symObjAddr: 0x100F0, symBinAddr: 0x100010828, symSize: 0x2C }
  - { offsetInCU: 0x38EC8, offset: 0x38EC8, size: 0x8, addend: 0x0, symName: __ZN11ConstantASTD0Ev, symObjAddr: 0x1011C, symBinAddr: 0x100010854, symSize: 0x58 }
  - { offsetInCU: 0x38EF2, offset: 0x38EF2, size: 0x8, addend: 0x0, symName: __ZN9StringAST8GetChildEi, symObjAddr: 0x10174, symBinAddr: 0x1000108AC, symSize: 0x118 }
  - { offsetInCU: 0x38F26, offset: 0x38F26, size: 0x8, addend: 0x0, symName: __ZN9StringASTD1Ev, symObjAddr: 0x1028C, symBinAddr: 0x1000109C4, symSize: 0x2C }
  - { offsetInCU: 0x38F50, offset: 0x38F50, size: 0x8, addend: 0x0, symName: __ZN9StringASTD0Ev, symObjAddr: 0x102B8, symBinAddr: 0x1000109F0, symSize: 0x58 }
  - { offsetInCU: 0x38F7A, offset: 0x38F7A, size: 0x8, addend: 0x0, symName: __ZN7CharAST8GetChildEi, symObjAddr: 0x10310, symBinAddr: 0x100010A48, symSize: 0x118 }
  - { offsetInCU: 0x38FAE, offset: 0x38FAE, size: 0x8, addend: 0x0, symName: __ZN7CharASTD1Ev, symObjAddr: 0x10428, symBinAddr: 0x100010B60, symSize: 0x2C }
  - { offsetInCU: 0x38FD8, offset: 0x38FD8, size: 0x8, addend: 0x0, symName: __ZN7CharASTD0Ev, symObjAddr: 0x10454, symBinAddr: 0x100010B8C, symSize: 0x58 }
  - { offsetInCU: 0x39002, offset: 0x39002, size: 0x8, addend: 0x0, symName: __ZN14DeclarationAST8GetChildEi, symObjAddr: 0x104AC, symBinAddr: 0x100010BE4, symSize: 0x174 }
  - { offsetInCU: 0x39036, offset: 0x39036, size: 0x8, addend: 0x0, symName: __ZN14DeclarationASTD1Ev, symObjAddr: 0x10620, symBinAddr: 0x100010D58, symSize: 0x2C }
  - { offsetInCU: 0x39060, offset: 0x39060, size: 0x8, addend: 0x0, symName: __ZN14DeclarationASTD0Ev, symObjAddr: 0x1064C, symBinAddr: 0x100010D84, symSize: 0x58 }
  - { offsetInCU: 0x3908A, offset: 0x3908A, size: 0x8, addend: 0x0, symName: __ZN11DivisionAST8GetChildEi, symObjAddr: 0x106A4, symBinAddr: 0x100010DDC, symSize: 0x174 }
  - { offsetInCU: 0x390BE, offset: 0x390BE, size: 0x8, addend: 0x0, symName: __ZN11DivisionASTD1Ev, symObjAddr: 0x10818, symBinAddr: 0x100010F50, symSize: 0x2C }
  - { offsetInCU: 0x390E8, offset: 0x390E8, size: 0x8, addend: 0x0, symName: __ZN11DivisionASTD0Ev, symObjAddr: 0x10844, symBinAddr: 0x100010F7C, symSize: 0x58 }
  - { offsetInCU: 0x39112, offset: 0x39112, size: 0x8, addend: 0x0, symName: __ZN8MinusAST8GetChildEi, symObjAddr: 0x1089C, symBinAddr: 0x100010FD4, symSize: 0x174 }
  - { offsetInCU: 0x39146, offset: 0x39146, size: 0x8, addend: 0x0, symName: __ZN8MinusASTD1Ev, symObjAddr: 0x10A10, symBinAddr: 0x100011148, symSize: 0x2C }
  - { offsetInCU: 0x39170, offset: 0x39170, size: 0x8, addend: 0x0, symName: __ZN8MinusASTD0Ev, symObjAddr: 0x10A3C, symBinAddr: 0x100011174, symSize: 0x58 }
  - { offsetInCU: 0x3919A, offset: 0x3919A, size: 0x8, addend: 0x0, symName: __ZN8PowerAST8GetChildEi, symObjAddr: 0x10A94, symBinAddr: 0x1000111CC, symSize: 0x174 }
  - { offsetInCU: 0x391CE, offset: 0x391CE, size: 0x8, addend: 0x0, symName: __ZN8PowerASTD1Ev, symObjAddr: 0x10C08, symBinAddr: 0x100011340, symSize: 0x2C }
  - { offsetInCU: 0x391F8, offset: 0x391F8, size: 0x8, addend: 0x0, symName: __ZN8PowerASTD0Ev, symObjAddr: 0x10C34, symBinAddr: 0x10001136C, symSize: 0x58 }
  - { offsetInCU: 0x39222, offset: 0x39222, size: 0x8, addend: 0x0, symName: __ZN6ModAST8GetChildEi, symObjAddr: 0x10C8C, symBinAddr: 0x1000113C4, symSize: 0x174 }
  - { offsetInCU: 0x39256, offset: 0x39256, size: 0x8, addend: 0x0, symName: __ZN6ModASTD1Ev, symObjAddr: 0x10E00, symBinAddr: 0x100011538, symSize: 0x2C }
  - { offsetInCU: 0x39280, offset: 0x39280, size: 0x8, addend: 0x0, symName: __ZN6ModASTD0Ev, symObjAddr: 0x10E2C, symBinAddr: 0x100011564, symSize: 0x58 }
  - { offsetInCU: 0x392AA, offset: 0x392AA, size: 0x8, addend: 0x0, symName: __ZN7CodeAST8GetChildEi, symObjAddr: 0x10E84, symBinAddr: 0x1000115BC, symSize: 0x34 }
  - { offsetInCU: 0x392DE, offset: 0x392DE, size: 0x8, addend: 0x0, symName: __ZN7CodeASTD1Ev, symObjAddr: 0x10EB8, symBinAddr: 0x1000115F0, symSize: 0x2C }
  - { offsetInCU: 0x39308, offset: 0x39308, size: 0x8, addend: 0x0, symName: __ZN7CodeASTD0Ev, symObjAddr: 0x10EE4, symBinAddr: 0x10001161C, symSize: 0x58 }
  - { offsetInCU: 0x39332, offset: 0x39332, size: 0x8, addend: 0x0, symName: __ZN13AssignmentAST8GetChildEi, symObjAddr: 0x10F3C, symBinAddr: 0x100011674, symSize: 0x174 }
  - { offsetInCU: 0x39366, offset: 0x39366, size: 0x8, addend: 0x0, symName: __ZN13AssignmentASTD1Ev, symObjAddr: 0x110B0, symBinAddr: 0x1000117E8, symSize: 0x2C }
  - { offsetInCU: 0x39390, offset: 0x39390, size: 0x8, addend: 0x0, symName: __ZN13AssignmentASTD0Ev, symObjAddr: 0x110DC, symBinAddr: 0x100011814, symSize: 0x58 }
  - { offsetInCU: 0x393BA, offset: 0x393BA, size: 0x8, addend: 0x0, symName: __ZN10ArgmentAST8GetChildEi, symObjAddr: 0x11134, symBinAddr: 0x10001186C, symSize: 0x118 }
  - { offsetInCU: 0x393EE, offset: 0x393EE, size: 0x8, addend: 0x0, symName: __ZN10ArgmentASTD1Ev, symObjAddr: 0x1124C, symBinAddr: 0x100011984, symSize: 0x2C }
  - { offsetInCU: 0x39418, offset: 0x39418, size: 0x8, addend: 0x0, symName: __ZN10ArgmentASTD0Ev, symObjAddr: 0x11278, symBinAddr: 0x1000119B0, symSize: 0x58 }
  - { offsetInCU: 0x39442, offset: 0x39442, size: 0x8, addend: 0x0, symName: __ZN14DefFunctionAST8GetChildEi, symObjAddr: 0x112D0, symBinAddr: 0x100011A08, symSize: 0x174 }
  - { offsetInCU: 0x39476, offset: 0x39476, size: 0x8, addend: 0x0, symName: __ZN14DefFunctionASTD1Ev, symObjAddr: 0x11444, symBinAddr: 0x100011B7C, symSize: 0x2C }
  - { offsetInCU: 0x394A0, offset: 0x394A0, size: 0x8, addend: 0x0, symName: __ZN14DefFunctionASTD0Ev, symObjAddr: 0x11470, symBinAddr: 0x100011BA8, symSize: 0x58 }
  - { offsetInCU: 0x394CA, offset: 0x394CA, size: 0x8, addend: 0x0, symName: __ZN21DefVirtualFunctionAST8GetChildEi, symObjAddr: 0x114C8, symBinAddr: 0x100011C00, symSize: 0x150 }
  - { offsetInCU: 0x394FE, offset: 0x394FE, size: 0x8, addend: 0x0, symName: __ZN21DefVirtualFunctionASTD1Ev, symObjAddr: 0x11618, symBinAddr: 0x100011D50, symSize: 0x2C }
  - { offsetInCU: 0x39528, offset: 0x39528, size: 0x8, addend: 0x0, symName: __ZN21DefVirtualFunctionASTD0Ev, symObjAddr: 0x11644, symBinAddr: 0x100011D7C, symSize: 0x58 }
  - { offsetInCU: 0x39552, offset: 0x39552, size: 0x8, addend: 0x0, symName: __ZN15CallFunctionAST8GetChildEi, symObjAddr: 0x1169C, symBinAddr: 0x100011DD4, symSize: 0x34 }
  - { offsetInCU: 0x39586, offset: 0x39586, size: 0x8, addend: 0x0, symName: __ZN15CallFunctionASTD1Ev, symObjAddr: 0x116D0, symBinAddr: 0x100011E08, symSize: 0x2C }
  - { offsetInCU: 0x395B0, offset: 0x395B0, size: 0x8, addend: 0x0, symName: __ZN15CallFunctionASTD0Ev, symObjAddr: 0x116FC, symBinAddr: 0x100011E34, symSize: 0x58 }
  - { offsetInCU: 0x395DA, offset: 0x395DA, size: 0x8, addend: 0x0, symName: __ZN12InterfaceAST8GetChildEi, symObjAddr: 0x11754, symBinAddr: 0x100011E8C, symSize: 0x34 }
  - { offsetInCU: 0x3960E, offset: 0x3960E, size: 0x8, addend: 0x0, symName: __ZN12InterfaceASTD1Ev, symObjAddr: 0x11788, symBinAddr: 0x100011EC0, symSize: 0x2C }
  - { offsetInCU: 0x39638, offset: 0x39638, size: 0x8, addend: 0x0, symName: __ZN12InterfaceASTD0Ev, symObjAddr: 0x117B4, symBinAddr: 0x100011EEC, symSize: 0x58 }
  - { offsetInCU: 0x39662, offset: 0x39662, size: 0x8, addend: 0x0, symName: __ZN8ClassAST8GetChildEi, symObjAddr: 0x1180C, symBinAddr: 0x100011F44, symSize: 0x34 }
  - { offsetInCU: 0x39696, offset: 0x39696, size: 0x8, addend: 0x0, symName: __ZN8ClassASTD1Ev, symObjAddr: 0x11840, symBinAddr: 0x100011F78, symSize: 0x2C }
  - { offsetInCU: 0x396C0, offset: 0x396C0, size: 0x8, addend: 0x0, symName: __ZN8ClassASTD0Ev, symObjAddr: 0x1186C, symBinAddr: 0x100011FA4, symSize: 0x58 }
  - { offsetInCU: 0x396EA, offset: 0x396EA, size: 0x8, addend: 0x0, symName: __ZN13MakeObjectAST8GetChildEi, symObjAddr: 0x118C4, symBinAddr: 0x100011FFC, symSize: 0x34 }
  - { offsetInCU: 0x3971E, offset: 0x3971E, size: 0x8, addend: 0x0, symName: __ZN13MakeObjectASTD1Ev, symObjAddr: 0x118F8, symBinAddr: 0x100012030, symSize: 0x2C }
  - { offsetInCU: 0x39748, offset: 0x39748, size: 0x8, addend: 0x0, symName: __ZN13MakeObjectASTD0Ev, symObjAddr: 0x11924, symBinAddr: 0x10001205C, symSize: 0x58 }
  - { offsetInCU: 0x39772, offset: 0x39772, size: 0x8, addend: 0x0, symName: __ZN14ConstructorAST8GetChildEi, symObjAddr: 0x1197C, symBinAddr: 0x1000120B4, symSize: 0x174 }
  - { offsetInCU: 0x397A6, offset: 0x397A6, size: 0x8, addend: 0x0, symName: __ZN14ConstructorASTD1Ev, symObjAddr: 0x11AF0, symBinAddr: 0x100012228, symSize: 0x2C }
  - { offsetInCU: 0x397D0, offset: 0x397D0, size: 0x8, addend: 0x0, symName: __ZN14ConstructorASTD0Ev, symObjAddr: 0x11B1C, symBinAddr: 0x100012254, symSize: 0x58 }
  - { offsetInCU: 0x397FA, offset: 0x397FA, size: 0x8, addend: 0x0, symName: __ZN13DestructorAST8GetChildEi, symObjAddr: 0x11B74, symBinAddr: 0x1000122AC, symSize: 0x174 }
  - { offsetInCU: 0x3982E, offset: 0x3982E, size: 0x8, addend: 0x0, symName: __ZN13DestructorASTD1Ev, symObjAddr: 0x11CE8, symBinAddr: 0x100012420, symSize: 0x2C }
  - { offsetInCU: 0x39858, offset: 0x39858, size: 0x8, addend: 0x0, symName: __ZN13DestructorASTD0Ev, symObjAddr: 0x11D14, symBinAddr: 0x10001244C, symSize: 0x58 }
  - { offsetInCU: 0x39882, offset: 0x39882, size: 0x8, addend: 0x0, symName: __ZN20VirtualDestructorAST8GetChildEi, symObjAddr: 0x11D6C, symBinAddr: 0x1000124A4, symSize: 0x150 }
  - { offsetInCU: 0x398B6, offset: 0x398B6, size: 0x8, addend: 0x0, symName: __ZN20VirtualDestructorASTD1Ev, symObjAddr: 0x11EBC, symBinAddr: 0x1000125F4, symSize: 0x2C }
  - { offsetInCU: 0x398E0, offset: 0x398E0, size: 0x8, addend: 0x0, symName: __ZN20VirtualDestructorASTD0Ev, symObjAddr: 0x11EE8, symBinAddr: 0x100012620, symSize: 0x58 }
  - { offsetInCU: 0x3990A, offset: 0x3990A, size: 0x8, addend: 0x0, symName: __ZN11NegativeAST8GetChildEi, symObjAddr: 0x11F40, symBinAddr: 0x100012678, symSize: 0x150 }
  - { offsetInCU: 0x3993E, offset: 0x3993E, size: 0x8, addend: 0x0, symName: __ZN11NegativeASTD1Ev, symObjAddr: 0x12090, symBinAddr: 0x1000127C8, symSize: 0x2C }
  - { offsetInCU: 0x39968, offset: 0x39968, size: 0x8, addend: 0x0, symName: __ZN11NegativeASTD0Ev, symObjAddr: 0x120BC, symBinAddr: 0x1000127F4, symSize: 0x58 }
  - { offsetInCU: 0x39992, offset: 0x39992, size: 0x8, addend: 0x0, symName: __ZN5IfAST8GetChildEi, symObjAddr: 0x12114, symBinAddr: 0x10001284C, symSize: 0x174 }
  - { offsetInCU: 0x399C6, offset: 0x399C6, size: 0x8, addend: 0x0, symName: __ZN5IfASTD1Ev, symObjAddr: 0x12288, symBinAddr: 0x1000129C0, symSize: 0x2C }
  - { offsetInCU: 0x399F0, offset: 0x399F0, size: 0x8, addend: 0x0, symName: __ZN5IfASTD0Ev, symObjAddr: 0x122B4, symBinAddr: 0x1000129EC, symSize: 0x58 }
  - { offsetInCU: 0x39A1A, offset: 0x39A1A, size: 0x8, addend: 0x0, symName: __ZN6ForAST8GetChildEi, symObjAddr: 0x1230C, symBinAddr: 0x100012A44, symSize: 0x1BC }
  - { offsetInCU: 0x39A4E, offset: 0x39A4E, size: 0x8, addend: 0x0, symName: __ZN6ForASTD1Ev, symObjAddr: 0x124C8, symBinAddr: 0x100012C00, symSize: 0x2C }
  - { offsetInCU: 0x39A78, offset: 0x39A78, size: 0x8, addend: 0x0, symName: __ZN6ForASTD0Ev, symObjAddr: 0x124F4, symBinAddr: 0x100012C2C, symSize: 0x58 }
  - { offsetInCU: 0x39AA2, offset: 0x39AA2, size: 0x8, addend: 0x0, symName: __ZN8WhileAST8GetChildEi, symObjAddr: 0x1254C, symBinAddr: 0x100012C84, symSize: 0x174 }
  - { offsetInCU: 0x39AD6, offset: 0x39AD6, size: 0x8, addend: 0x0, symName: __ZN8WhileASTD1Ev, symObjAddr: 0x126C0, symBinAddr: 0x100012DF8, symSize: 0x2C }
  - { offsetInCU: 0x39B00, offset: 0x39B00, size: 0x8, addend: 0x0, symName: __ZN8WhileASTD0Ev, symObjAddr: 0x126EC, symBinAddr: 0x100012E24, symSize: 0x58 }
  - { offsetInCU: 0x39B2A, offset: 0x39B2A, size: 0x8, addend: 0x0, symName: __ZN7ElifAST8GetChildEi, symObjAddr: 0x12744, symBinAddr: 0x100012E7C, symSize: 0x174 }
  - { offsetInCU: 0x39B5E, offset: 0x39B5E, size: 0x8, addend: 0x0, symName: __ZN7ElifASTD1Ev, symObjAddr: 0x128B8, symBinAddr: 0x100012FF0, symSize: 0x2C }
  - { offsetInCU: 0x39B88, offset: 0x39B88, size: 0x8, addend: 0x0, symName: __ZN7ElifASTD0Ev, symObjAddr: 0x128E4, symBinAddr: 0x10001301C, symSize: 0x58 }
  - { offsetInCU: 0x39BB2, offset: 0x39BB2, size: 0x8, addend: 0x0, symName: __ZN7ElseAST8GetChildEi, symObjAddr: 0x1293C, symBinAddr: 0x100013074, symSize: 0x150 }
  - { offsetInCU: 0x39BE6, offset: 0x39BE6, size: 0x8, addend: 0x0, symName: __ZN7ElseASTD1Ev, symObjAddr: 0x12A8C, symBinAddr: 0x1000131C4, symSize: 0x2C }
  - { offsetInCU: 0x39C10, offset: 0x39C10, size: 0x8, addend: 0x0, symName: __ZN7ElseASTD0Ev, symObjAddr: 0x12AB8, symBinAddr: 0x1000131F0, symSize: 0x58 }
  - { offsetInCU: 0x39C3A, offset: 0x39C3A, size: 0x8, addend: 0x0, symName: __ZN8EqualAST8GetChildEi, symObjAddr: 0x12B10, symBinAddr: 0x100013248, symSize: 0x174 }
  - { offsetInCU: 0x39C6E, offset: 0x39C6E, size: 0x8, addend: 0x0, symName: __ZN8EqualASTD1Ev, symObjAddr: 0x12C84, symBinAddr: 0x1000133BC, symSize: 0x2C }
  - { offsetInCU: 0x39C98, offset: 0x39C98, size: 0x8, addend: 0x0, symName: __ZN8EqualASTD0Ev, symObjAddr: 0x12CB0, symBinAddr: 0x1000133E8, symSize: 0x58 }
  - { offsetInCU: 0x39CC2, offset: 0x39CC2, size: 0x8, addend: 0x0, symName: __ZN11MoreThanAST8GetChildEi, symObjAddr: 0x12D08, symBinAddr: 0x100013440, symSize: 0x174 }
  - { offsetInCU: 0x39CF6, offset: 0x39CF6, size: 0x8, addend: 0x0, symName: __ZN11MoreThanASTD1Ev, symObjAddr: 0x12E7C, symBinAddr: 0x1000135B4, symSize: 0x2C }
  - { offsetInCU: 0x39D20, offset: 0x39D20, size: 0x8, addend: 0x0, symName: __ZN11MoreThanASTD0Ev, symObjAddr: 0x12EA8, symBinAddr: 0x1000135E0, symSize: 0x58 }
  - { offsetInCU: 0x39D4A, offset: 0x39D4A, size: 0x8, addend: 0x0, symName: __ZN11LessThanAST8GetChildEi, symObjAddr: 0x12F00, symBinAddr: 0x100013638, symSize: 0x174 }
  - { offsetInCU: 0x39D7E, offset: 0x39D7E, size: 0x8, addend: 0x0, symName: __ZN11LessThanASTD1Ev, symObjAddr: 0x13074, symBinAddr: 0x1000137AC, symSize: 0x2C }
  - { offsetInCU: 0x39DA8, offset: 0x39DA8, size: 0x8, addend: 0x0, symName: __ZN11LessThanASTD0Ev, symObjAddr: 0x130A0, symBinAddr: 0x1000137D8, symSize: 0x58 }
  - { offsetInCU: 0x39DD2, offset: 0x39DD2, size: 0x8, addend: 0x0, symName: __ZN18MoreThanOrEqualAST8GetChildEi, symObjAddr: 0x130F8, symBinAddr: 0x100013830, symSize: 0x174 }
  - { offsetInCU: 0x39E06, offset: 0x39E06, size: 0x8, addend: 0x0, symName: __ZN18MoreThanOrEqualASTD1Ev, symObjAddr: 0x1326C, symBinAddr: 0x1000139A4, symSize: 0x2C }
  - { offsetInCU: 0x39E30, offset: 0x39E30, size: 0x8, addend: 0x0, symName: __ZN18MoreThanOrEqualASTD0Ev, symObjAddr: 0x13298, symBinAddr: 0x1000139D0, symSize: 0x58 }
  - { offsetInCU: 0x39E5A, offset: 0x39E5A, size: 0x8, addend: 0x0, symName: __ZN18LessThanOrEqualAST8GetChildEi, symObjAddr: 0x132F0, symBinAddr: 0x100013A28, symSize: 0x174 }
  - { offsetInCU: 0x39E8E, offset: 0x39E8E, size: 0x8, addend: 0x0, symName: __ZN18LessThanOrEqualASTD1Ev, symObjAddr: 0x13464, symBinAddr: 0x100013B9C, symSize: 0x2C }
  - { offsetInCU: 0x39EB8, offset: 0x39EB8, size: 0x8, addend: 0x0, symName: __ZN18LessThanOrEqualASTD0Ev, symObjAddr: 0x13490, symBinAddr: 0x100013BC8, symSize: 0x58 }
  - { offsetInCU: 0x39EE2, offset: 0x39EE2, size: 0x8, addend: 0x0, symName: __ZN6AndAST8GetChildEi, symObjAddr: 0x134E8, symBinAddr: 0x100013C20, symSize: 0x174 }
  - { offsetInCU: 0x39F16, offset: 0x39F16, size: 0x8, addend: 0x0, symName: __ZN6AndASTD1Ev, symObjAddr: 0x1365C, symBinAddr: 0x100013D94, symSize: 0x2C }
  - { offsetInCU: 0x39F40, offset: 0x39F40, size: 0x8, addend: 0x0, symName: __ZN6AndASTD0Ev, symObjAddr: 0x13688, symBinAddr: 0x100013DC0, symSize: 0x58 }
  - { offsetInCU: 0x39F6A, offset: 0x39F6A, size: 0x8, addend: 0x0, symName: __ZN5OrAST8GetChildEi, symObjAddr: 0x136E0, symBinAddr: 0x100013E18, symSize: 0x174 }
  - { offsetInCU: 0x39F9E, offset: 0x39F9E, size: 0x8, addend: 0x0, symName: __ZN5OrASTD1Ev, symObjAddr: 0x13854, symBinAddr: 0x100013F8C, symSize: 0x2C }
  - { offsetInCU: 0x39FC8, offset: 0x39FC8, size: 0x8, addend: 0x0, symName: __ZN5OrASTD0Ev, symObjAddr: 0x13880, symBinAddr: 0x100013FB8, symSize: 0x58 }
  - { offsetInCU: 0x39FF2, offset: 0x39FF2, size: 0x8, addend: 0x0, symName: __ZN8EOLTokenC2EiNSt3__112basic_stringIcNS0_11char_traitsIcEENS0_9allocatorIcEEEE, symObjAddr: 0x138D8, symBinAddr: 0x100014010, symSize: 0xB4 }
  - { offsetInCU: 0x3A039, offset: 0x3A039, size: 0x8, addend: 0x0, symName: __ZN5TokenC2EiNSt3__112basic_stringIcNS0_11char_traitsIcEENS0_9allocatorIcEEEE, symObjAddr: 0x1398C, symBinAddr: 0x1000140C4, symSize: 0x5C }
  - { offsetInCU: 0x3A080, offset: 0x3A080, size: 0x8, addend: 0x0, symName: __ZN8EOLToken7GetTypeEv, symObjAddr: 0x139E8, symBinAddr: 0x100014120, symSize: 0x14 }
  - { offsetInCU: 0x3A0A6, offset: 0x3A0A6, size: 0x8, addend: 0x0, symName: __ZN8EOLToken8GetValueEv, symObjAddr: 0x139FC, symBinAddr: 0x100014134, symSize: 0x3C }
  - { offsetInCU: 0x3A0CC, offset: 0x3A0CC, size: 0x8, addend: 0x0, symName: __ZN8EOLToken9GetLineNoEv, symObjAddr: 0x13A38, symBinAddr: 0x100014170, symSize: 0x18 }
  - { offsetInCU: 0x3A0F2, offset: 0x3A0F2, size: 0x8, addend: 0x0, symName: __ZN8EOLTokenD1Ev, symObjAddr: 0x13A50, symBinAddr: 0x100014188, symSize: 0x2C }
  - { offsetInCU: 0x3A11C, offset: 0x3A11C, size: 0x8, addend: 0x0, symName: __ZN8EOLTokenD0Ev, symObjAddr: 0x13A7C, symBinAddr: 0x1000141B4, symSize: 0x58 }
  - { offsetInCU: 0x3A146, offset: 0x3A146, size: 0x8, addend: 0x0, symName: __ZN5TokenD1Ev, symObjAddr: 0x13AD4, symBinAddr: 0x10001420C, symSize: 0x14 }
  - { offsetInCU: 0x3A170, offset: 0x3A170, size: 0x8, addend: 0x0, symName: __ZN5TokenD0Ev, symObjAddr: 0x13AE8, symBinAddr: 0x100014220, symSize: 0xC }
  - { offsetInCU: 0x3A19A, offset: 0x3A19A, size: 0x8, addend: 0x0, symName: __ZN8EOLTokenD2Ev, symObjAddr: 0x13AF4, symBinAddr: 0x10001422C, symSize: 0x2C }
  - { offsetInCU: 0x3A1C4, offset: 0x3A1C4, size: 0x8, addend: 0x0, symName: __ZN5TokenD2Ev, symObjAddr: 0x13B20, symBinAddr: 0x100014258, symSize: 0x40 }
  - { offsetInCU: 0x3A1EE, offset: 0x3A1EE, size: 0x8, addend: 0x0, symName: __ZN8EOFTokenC2EiNSt3__112basic_stringIcNS0_11char_traitsIcEENS0_9allocatorIcEEEE, symObjAddr: 0x13B60, symBinAddr: 0x100014298, symSize: 0xB4 }
  - { offsetInCU: 0x3A235, offset: 0x3A235, size: 0x8, addend: 0x0, symName: __ZN8EOFToken7GetTypeEv, symObjAddr: 0x13C14, symBinAddr: 0x10001434C, symSize: 0x14 }
  - { offsetInCU: 0x3A25B, offset: 0x3A25B, size: 0x8, addend: 0x0, symName: __ZN8EOFToken8GetValueEv, symObjAddr: 0x13C28, symBinAddr: 0x100014360, symSize: 0x3C }
  - { offsetInCU: 0x3A281, offset: 0x3A281, size: 0x8, addend: 0x0, symName: __ZN8EOFToken9GetLineNoEv, symObjAddr: 0x13C64, symBinAddr: 0x10001439C, symSize: 0x18 }
  - { offsetInCU: 0x3A2A7, offset: 0x3A2A7, size: 0x8, addend: 0x0, symName: __ZN8EOFTokenD1Ev, symObjAddr: 0x13C7C, symBinAddr: 0x1000143B4, symSize: 0x2C }
  - { offsetInCU: 0x3A2D1, offset: 0x3A2D1, size: 0x8, addend: 0x0, symName: __ZN8EOFTokenD0Ev, symObjAddr: 0x13CA8, symBinAddr: 0x1000143E0, symSize: 0x58 }
  - { offsetInCU: 0x3A2FB, offset: 0x3A2FB, size: 0x8, addend: 0x0, symName: __ZN8EOFTokenD2Ev, symObjAddr: 0x13D00, symBinAddr: 0x100014438, symSize: 0x2C }
  - { offsetInCU: 0x3A325, offset: 0x3A325, size: 0x8, addend: 0x0, symName: __ZN15IdentifierTokenC2EiNSt3__112basic_stringIcNS0_11char_traitsIcEENS0_9allocatorIcEEEE, symObjAddr: 0x13D2C, symBinAddr: 0x100014464, symSize: 0x120 }
  - { offsetInCU: 0x3A36C, offset: 0x3A36C, size: 0x8, addend: 0x0, symName: __ZN15IdentifierToken7GetTypeEv, symObjAddr: 0x13E4C, symBinAddr: 0x100014584, symSize: 0x14 }
  - { offsetInCU: 0x3A392, offset: 0x3A392, size: 0x8, addend: 0x0, symName: __ZN15IdentifierToken8GetValueEv, symObjAddr: 0x13E60, symBinAddr: 0x100014598, symSize: 0x3C }
  - { offsetInCU: 0x3A3B8, offset: 0x3A3B8, size: 0x8, addend: 0x0, symName: __ZN15IdentifierToken9GetLineNoEv, symObjAddr: 0x13E9C, symBinAddr: 0x1000145D4, symSize: 0x18 }
  - { offsetInCU: 0x3A3DE, offset: 0x3A3DE, size: 0x8, addend: 0x0, symName: __ZN15IdentifierTokenD1Ev, symObjAddr: 0x13EB4, symBinAddr: 0x1000145EC, symSize: 0x2C }
  - { offsetInCU: 0x3A408, offset: 0x3A408, size: 0x8, addend: 0x0, symName: __ZN15IdentifierTokenD0Ev, symObjAddr: 0x13EE0, symBinAddr: 0x100014618, symSize: 0x58 }
  - { offsetInCU: 0x3A432, offset: 0x3A432, size: 0x8, addend: 0x0, symName: __ZN15IdentifierTokenD2Ev, symObjAddr: 0x13F38, symBinAddr: 0x100014670, symSize: 0x78 }
  - { offsetInCU: 0x3A45C, offset: 0x3A45C, size: 0x8, addend: 0x0, symName: __ZN13OperatorTokenC2EiNSt3__112basic_stringIcNS0_11char_traitsIcEENS0_9allocatorIcEEEE, symObjAddr: 0x13FB0, symBinAddr: 0x1000146E8, symSize: 0x120 }
  - { offsetInCU: 0x3A4A3, offset: 0x3A4A3, size: 0x8, addend: 0x0, symName: __ZN13OperatorToken7GetTypeEv, symObjAddr: 0x140D0, symBinAddr: 0x100014808, symSize: 0x14 }
  - { offsetInCU: 0x3A4C9, offset: 0x3A4C9, size: 0x8, addend: 0x0, symName: __ZN13OperatorToken8GetValueEv, symObjAddr: 0x140E4, symBinAddr: 0x10001481C, symSize: 0x3C }
  - { offsetInCU: 0x3A4EF, offset: 0x3A4EF, size: 0x8, addend: 0x0, symName: __ZN13OperatorToken9GetLineNoEv, symObjAddr: 0x14120, symBinAddr: 0x100014858, symSize: 0x18 }
  - { offsetInCU: 0x3A515, offset: 0x3A515, size: 0x8, addend: 0x0, symName: __ZN13OperatorTokenD1Ev, symObjAddr: 0x14138, symBinAddr: 0x100014870, symSize: 0x2C }
  - { offsetInCU: 0x3A53F, offset: 0x3A53F, size: 0x8, addend: 0x0, symName: __ZN13OperatorTokenD0Ev, symObjAddr: 0x14164, symBinAddr: 0x10001489C, symSize: 0x58 }
  - { offsetInCU: 0x3A569, offset: 0x3A569, size: 0x8, addend: 0x0, symName: __ZN13OperatorTokenD2Ev, symObjAddr: 0x141BC, symBinAddr: 0x1000148F4, symSize: 0x78 }
  - { offsetInCU: 0x3A593, offset: 0x3A593, size: 0x8, addend: 0x0, symName: __ZN11NumberTokenC2EiNSt3__112basic_stringIcNS0_11char_traitsIcEENS0_9allocatorIcEEEE, symObjAddr: 0x14234, symBinAddr: 0x10001496C, symSize: 0x120 }
  - { offsetInCU: 0x3A5DA, offset: 0x3A5DA, size: 0x8, addend: 0x0, symName: __ZN11NumberToken7GetTypeEv, symObjAddr: 0x14354, symBinAddr: 0x100014A8C, symSize: 0x14 }
  - { offsetInCU: 0x3A600, offset: 0x3A600, size: 0x8, addend: 0x0, symName: __ZN11NumberToken8GetValueEv, symObjAddr: 0x14368, symBinAddr: 0x100014AA0, symSize: 0x3C }
  - { offsetInCU: 0x3A626, offset: 0x3A626, size: 0x8, addend: 0x0, symName: __ZN11NumberToken9GetLineNoEv, symObjAddr: 0x143A4, symBinAddr: 0x100014ADC, symSize: 0x18 }
  - { offsetInCU: 0x3A64C, offset: 0x3A64C, size: 0x8, addend: 0x0, symName: __ZN11NumberTokenD1Ev, symObjAddr: 0x143BC, symBinAddr: 0x100014AF4, symSize: 0x2C }
  - { offsetInCU: 0x3A676, offset: 0x3A676, size: 0x8, addend: 0x0, symName: __ZN11NumberTokenD0Ev, symObjAddr: 0x143E8, symBinAddr: 0x100014B20, symSize: 0x58 }
  - { offsetInCU: 0x3A6A0, offset: 0x3A6A0, size: 0x8, addend: 0x0, symName: __ZN11NumberTokenD2Ev, symObjAddr: 0x14440, symBinAddr: 0x100014B78, symSize: 0x78 }
  - { offsetInCU: 0x3A6CA, offset: 0x3A6CA, size: 0x8, addend: 0x0, symName: __ZN11StringTokenC2EiNSt3__112basic_stringIcNS0_11char_traitsIcEENS0_9allocatorIcEEEE, symObjAddr: 0x144B8, symBinAddr: 0x100014BF0, symSize: 0x120 }
  - { offsetInCU: 0x3A711, offset: 0x3A711, size: 0x8, addend: 0x0, symName: __ZN11StringToken7GetTypeEv, symObjAddr: 0x145D8, symBinAddr: 0x100014D10, symSize: 0x14 }
  - { offsetInCU: 0x3A737, offset: 0x3A737, size: 0x8, addend: 0x0, symName: __ZN11StringToken8GetValueEv, symObjAddr: 0x145EC, symBinAddr: 0x100014D24, symSize: 0x3C }
  - { offsetInCU: 0x3A75D, offset: 0x3A75D, size: 0x8, addend: 0x0, symName: __ZN11StringToken9GetLineNoEv, symObjAddr: 0x14628, symBinAddr: 0x100014D60, symSize: 0x18 }
  - { offsetInCU: 0x3A783, offset: 0x3A783, size: 0x8, addend: 0x0, symName: __ZN11StringTokenD1Ev, symObjAddr: 0x14640, symBinAddr: 0x100014D78, symSize: 0x2C }
  - { offsetInCU: 0x3A7AD, offset: 0x3A7AD, size: 0x8, addend: 0x0, symName: __ZN11StringTokenD0Ev, symObjAddr: 0x1466C, symBinAddr: 0x100014DA4, symSize: 0x58 }
  - { offsetInCU: 0x3A7D7, offset: 0x3A7D7, size: 0x8, addend: 0x0, symName: __ZN11StringTokenD2Ev, symObjAddr: 0x146C4, symBinAddr: 0x100014DFC, symSize: 0x78 }
  - { offsetInCU: 0x3A801, offset: 0x3A801, size: 0x8, addend: 0x0, symName: __ZNKSt3__112basic_stringIcNS_11char_traitsIcEENS_9allocatorIcEEE4dataB8ue170006Ev, symObjAddr: 0x14884, symBinAddr: 0x100014FBC, symSize: 0x28 }
  - { offsetInCU: 0x3A827, offset: 0x3A827, size: 0x8, addend: 0x0, symName: __ZNKSt3__112basic_stringIcNS_11char_traitsIcEENS_9allocatorIcEEE9__is_longB8ue170006Ev, symObjAddr: 0x148AC, symBinAddr: 0x100014FE4, symSize: 0x74 }
  - { offsetInCU: 0x3A84D, offset: 0x3A84D, size: 0x8, addend: 0x0, symName: __ZNSt3__111char_traitsIcE7compareB8ue170006EPKcS3_m, symObjAddr: 0x14920, symBinAddr: 0x100015058, symSize: 0x64 }
  - { offsetInCU: 0x3A88C, offset: 0x3A88C, size: 0x8, addend: 0x0, symName: __ZNKSt3__112basic_stringIcNS_11char_traitsIcEENS_9allocatorIcEEE13__get_pointerB8ue170006Ev, symObjAddr: 0x14998, symBinAddr: 0x1000150D0, symSize: 0x54 }
  - { offsetInCU: 0x3A8B2, offset: 0x3A8B2, size: 0x8, addend: 0x0, symName: __ZNKSt3__112basic_stringIcNS_11char_traitsIcEENS_9allocatorIcEEE18__get_long_pointerB8ue170006Ev, symObjAddr: 0x149EC, symBinAddr: 0x100015124, symSize: 0x28 }
  - { offsetInCU: 0x3A8D8, offset: 0x3A8D8, size: 0x8, addend: 0x0, symName: __ZNKSt3__112basic_stringIcNS_11char_traitsIcEENS_9allocatorIcEEE19__get_short_pointerB8ue170006Ev, symObjAddr: 0x14A14, symBinAddr: 0x10001514C, symSize: 0x28 }
  - { offsetInCU: 0x3A8FE, offset: 0x3A8FE, size: 0x8, addend: 0x0, symName: __ZNKSt3__117__compressed_pairINS_12basic_stringIcNS_11char_traitsIcEENS_9allocatorIcEEE5__repES5_E5firstB8ue170006Ev, symObjAddr: 0x14A3C, symBinAddr: 0x100015174, symSize: 0x24 }
  - { offsetInCU: 0x3A924, offset: 0x3A924, size: 0x8, addend: 0x0, symName: __ZNKSt3__122__compressed_pair_elemINS_12basic_stringIcNS_11char_traitsIcEENS_9allocatorIcEEE5__repELi0ELb0EE5__getB8ue170006Ev, symObjAddr: 0x14A60, symBinAddr: 0x100015198, symSize: 0x14 }
  - { offsetInCU: 0x3A94A, offset: 0x3A94A, size: 0x8, addend: 0x0, symName: __ZNSt3__114pointer_traitsIPKcE10pointer_toB8ue170006ERS1_, symObjAddr: 0x14A74, symBinAddr: 0x1000151AC, symSize: 0x14 }
  - { offsetInCU: 0x3A96D, offset: 0x3A96D, size: 0x8, addend: 0x0, symName: __ZN14FloatNumberASTC2Edi, symObjAddr: 0x14AC8, symBinAddr: 0x100015200, symSize: 0xD4 }
  - { offsetInCU: 0x3A9B3, offset: 0x3A9B3, size: 0x8, addend: 0x0, symName: __ZN18AbstractSyntaxTreeC2Ev, symObjAddr: 0x14B9C, symBinAddr: 0x1000152D4, symSize: 0x24 }
  - { offsetInCU: 0x3A9DF, offset: 0x3A9DF, size: 0x8, addend: 0x0, symName: __ZN5ValueC1Edi, symObjAddr: 0x14BC0, symBinAddr: 0x1000152F8, symSize: 0x3C }
  - { offsetInCU: 0x3AA25, offset: 0x3AA25, size: 0x8, addend: 0x0, symName: __ZN18AbstractSyntaxTreeD2Ev, symObjAddr: 0x14BFC, symBinAddr: 0x100015334, symSize: 0x14 }
  - { offsetInCU: 0x3AA4F, offset: 0x3AA4F, size: 0x8, addend: 0x0, symName: __ZN18AbstractSyntaxTreeD1Ev, symObjAddr: 0x14C10, symBinAddr: 0x100015348, symSize: 0x14 }
  - { offsetInCU: 0x3AA79, offset: 0x3AA79, size: 0x8, addend: 0x0, symName: __ZN18AbstractSyntaxTreeD0Ev, symObjAddr: 0x14C24, symBinAddr: 0x10001535C, symSize: 0xC }
  - { offsetInCU: 0x3AAA3, offset: 0x3AAA3, size: 0x8, addend: 0x0, symName: __ZN5ValueC2Edi, symObjAddr: 0x14C30, symBinAddr: 0x100015368, symSize: 0x4C }
  - { offsetInCU: 0x3AAE9, offset: 0x3AAE9, size: 0x8, addend: 0x0, symName: __ZN5Value10ValueUnionC1Ev, symObjAddr: 0x14C7C, symBinAddr: 0x1000153B4, symSize: 0x2C }
  - { offsetInCU: 0x3AB13, offset: 0x3AB13, size: 0x8, addend: 0x0, symName: __ZN5Value10ValueUnionC2Ev, symObjAddr: 0x14CA8, symBinAddr: 0x1000153E0, symSize: 0x14 }
  - { offsetInCU: 0x3AB3D, offset: 0x3AB3D, size: 0x8, addend: 0x0, symName: __ZN9NumberASTC2Eli, symObjAddr: 0x14CBC, symBinAddr: 0x1000153F4, symSize: 0xCC }
  - { offsetInCU: 0x3AB83, offset: 0x3AB83, size: 0x8, addend: 0x0, symName: __ZN5ValueC1Eli, symObjAddr: 0x14D88, symBinAddr: 0x1000154C0, symSize: 0x3C }
  - { offsetInCU: 0x3ABC9, offset: 0x3ABC9, size: 0x8, addend: 0x0, symName: __ZN5ValueC2Eli, symObjAddr: 0x14DC4, symBinAddr: 0x1000154FC, symSize: 0x48 }
  - { offsetInCU: 0x3AC0F, offset: 0x3AC0F, size: 0x8, addend: 0x0, symName: __ZN13IdentifierASTC2ENSt3__112basic_stringIcNS0_11char_traitsIcEENS0_9allocatorIcEEEEi, symObjAddr: 0x14E0C, symBinAddr: 0x100015544, symSize: 0xC8 }
  - { offsetInCU: 0x3AC56, offset: 0x3AC56, size: 0x8, addend: 0x0, symName: __ZN15CallFunctionASTC2EP13IdentifierASTNSt3__16vectorIP18AbstractSyntaxTreeNS2_9allocatorIS5_EEEEi, symObjAddr: 0x14ED4, symBinAddr: 0x10001560C, symSize: 0x130 }
  - { offsetInCU: 0x3ACAB, offset: 0x3ACAB, size: 0x8, addend: 0x0, symName: __ZNSt3__16vectorIP18AbstractSyntaxTreeNS_9allocatorIS2_EEE6resizeEm, symObjAddr: 0x15004, symBinAddr: 0x10001573C, symSize: 0x94 }
  - { offsetInCU: 0x3ACF1, offset: 0x3ACF1, size: 0x8, addend: 0x0, symName: __ZNSt3__16vectorIP18AbstractSyntaxTreeNS_9allocatorIS2_EEE5beginB8ue170006Ev, symObjAddr: 0x150F8, symBinAddr: 0x100015830, symSize: 0x30 }
  - { offsetInCU: 0x3AD19, offset: 0x3AD19, size: 0x8, addend: 0x0, symName: __ZNSt3__16vectorIP18AbstractSyntaxTreeNS_9allocatorIS2_EEE3endB8ue170006Ev, symObjAddr: 0x15128, symBinAddr: 0x100015860, symSize: 0x30 }
  - { offsetInCU: 0x3AD41, offset: 0x3AD41, size: 0x8, addend: 0x0, symName: __ZNSt3__16vectorIP18AbstractSyntaxTreeNS_9allocatorIS2_EEE8__appendEm, symObjAddr: 0x15158, symBinAddr: 0x100015890, symSize: 0x110 }
  - { offsetInCU: 0x3AD9C, offset: 0x3AD9C, size: 0x8, addend: 0x0, symName: __ZNSt3__16vectorIP18AbstractSyntaxTreeNS_9allocatorIS2_EEE17__destruct_at_endB8ue170006EPS2_, symObjAddr: 0x15268, symBinAddr: 0x1000159A0, symSize: 0x4C }
  - { offsetInCU: 0x3ADE0, offset: 0x3ADE0, size: 0x8, addend: 0x0, symName: __ZNSt3__16vectorIP18AbstractSyntaxTreeNS_9allocatorIS2_EEE9__end_capB8ue170006Ev, symObjAddr: 0x152B4, symBinAddr: 0x1000159EC, symSize: 0x28 }
  - { offsetInCU: 0x3AE06, offset: 0x3AE06, size: 0x8, addend: 0x0, symName: __ZNSt3__16vectorIP18AbstractSyntaxTreeNS_9allocatorIS2_EEE18__construct_at_endEm, symObjAddr: 0x152DC, symBinAddr: 0x100015A14, symSize: 0xD0 }
  - { offsetInCU: 0x3AE79, offset: 0x3AE79, size: 0x8, addend: 0x0, symName: __ZNSt3__16vectorIP18AbstractSyntaxTreeNS_9allocatorIS2_EEE7__allocB8ue170006Ev, symObjAddr: 0x153AC, symBinAddr: 0x100015AE4, symSize: 0x28 }
  - { offsetInCU: 0x3AE9F, offset: 0x3AE9F, size: 0x8, addend: 0x0, symName: __ZNKSt3__16vectorIP18AbstractSyntaxTreeNS_9allocatorIS2_EEE11__recommendB8ue170006Em, symObjAddr: 0x153D4, symBinAddr: 0x100015B0C, symSize: 0xB4 }
  - { offsetInCU: 0x3AEF4, offset: 0x3AEF4, size: 0x8, addend: 0x0, symName: __ZNSt3__114__split_bufferIP18AbstractSyntaxTreeRNS_9allocatorIS2_EEEC1EmmS5_, symObjAddr: 0x15488, symBinAddr: 0x100015BC0, symSize: 0x44 }
  - { offsetInCU: 0x3AF4A, offset: 0x3AF4A, size: 0x8, addend: 0x0, symName: __ZNSt3__114__split_bufferIP18AbstractSyntaxTreeRNS_9allocatorIS2_EEE18__construct_at_endEm, symObjAddr: 0x154CC, symBinAddr: 0x100015C04, symSize: 0xBC }
  - { offsetInCU: 0x3AF8F, offset: 0x3AF8F, size: 0x8, addend: 0x0, symName: __ZNSt3__114__split_bufferIP18AbstractSyntaxTreeRNS_9allocatorIS2_EEED1Ev, symObjAddr: 0x15698, symBinAddr: 0x100015DD0, symSize: 0x2C }
  - { offsetInCU: 0x3AFBB, offset: 0x3AFBB, size: 0x8, addend: 0x0, symName: __ZNSt3__117__compressed_pairIPP18AbstractSyntaxTreeNS_9allocatorIS2_EEE5firstB8ue170006Ev, symObjAddr: 0x156C4, symBinAddr: 0x100015DFC, symSize: 0x24 }
  - { offsetInCU: 0x3AFE1, offset: 0x3AFE1, size: 0x8, addend: 0x0, symName: __ZNSt3__122__compressed_pair_elemIPP18AbstractSyntaxTreeLi0ELb0EE5__getB8ue170006Ev, symObjAddr: 0x156E8, symBinAddr: 0x100015E20, symSize: 0x14 }
  - { offsetInCU: 0x3B023, offset: 0x3B023, size: 0x8, addend: 0x0, symName: __ZNSt3__16vectorIP18AbstractSyntaxTreeNS_9allocatorIS2_EEE21_ConstructTransactionC1B8ue170006ERS5_m, symObjAddr: 0x156FC, symBinAddr: 0x100015E34, symSize: 0x3C }
  - { offsetInCU: 0x3B06B, offset: 0x3B06B, size: 0x8, addend: 0x0, symName: __ZNSt3__116allocator_traitsINS_9allocatorIP18AbstractSyntaxTreeEEE9constructB8ue170006IS3_JEvEEvRS4_PT_DpOT0_, symObjAddr: 0x15738, symBinAddr: 0x100015E70, symSize: 0x2C }
  - { offsetInCU: 0x3B0AD, offset: 0x3B0AD, size: 0x8, addend: 0x0, symName: __ZNSt3__16vectorIP18AbstractSyntaxTreeNS_9allocatorIS2_EEE21_ConstructTransactionD1B8ue170006Ev, symObjAddr: 0x15778, symBinAddr: 0x100015EB0, symSize: 0x2C }
  - { offsetInCU: 0x3B0D7, offset: 0x3B0D7, size: 0x8, addend: 0x0, symName: __ZNSt3__16vectorIP18AbstractSyntaxTreeNS_9allocatorIS2_EEE21_ConstructTransactionC2B8ue170006ERS5_m, symObjAddr: 0x157A4, symBinAddr: 0x100015EDC, symSize: 0x44 }
  - { offsetInCU: 0x3B11F, offset: 0x3B11F, size: 0x8, addend: 0x0, symName: __ZNSt3__19allocatorIP18AbstractSyntaxTreeE9constructB8ue170006IS2_JEEEvPT_DpOT0_, symObjAddr: 0x157E8, symBinAddr: 0x100015F20, symSize: 0x1C }
  - { offsetInCU: 0x3B161, offset: 0x3B161, size: 0x8, addend: 0x0, symName: __ZNSt3__16vectorIP18AbstractSyntaxTreeNS_9allocatorIS2_EEE21_ConstructTransactionD2B8ue170006Ev, symObjAddr: 0x15804, symBinAddr: 0x100015F3C, symSize: 0x20 }
  - { offsetInCU: 0x3B18B, offset: 0x3B18B, size: 0x8, addend: 0x0, symName: __ZNSt3__117__compressed_pairIPP18AbstractSyntaxTreeNS_9allocatorIS2_EEE6secondB8ue170006Ev, symObjAddr: 0x15824, symBinAddr: 0x100015F5C, symSize: 0x24 }
  - { offsetInCU: 0x3B1B1, offset: 0x3B1B1, size: 0x8, addend: 0x0, symName: __ZNSt3__122__compressed_pair_elemINS_9allocatorIP18AbstractSyntaxTreeEELi1ELb1EE5__getB8ue170006Ev, symObjAddr: 0x15848, symBinAddr: 0x100015F80, symSize: 0x14 }
  - { offsetInCU: 0x3B1D7, offset: 0x3B1D7, size: 0x8, addend: 0x0, symName: __ZNKSt3__16vectorIP18AbstractSyntaxTreeNS_9allocatorIS2_EEE8max_sizeEv, symObjAddr: 0x1585C, symBinAddr: 0x100015F94, symSize: 0x74 }
  - { offsetInCU: 0x3B1FF, offset: 0x3B1FF, size: 0x8, addend: 0x0, symName: __ZNKSt3__16vectorIP18AbstractSyntaxTreeNS_9allocatorIS2_EEE20__throw_length_errorB8ue170006Ev, symObjAddr: 0x158D0, symBinAddr: 0x100016008, symSize: 0x1C }
  - { offsetInCU: 0x3B225, offset: 0x3B225, size: 0x8, addend: 0x0, symName: __ZNKSt3__16vectorIP18AbstractSyntaxTreeNS_9allocatorIS2_EEE8capacityB8ue170006Ev, symObjAddr: 0x158EC, symBinAddr: 0x100016024, symSize: 0x40 }
  - { offsetInCU: 0x3B256, offset: 0x3B256, size: 0x8, addend: 0x0, symName: __ZNSt3__116allocator_traitsINS_9allocatorIP18AbstractSyntaxTreeEEE8max_sizeB8ue170006IS4_vEEmRKS4_, symObjAddr: 0x15984, symBinAddr: 0x1000160BC, symSize: 0x24 }
  - { offsetInCU: 0x3B284, offset: 0x3B284, size: 0x8, addend: 0x0, symName: __ZNKSt3__16vectorIP18AbstractSyntaxTreeNS_9allocatorIS2_EEE7__allocB8ue170006Ev, symObjAddr: 0x159A8, symBinAddr: 0x1000160E0, symSize: 0x28 }
  - { offsetInCU: 0x3B2AA, offset: 0x3B2AA, size: 0x8, addend: 0x0, symName: __ZNSt3__114numeric_limitsIlE3maxB8ue170006Ev, symObjAddr: 0x159D0, symBinAddr: 0x100016108, symSize: 0x14 }
  - { offsetInCU: 0x3B2C9, offset: 0x3B2C9, size: 0x8, addend: 0x0, symName: __ZNKSt3__16__lessIvvEclB8ue170006ImmEEbRKT_RKT0_, symObjAddr: 0x15A38, symBinAddr: 0x100016170, symSize: 0x34 }
  - { offsetInCU: 0x3B31D, offset: 0x3B31D, size: 0x8, addend: 0x0, symName: __ZNKSt3__19allocatorIP18AbstractSyntaxTreeE8max_sizeB8ue170006Ev, symObjAddr: 0x15A6C, symBinAddr: 0x1000161A4, symSize: 0x14 }
  - { offsetInCU: 0x3B343, offset: 0x3B343, size: 0x8, addend: 0x0, symName: __ZNKSt3__117__compressed_pairIPP18AbstractSyntaxTreeNS_9allocatorIS2_EEE6secondB8ue170006Ev, symObjAddr: 0x15A80, symBinAddr: 0x1000161B8, symSize: 0x24 }
  - { offsetInCU: 0x3B369, offset: 0x3B369, size: 0x8, addend: 0x0, symName: __ZNKSt3__122__compressed_pair_elemINS_9allocatorIP18AbstractSyntaxTreeEELi1ELb1EE5__getB8ue170006Ev, symObjAddr: 0x15AA4, symBinAddr: 0x1000161DC, symSize: 0x14 }
  - { offsetInCU: 0x3B38F, offset: 0x3B38F, size: 0x8, addend: 0x0, symName: __ZNSt3__123__libcpp_numeric_limitsIlLb1EE3maxB8ue170006Ev, symObjAddr: 0x15AB8, symBinAddr: 0x1000161F0, symSize: 0x8 }
  - { offsetInCU: 0x3B3A3, offset: 0x3B3A3, size: 0x8, addend: 0x0, symName: __ZNSt12length_errorC1B8ue170006EPKc, symObjAddr: 0x15B24, symBinAddr: 0x10001625C, symSize: 0x34 }
  - { offsetInCU: 0x3B3DB, offset: 0x3B3DB, size: 0x8, addend: 0x0, symName: __ZNSt12length_errorC2B8ue170006EPKc, symObjAddr: 0x15B58, symBinAddr: 0x100016290, symSize: 0x4C }
  - { offsetInCU: 0x3B413, offset: 0x3B413, size: 0x8, addend: 0x0, symName: __ZNKSt3__16vectorIP18AbstractSyntaxTreeNS_9allocatorIS2_EEE9__end_capB8ue170006Ev, symObjAddr: 0x15BA4, symBinAddr: 0x1000162DC, symSize: 0x28 }
  - { offsetInCU: 0x3B439, offset: 0x3B439, size: 0x8, addend: 0x0, symName: __ZNKSt3__117__compressed_pairIPP18AbstractSyntaxTreeNS_9allocatorIS2_EEE5firstB8ue170006Ev, symObjAddr: 0x15BCC, symBinAddr: 0x100016304, symSize: 0x24 }
  - { offsetInCU: 0x3B45F, offset: 0x3B45F, size: 0x8, addend: 0x0, symName: __ZNKSt3__122__compressed_pair_elemIPP18AbstractSyntaxTreeLi0ELb0EE5__getB8ue170006Ev, symObjAddr: 0x15BF0, symBinAddr: 0x100016328, symSize: 0x14 }
  - { offsetInCU: 0x3B485, offset: 0x3B485, size: 0x8, addend: 0x0, symName: __ZNSt3__114__split_bufferIP18AbstractSyntaxTreeRNS_9allocatorIS2_EEEC2EmmS5_, symObjAddr: 0x15C58, symBinAddr: 0x100016390, symSize: 0xD4 }
  - { offsetInCU: 0x3B4FF, offset: 0x3B4FF, size: 0x8, addend: 0x0, symName: __ZNSt3__117__compressed_pairIPP18AbstractSyntaxTreeRNS_9allocatorIS2_EEEC1B8ue170006IDnS6_EEOT_OT0_, symObjAddr: 0x15D2C, symBinAddr: 0x100016464, symSize: 0x3C }
  - { offsetInCU: 0x3B557, offset: 0x3B557, size: 0x8, addend: 0x0, symName: __ZNSt3__114__split_bufferIP18AbstractSyntaxTreeRNS_9allocatorIS2_EEE7__allocB8ue170006Ev, symObjAddr: 0x15DA8, symBinAddr: 0x1000164E0, symSize: 0x28 }
  - { offsetInCU: 0x3B57D, offset: 0x3B57D, size: 0x8, addend: 0x0, symName: __ZNSt3__114__split_bufferIP18AbstractSyntaxTreeRNS_9allocatorIS2_EEE9__end_capB8ue170006Ev, symObjAddr: 0x15DD0, symBinAddr: 0x100016508, symSize: 0x28 }
  - { offsetInCU: 0x3B5A3, offset: 0x3B5A3, size: 0x8, addend: 0x0, symName: __ZNSt3__117__compressed_pairIPP18AbstractSyntaxTreeRNS_9allocatorIS2_EEEC2B8ue170006IDnS6_EEOT_OT0_, symObjAddr: 0x15DF8, symBinAddr: 0x100016530, symSize: 0x48 }
  - { offsetInCU: 0x3B5FB, offset: 0x3B5FB, size: 0x8, addend: 0x0, symName: __ZNSt3__122__compressed_pair_elemIPP18AbstractSyntaxTreeLi0ELb0EEC2B8ue170006IDnvEEOT_, symObjAddr: 0x15E40, symBinAddr: 0x100016578, symSize: 0x1C }
  - { offsetInCU: 0x3B63D, offset: 0x3B63D, size: 0x8, addend: 0x0, symName: __ZNSt3__122__compressed_pair_elemIRNS_9allocatorIP18AbstractSyntaxTreeEELi1ELb0EEC2B8ue170006IS5_vEEOT_, symObjAddr: 0x15E5C, symBinAddr: 0x100016594, symSize: 0x20 }
  - { offsetInCU: 0x3B67F, offset: 0x3B67F, size: 0x8, addend: 0x0, symName: __ZNSt3__19allocatorIP18AbstractSyntaxTreeE8allocateB8ue170006Em, symObjAddr: 0x15E7C, symBinAddr: 0x1000165B4, symSize: 0x84 }
  - { offsetInCU: 0x3B6B3, offset: 0x3B6B3, size: 0x8, addend: 0x0, symName: __ZNSt3__117__compressed_pairIPP18AbstractSyntaxTreeRNS_9allocatorIS2_EEE6secondB8ue170006Ev, symObjAddr: 0x15F80, symBinAddr: 0x1000166B8, symSize: 0x28 }
  - { offsetInCU: 0x3B6D9, offset: 0x3B6D9, size: 0x8, addend: 0x0, symName: __ZNSt3__122__compressed_pair_elemIRNS_9allocatorIP18AbstractSyntaxTreeEELi1ELb0EE5__getB8ue170006Ev, symObjAddr: 0x15FA8, symBinAddr: 0x1000166E0, symSize: 0x18 }
  - { offsetInCU: 0x3B6FF, offset: 0x3B6FF, size: 0x8, addend: 0x0, symName: __ZNSt3__117__compressed_pairIPP18AbstractSyntaxTreeRNS_9allocatorIS2_EEE5firstB8ue170006Ev, symObjAddr: 0x15FC0, symBinAddr: 0x1000166F8, symSize: 0x24 }
  - { offsetInCU: 0x3B731, offset: 0x3B731, size: 0x8, addend: 0x0, symName: __ZNSt3__114__split_bufferIP18AbstractSyntaxTreeRNS_9allocatorIS2_EEE21_ConstructTransactionC1B8ue170006EPPS2_m, symObjAddr: 0x15FE4, symBinAddr: 0x10001671C, symSize: 0x3C }
  - { offsetInCU: 0x3B777, offset: 0x3B777, size: 0x8, addend: 0x0, symName: __ZNSt3__114__split_bufferIP18AbstractSyntaxTreeRNS_9allocatorIS2_EEE21_ConstructTransactionD1B8ue170006Ev, symObjAddr: 0x16020, symBinAddr: 0x100016758, symSize: 0x2C }
  - { offsetInCU: 0x3B7A1, offset: 0x3B7A1, size: 0x8, addend: 0x0, symName: __ZNSt3__114__split_bufferIP18AbstractSyntaxTreeRNS_9allocatorIS2_EEE21_ConstructTransactionC2B8ue170006EPPS2_m, symObjAddr: 0x1604C, symBinAddr: 0x100016784, symSize: 0x44 }
  - { offsetInCU: 0x3B7E7, offset: 0x3B7E7, size: 0x8, addend: 0x0, symName: __ZNSt3__114__split_bufferIP18AbstractSyntaxTreeRNS_9allocatorIS2_EEE21_ConstructTransactionD2B8ue170006Ev, symObjAddr: 0x16090, symBinAddr: 0x1000167C8, symSize: 0x20 }
  - { offsetInCU: 0x3B811, offset: 0x3B811, size: 0x8, addend: 0x0, symName: __ZNKSt3__16vectorIP18AbstractSyntaxTreeNS_9allocatorIS2_EEE17__annotate_deleteB8ue170006Ev, symObjAddr: 0x160B0, symBinAddr: 0x1000167E8, symSize: 0xB8 }
  - { offsetInCU: 0x3B837, offset: 0x3B837, size: 0x8, addend: 0x0, symName: __ZNSt3__116reverse_iteratorIPP18AbstractSyntaxTreeEC1B8ue170006ES3_, symObjAddr: 0x16250, symBinAddr: 0x100016988, symSize: 0x34 }
  - { offsetInCU: 0x3B86F, offset: 0x3B86F, size: 0x8, addend: 0x0, symName: __ZNKSt3__116reverse_iteratorIPP18AbstractSyntaxTreeE4baseB8ue170006Ev, symObjAddr: 0x16284, symBinAddr: 0x1000169BC, symSize: 0x18 }
  - { offsetInCU: 0x3B895, offset: 0x3B895, size: 0x8, addend: 0x0, symName: __ZNKSt3__16vectorIP18AbstractSyntaxTreeNS_9allocatorIS2_EEE14__annotate_newB8ue170006Em, symObjAddr: 0x162D8, symBinAddr: 0x100016A10, symSize: 0xAC }
  - { offsetInCU: 0x3B8CA, offset: 0x3B8CA, size: 0x8, addend: 0x0, symName: __ZNKSt3__16vectorIP18AbstractSyntaxTreeNS_9allocatorIS2_EEE31__annotate_contiguous_containerB8ue170006EPKvS7_S7_S7_, symObjAddr: 0x16384, symBinAddr: 0x100016ABC, symSize: 0x20 }
  - { offsetInCU: 0x3B91C, offset: 0x3B91C, size: 0x8, addend: 0x0, symName: __ZNKSt3__16vectorIP18AbstractSyntaxTreeNS_9allocatorIS2_EEE4dataB8ue170006Ev, symObjAddr: 0x163A4, symBinAddr: 0x100016ADC, symSize: 0x28 }
  - { offsetInCU: 0x3B942, offset: 0x3B942, size: 0x8, addend: 0x0, symName: __ZNKSt3__116reverse_iteratorIPP18AbstractSyntaxTreeEdeB8ue170006Ev, symObjAddr: 0x16464, symBinAddr: 0x100016B9C, symSize: 0x28 }
  - { offsetInCU: 0x3B976, offset: 0x3B976, size: 0x8, addend: 0x0, symName: __ZNSt3__116reverse_iteratorIPP18AbstractSyntaxTreeEppB8ue170006Ev, symObjAddr: 0x1648C, symBinAddr: 0x100016BC4, symSize: 0x20 }
  - { offsetInCU: 0x3B9A2, offset: 0x3B9A2, size: 0x8, addend: 0x0, symName: __ZNSt3__119__to_address_helperINS_16reverse_iteratorIPP18AbstractSyntaxTreeEEvE6__callB8ue170006ERKS5_, symObjAddr: 0x16524, symBinAddr: 0x100016C5C, symSize: 0x4C }
  - { offsetInCU: 0x3B9C5, offset: 0x3B9C5, size: 0x8, addend: 0x0, symName: __ZNKSt3__116reverse_iteratorIPP18AbstractSyntaxTreeEptB8ue170006Ev, symObjAddr: 0x16570, symBinAddr: 0x100016CA8, symSize: 0x24 }
  - { offsetInCU: 0x3BA13, offset: 0x3BA13, size: 0x8, addend: 0x0, symName: __ZNKSt3__111__move_loopINS_17_ClassicAlgPolicyEEclB8ue170006INS_16reverse_iteratorIPP18AbstractSyntaxTreeEES8_S8_EENS_4pairIT_T1_EESA_T0_SB_, symObjAddr: 0x1680C, symBinAddr: 0x100016F44, symSize: 0xA0 }
  - { offsetInCU: 0x3BA84, offset: 0x3BA84, size: 0x8, addend: 0x0, symName: __ZNSt3__18_IterOpsINS_17_ClassicAlgPolicyEE11__iter_moveB8ue170006IRNS_16reverse_iteratorIPP18AbstractSyntaxTreeEEEENS_9enable_ifIXsr12is_referenceIDTdeclsr3stdE7declvalIRT_EEEEE5valueEDTclsr3stdE4movedeclsr3stdE7declvalISC_EEEEE4typeEOSB_, symObjAddr: 0x16A0C, symBinAddr: 0x100017144, symSize: 0x28 }
  - { offsetInCU: 0x3BAB0, offset: 0x3BAB0, size: 0x8, addend: 0x0, symName: __ZNSt3__18_IterOpsINS_17_ClassicAlgPolicyEE25__validate_iter_referenceB8ue170006IRNS_16reverse_iteratorIPP18AbstractSyntaxTreeEEEEvv, symObjAddr: 0x16A34, symBinAddr: 0x10001716C, symSize: 0x4 }
  - { offsetInCU: 0x3BACE, offset: 0x3BACE, size: 0x8, addend: 0x0, symName: __ZNSt3__118__unwrap_iter_implINS_16reverse_iteratorIPP18AbstractSyntaxTreeEELb0EE8__unwrapB8ue170006ES5_, symObjAddr: 0x16A38, symBinAddr: 0x100017170, symSize: 0x24 }
  - { offsetInCU: 0x3BAF1, offset: 0x3BAF1, size: 0x8, addend: 0x0, symName: __ZNSt3__14pairINS_16reverse_iteratorIPP18AbstractSyntaxTreeEES5_EC1B8ue170006ERKS5_S8_, symObjAddr: 0x16A5C, symBinAddr: 0x100017194, symSize: 0x3C }
  - { offsetInCU: 0x3BB37, offset: 0x3BB37, size: 0x8, addend: 0x0, symName: __ZNSt3__14pairINS_16reverse_iteratorIPP18AbstractSyntaxTreeEES5_EC2B8ue170006ERKS5_S8_, symObjAddr: 0x16A98, symBinAddr: 0x1000171D0, symSize: 0x34 }
  - { offsetInCU: 0x3BB7D, offset: 0x3BB7D, size: 0x8, addend: 0x0, symName: __ZNSt3__118__unwrap_iter_implINS_16reverse_iteratorIPP18AbstractSyntaxTreeEELb0EE8__rewrapB8ue170006ES5_S5_, symObjAddr: 0x16ACC, symBinAddr: 0x100017204, symSize: 0x2C }
  - { offsetInCU: 0x3BBAA, offset: 0x3BBAA, size: 0x8, addend: 0x0, symName: __ZNSt3__116reverse_iteratorIPP18AbstractSyntaxTreeEC2B8ue170006ES3_, symObjAddr: 0x16AF8, symBinAddr: 0x100017230, symSize: 0x28 }
  - { offsetInCU: 0x3BBE2, offset: 0x3BBE2, size: 0x8, addend: 0x0, symName: __ZNSt3__114__split_bufferIP18AbstractSyntaxTreeRNS_9allocatorIS2_EEED2Ev, symObjAddr: 0x16B20, symBinAddr: 0x100017258, symSize: 0x80 }
  - { offsetInCU: 0x3BC0E, offset: 0x3BC0E, size: 0x8, addend: 0x0, symName: __ZNSt3__114__split_bufferIP18AbstractSyntaxTreeRNS_9allocatorIS2_EEE5clearB8ue170006Ev, symObjAddr: 0x16BA0, symBinAddr: 0x1000172D8, symSize: 0x28 }
  - { offsetInCU: 0x3BC34, offset: 0x3BC34, size: 0x8, addend: 0x0, symName: __ZNSt3__116allocator_traitsINS_9allocatorIP18AbstractSyntaxTreeEEE10deallocateB8ue170006ERS4_PS3_m, symObjAddr: 0x16BC8, symBinAddr: 0x100017300, symSize: 0x34 }
  - { offsetInCU: 0x3BC76, offset: 0x3BC76, size: 0x8, addend: 0x0, symName: __ZNKSt3__114__split_bufferIP18AbstractSyntaxTreeRNS_9allocatorIS2_EEE8capacityB8ue170006Ev, symObjAddr: 0x16BFC, symBinAddr: 0x100017334, symSize: 0x40 }
  - { offsetInCU: 0x3BC9C, offset: 0x3BC9C, size: 0x8, addend: 0x0, symName: __ZNSt3__114__split_bufferIP18AbstractSyntaxTreeRNS_9allocatorIS2_EEE17__destruct_at_endB8ue170006EPS2_, symObjAddr: 0x16C3C, symBinAddr: 0x100017374, symSize: 0x2C }
  - { offsetInCU: 0x3BCD0, offset: 0x3BCD0, size: 0x8, addend: 0x0, symName: __ZNSt3__114__split_bufferIP18AbstractSyntaxTreeRNS_9allocatorIS2_EEE17__destruct_at_endB8ue170006EPS2_NS_17integral_constantIbLb0EEE, symObjAddr: 0x16C68, symBinAddr: 0x1000173A0, symSize: 0x94 }
  - { offsetInCU: 0x3BD10, offset: 0x3BD10, size: 0x8, addend: 0x0, symName: __ZNSt3__116allocator_traitsINS_9allocatorIP18AbstractSyntaxTreeEEE7destroyB8ue170006IS3_vEEvRS4_PT_, symObjAddr: 0x16CFC, symBinAddr: 0x100017434, symSize: 0x2C }
  - { offsetInCU: 0x3BD4D, offset: 0x3BD4D, size: 0x8, addend: 0x0, symName: __ZNSt3__19allocatorIP18AbstractSyntaxTreeE7destroyB8ue170006EPS2_, symObjAddr: 0x16D28, symBinAddr: 0x100017460, symSize: 0x14 }
  - { offsetInCU: 0x3BD81, offset: 0x3BD81, size: 0x8, addend: 0x0, symName: __ZNSt3__19allocatorIP18AbstractSyntaxTreeE10deallocateB8ue170006EPS2_m, symObjAddr: 0x16D3C, symBinAddr: 0x100017474, symSize: 0x70 }
  - { offsetInCU: 0x3BDC3, offset: 0x3BDC3, size: 0x8, addend: 0x0, symName: __ZNKSt3__114__split_bufferIP18AbstractSyntaxTreeRNS_9allocatorIS2_EEE9__end_capB8ue170006Ev, symObjAddr: 0x16E28, symBinAddr: 0x100017560, symSize: 0x28 }
  - { offsetInCU: 0x3BDE9, offset: 0x3BDE9, size: 0x8, addend: 0x0, symName: __ZNKSt3__117__compressed_pairIPP18AbstractSyntaxTreeRNS_9allocatorIS2_EEE5firstB8ue170006Ev, symObjAddr: 0x16E50, symBinAddr: 0x100017588, symSize: 0x24 }
  - { offsetInCU: 0x3BE0F, offset: 0x3BE0F, size: 0x8, addend: 0x0, symName: __ZNSt3__16vectorIP18AbstractSyntaxTreeNS_9allocatorIS2_EEE22__base_destruct_at_endB8ue170006EPS2_, symObjAddr: 0x16E74, symBinAddr: 0x1000175AC, symSize: 0xA0 }
  - { offsetInCU: 0x3BE53, offset: 0x3BE53, size: 0x8, addend: 0x0, symName: __ZNKSt3__16vectorIP18AbstractSyntaxTreeNS_9allocatorIS2_EEE17__annotate_shrinkB8ue170006Em, symObjAddr: 0x16F14, symBinAddr: 0x10001764C, symSize: 0xB4 }
  - { offsetInCU: 0x3BEB0, offset: 0x3BEB0, size: 0x8, addend: 0x0, symName: __ZNKSt3__114__copy_trivialclB8ue170006IP18AbstractSyntaxTreeS3_Li0EEENS_4pairIPT_PT0_EES6_S6_S8_, symObjAddr: 0x171CC, symBinAddr: 0x100017904, symSize: 0x48 }
  - { offsetInCU: 0x3BF18, offset: 0x3BF18, size: 0x8, addend: 0x0, symName: __ZNSt3__14pairIPP18AbstractSyntaxTreeS3_EC1B8ue170006ERKS3_S6_, symObjAddr: 0x1734C, symBinAddr: 0x100017A84, symSize: 0x3C }
  - { offsetInCU: 0x3BF5E, offset: 0x3BF5E, size: 0x8, addend: 0x0, symName: __ZNSt3__14pairIPP18AbstractSyntaxTreeS3_EC2B8ue170006ERKS3_S6_, symObjAddr: 0x17388, symBinAddr: 0x100017AC0, symSize: 0x34 }
  - { offsetInCU: 0x3BFA4, offset: 0x3BFA4, size: 0x8, addend: 0x0, symName: __ZNSt3__118__unwrap_iter_implINS_11__wrap_iterIPP18AbstractSyntaxTreeEELb1EE8__unwrapB8ue170006ES5_, symObjAddr: 0x17514, symBinAddr: 0x100017C4C, symSize: 0x28 }
  - { offsetInCU: 0x3BFD3, offset: 0x3BFD3, size: 0x8, addend: 0x0, symName: __ZNSt3__119__to_address_helperINS_11__wrap_iterIPP18AbstractSyntaxTreeEEvE6__callB8ue170006ERKS5_, symObjAddr: 0x17560, symBinAddr: 0x100017C98, symSize: 0x30 }
  - { offsetInCU: 0x3BFF6, offset: 0x3BFF6, size: 0x8, addend: 0x0, symName: __ZNSt3__114pointer_traitsINS_11__wrap_iterIPP18AbstractSyntaxTreeEEE10to_addressB8ue170006ES5_, symObjAddr: 0x17590, symBinAddr: 0x100017CC8, symSize: 0x2C }
  - { offsetInCU: 0x3C019, offset: 0x3C019, size: 0x8, addend: 0x0, symName: __ZNKSt3__111__wrap_iterIPP18AbstractSyntaxTreeE4baseB8ue170006Ev, symObjAddr: 0x175BC, symBinAddr: 0x100017CF4, symSize: 0x18 }
  - { offsetInCU: 0x3C05C, offset: 0x3C05C, size: 0x8, addend: 0x0, symName: __ZNSt3__14pairINS_11__wrap_iterIPP18AbstractSyntaxTreeEES5_EC1B8ue170006ERKS5_S8_, symObjAddr: 0x175D4, symBinAddr: 0x100017D0C, symSize: 0x3C }
  - { offsetInCU: 0x3C0A2, offset: 0x3C0A2, size: 0x8, addend: 0x0, symName: __ZNSt3__14pairINS_11__wrap_iterIPP18AbstractSyntaxTreeEES5_EC2B8ue170006ERKS5_S8_, symObjAddr: 0x17610, symBinAddr: 0x100017D48, symSize: 0x34 }
  - { offsetInCU: 0x3C0E8, offset: 0x3C0E8, size: 0x8, addend: 0x0, symName: __ZNSt3__118__unwrap_iter_implINS_11__wrap_iterIPP18AbstractSyntaxTreeEELb1EE8__rewrapB8ue170006ES5_S4_, symObjAddr: 0x17644, symBinAddr: 0x100017D7C, symSize: 0x5C }
  - { offsetInCU: 0x3C119, offset: 0x3C119, size: 0x8, addend: 0x0, symName: __ZNKSt3__111__wrap_iterIPP18AbstractSyntaxTreeEplB8ue170006El, symObjAddr: 0x176A0, symBinAddr: 0x100017DD8, symSize: 0x3C }
  - { offsetInCU: 0x3C15B, offset: 0x3C15B, size: 0x8, addend: 0x0, symName: __ZNSt3__111__wrap_iterIPP18AbstractSyntaxTreeEpLB8ue170006El, symObjAddr: 0x176DC, symBinAddr: 0x100017E14, symSize: 0x28 }
  - { offsetInCU: 0x3C18F, offset: 0x3C18F, size: 0x8, addend: 0x0, symName: __ZNSt3__16vectorIP18AbstractSyntaxTreeNS_9allocatorIS2_EEE11__make_iterB8ue170006EPS2_, symObjAddr: 0x17704, symBinAddr: 0x100017E3C, symSize: 0x30 }
  - { offsetInCU: 0x3C1C4, offset: 0x3C1C4, size: 0x8, addend: 0x0, symName: __ZNSt3__111__wrap_iterIPP18AbstractSyntaxTreeEC1B8ue170006ES3_, symObjAddr: 0x17734, symBinAddr: 0x100017E6C, symSize: 0x34 }
  - { offsetInCU: 0x3C1FC, offset: 0x3C1FC, size: 0x8, addend: 0x0, symName: __ZNSt3__111__wrap_iterIPP18AbstractSyntaxTreeEC2B8ue170006ES3_, symObjAddr: 0x17768, symBinAddr: 0x100017EA0, symSize: 0x20 }
  - { offsetInCU: 0x3C234, offset: 0x3C234, size: 0x8, addend: 0x0, symName: __ZN13MakeObjectASTC2EP13IdentifierASTNSt3__16vectorIP18AbstractSyntaxTreeNS2_9allocatorIS5_EEEEi, symObjAddr: 0x17788, symBinAddr: 0x100017EC0, symSize: 0x130 }
  - { offsetInCU: 0x3C289, offset: 0x3C289, size: 0x8, addend: 0x0, symName: __ZN9StringASTC2ENSt3__112basic_stringIcNS0_11char_traitsIcEENS0_9allocatorIcEEEEi, symObjAddr: 0x178B8, symBinAddr: 0x100017FF0, symSize: 0xD0 }
  - { offsetInCU: 0x3C2D0, offset: 0x3C2D0, size: 0x8, addend: 0x0, symName: __ZN5ValueC1ERNSt3__112basic_stringIcNS0_11char_traitsIcEENS0_9allocatorIcEEEEi, symObjAddr: 0x17988, symBinAddr: 0x1000180C0, symSize: 0x3C }
  - { offsetInCU: 0x3C316, offset: 0x3C316, size: 0x8, addend: 0x0, symName: __ZN5ValueC2ERNSt3__112basic_stringIcNS0_11char_traitsIcEENS0_9allocatorIcEEEEi, symObjAddr: 0x179C4, symBinAddr: 0x1000180FC, symSize: 0xB8 }
  - { offsetInCU: 0x3C35C, offset: 0x3C35C, size: 0x8, addend: 0x0, symName: __ZN5Value10ValueUnionD1Ev, symObjAddr: 0x17A7C, symBinAddr: 0x1000181B4, symSize: 0x2C }
  - { offsetInCU: 0x3C386, offset: 0x3C386, size: 0x8, addend: 0x0, symName: __ZN5Value10ValueUnionD2Ev, symObjAddr: 0x17AA8, symBinAddr: 0x1000181E0, symSize: 0x14 }
  - { offsetInCU: 0x3C3B0, offset: 0x3C3B0, size: 0x8, addend: 0x0, symName: __ZN11NegativeASTC2EP18AbstractSyntaxTreei, symObjAddr: 0x17ABC, symBinAddr: 0x1000181F4, symSize: 0x5C }
  - { offsetInCU: 0x3C3F6, offset: 0x3C3F6, size: 0x8, addend: 0x0, symName: __ZN8PowerASTC2EP18AbstractSyntaxTreeS1_i, symObjAddr: 0x17B18, symBinAddr: 0x100018250, symSize: 0x68 }
  - { offsetInCU: 0x3C44A, offset: 0x3C44A, size: 0x8, addend: 0x0, symName: __ZN17MultiplicationASTC2EP18AbstractSyntaxTreeS1_i, symObjAddr: 0x17B80, symBinAddr: 0x1000182B8, symSize: 0x68 }
  - { offsetInCU: 0x3C49E, offset: 0x3C49E, size: 0x8, addend: 0x0, symName: __ZN11DivisionASTC2EP18AbstractSyntaxTreeS1_i, symObjAddr: 0x17BE8, symBinAddr: 0x100018320, symSize: 0x68 }
  - { offsetInCU: 0x3C4F2, offset: 0x3C4F2, size: 0x8, addend: 0x0, symName: __ZN6ModASTC2EP18AbstractSyntaxTreeS1_i, symObjAddr: 0x17C50, symBinAddr: 0x100018388, symSize: 0x68 }
  - { offsetInCU: 0x3C546, offset: 0x3C546, size: 0x8, addend: 0x0, symName: __ZN7PlusASTC2EP18AbstractSyntaxTreeS1_i, symObjAddr: 0x17CB8, symBinAddr: 0x1000183F0, symSize: 0x68 }
  - { offsetInCU: 0x3C59A, offset: 0x3C59A, size: 0x8, addend: 0x0, symName: __ZN8MinusASTC2EP18AbstractSyntaxTreeS1_i, symObjAddr: 0x17D20, symBinAddr: 0x100018458, symSize: 0x68 }
  - { offsetInCU: 0x3C5EE, offset: 0x3C5EE, size: 0x8, addend: 0x0, symName: __ZN8EqualASTC2EP18AbstractSyntaxTreeS1_i, symObjAddr: 0x17D88, symBinAddr: 0x1000184C0, symSize: 0x68 }
  - { offsetInCU: 0x3C642, offset: 0x3C642, size: 0x8, addend: 0x0, symName: __ZN11MoreThanASTC2EP18AbstractSyntaxTreeS1_i, symObjAddr: 0x17DF0, symBinAddr: 0x100018528, symSize: 0x68 }
  - { offsetInCU: 0x3C696, offset: 0x3C696, size: 0x8, addend: 0x0, symName: __ZN11LessThanASTC2EP18AbstractSyntaxTreeS1_i, symObjAddr: 0x17E58, symBinAddr: 0x100018590, symSize: 0x68 }
  - { offsetInCU: 0x3C6EA, offset: 0x3C6EA, size: 0x8, addend: 0x0, symName: __ZN18MoreThanOrEqualASTC2EP18AbstractSyntaxTreeS1_i, symObjAddr: 0x17EC0, symBinAddr: 0x1000185F8, symSize: 0x68 }
  - { offsetInCU: 0x3C73E, offset: 0x3C73E, size: 0x8, addend: 0x0, symName: __ZN18LessThanOrEqualASTC2EP18AbstractSyntaxTreeS1_i, symObjAddr: 0x17F28, symBinAddr: 0x100018660, symSize: 0x68 }
  - { offsetInCU: 0x3C792, offset: 0x3C792, size: 0x8, addend: 0x0, symName: __ZN6AndASTC2EP18AbstractSyntaxTreeS1_i, symObjAddr: 0x17F90, symBinAddr: 0x1000186C8, symSize: 0x68 }
  - { offsetInCU: 0x3C7E6, offset: 0x3C7E6, size: 0x8, addend: 0x0, symName: __ZN5OrASTC2EP18AbstractSyntaxTreeS1_i, symObjAddr: 0x17FF8, symBinAddr: 0x100018730, symSize: 0x68 }
  - { offsetInCU: 0x3C83A, offset: 0x3C83A, size: 0x8, addend: 0x0, symName: __ZN13AssignmentASTC2EP18AbstractSyntaxTreeS1_i, symObjAddr: 0x18060, symBinAddr: 0x100018798, symSize: 0x68 }
  - { offsetInCU: 0x3C88E, offset: 0x3C88E, size: 0x8, addend: 0x0, symName: __ZN14DeclarationASTC2ENSt3__112basic_stringIcNS0_11char_traitsIcEENS0_9allocatorIcEEEEP13IdentifierASTP18AbstractSyntaxTreei, symObjAddr: 0x180C8, symBinAddr: 0x100018800, symSize: 0xE0 }
  - { offsetInCU: 0x3C8F1, offset: 0x3C8F1, size: 0x8, addend: 0x0, symName: __ZN11ConstantASTC2ENSt3__112basic_stringIcNS0_11char_traitsIcEENS0_9allocatorIcEEEEP13IdentifierASTP18AbstractSyntaxTreei, symObjAddr: 0x181A8, symBinAddr: 0x1000188E0, symSize: 0xE0 }
  - { offsetInCU: 0x3C954, offset: 0x3C954, size: 0x8, addend: 0x0, symName: __ZN10ArgmentASTC2ENSt3__112basic_stringIcNS0_11char_traitsIcEENS0_9allocatorIcEEEEP13IdentifierASTi, symObjAddr: 0x18288, symBinAddr: 0x1000189C0, symSize: 0xCC }
  - { offsetInCU: 0x3C9A9, offset: 0x3C9A9, size: 0x8, addend: 0x0, symName: __ZN21DefVirtualFunctionASTC2ENSt3__112basic_stringIcNS0_11char_traitsIcEENS0_9allocatorIcEEEEP13IdentifierASTNS0_6vectorIP10ArgmentASTNS4_ISB_EEEEi, symObjAddr: 0x18354, symBinAddr: 0x100018A8C, symSize: 0x180 }
  - { offsetInCU: 0x3CA0D, offset: 0x3CA0D, size: 0x8, addend: 0x0, symName: __ZNSt3__16vectorIP10ArgmentASTNS_9allocatorIS2_EEE6resizeEm, symObjAddr: 0x184D4, symBinAddr: 0x100018C0C, symSize: 0x94 }
  - { offsetInCU: 0x3CA53, offset: 0x3CA53, size: 0x8, addend: 0x0, symName: __ZNSt3__16vectorIP10ArgmentASTNS_9allocatorIS2_EEE5beginB8ue170006Ev, symObjAddr: 0x185C8, symBinAddr: 0x100018D00, symSize: 0x30 }
  - { offsetInCU: 0x3CA7B, offset: 0x3CA7B, size: 0x8, addend: 0x0, symName: __ZNSt3__16vectorIP10ArgmentASTNS_9allocatorIS2_EEE3endB8ue170006Ev, symObjAddr: 0x185F8, symBinAddr: 0x100018D30, symSize: 0x30 }
  - { offsetInCU: 0x3CAA3, offset: 0x3CAA3, size: 0x8, addend: 0x0, symName: __ZNSt3__16vectorIP10ArgmentASTNS_9allocatorIS2_EEE8__appendEm, symObjAddr: 0x18628, symBinAddr: 0x100018D60, symSize: 0x110 }
  - { offsetInCU: 0x3CAFE, offset: 0x3CAFE, size: 0x8, addend: 0x0, symName: __ZNSt3__16vectorIP10ArgmentASTNS_9allocatorIS2_EEE17__destruct_at_endB8ue170006EPS2_, symObjAddr: 0x18738, symBinAddr: 0x100018E70, symSize: 0x4C }
  - { offsetInCU: 0x3CB42, offset: 0x3CB42, size: 0x8, addend: 0x0, symName: __ZNSt3__16vectorIP10ArgmentASTNS_9allocatorIS2_EEE9__end_capB8ue170006Ev, symObjAddr: 0x18784, symBinAddr: 0x100018EBC, symSize: 0x28 }
  - { offsetInCU: 0x3CB68, offset: 0x3CB68, size: 0x8, addend: 0x0, symName: __ZNSt3__16vectorIP10ArgmentASTNS_9allocatorIS2_EEE18__construct_at_endEm, symObjAddr: 0x187AC, symBinAddr: 0x100018EE4, symSize: 0xD0 }
  - { offsetInCU: 0x3CBDB, offset: 0x3CBDB, size: 0x8, addend: 0x0, symName: __ZNSt3__16vectorIP10ArgmentASTNS_9allocatorIS2_EEE7__allocB8ue170006Ev, symObjAddr: 0x1887C, symBinAddr: 0x100018FB4, symSize: 0x28 }
  - { offsetInCU: 0x3CC01, offset: 0x3CC01, size: 0x8, addend: 0x0, symName: __ZNKSt3__16vectorIP10ArgmentASTNS_9allocatorIS2_EEE11__recommendB8ue170006Em, symObjAddr: 0x188A4, symBinAddr: 0x100018FDC, symSize: 0xB4 }
  - { offsetInCU: 0x3CC56, offset: 0x3CC56, size: 0x8, addend: 0x0, symName: __ZNSt3__114__split_bufferIP10ArgmentASTRNS_9allocatorIS2_EEEC1EmmS5_, symObjAddr: 0x18958, symBinAddr: 0x100019090, symSize: 0x44 }
  - { offsetInCU: 0x3CCAC, offset: 0x3CCAC, size: 0x8, addend: 0x0, symName: __ZNSt3__114__split_bufferIP10ArgmentASTRNS_9allocatorIS2_EEE18__construct_at_endEm, symObjAddr: 0x1899C, symBinAddr: 0x1000190D4, symSize: 0xBC }
  - { offsetInCU: 0x3CCF1, offset: 0x3CCF1, size: 0x8, addend: 0x0, symName: __ZNSt3__114__split_bufferIP10ArgmentASTRNS_9allocatorIS2_EEED1Ev, symObjAddr: 0x18B68, symBinAddr: 0x1000192A0, symSize: 0x2C }
  - { offsetInCU: 0x3CD1D, offset: 0x3CD1D, size: 0x8, addend: 0x0, symName: __ZNSt3__117__compressed_pairIPP10ArgmentASTNS_9allocatorIS2_EEE5firstB8ue170006Ev, symObjAddr: 0x18B94, symBinAddr: 0x1000192CC, symSize: 0x24 }
  - { offsetInCU: 0x3CD43, offset: 0x3CD43, size: 0x8, addend: 0x0, symName: __ZNSt3__122__compressed_pair_elemIPP10ArgmentASTLi0ELb0EE5__getB8ue170006Ev, symObjAddr: 0x18BB8, symBinAddr: 0x1000192F0, symSize: 0x14 }
  - { offsetInCU: 0x3CD85, offset: 0x3CD85, size: 0x8, addend: 0x0, symName: __ZNSt3__16vectorIP10ArgmentASTNS_9allocatorIS2_EEE21_ConstructTransactionC1B8ue170006ERS5_m, symObjAddr: 0x18BCC, symBinAddr: 0x100019304, symSize: 0x3C }
  - { offsetInCU: 0x3CDCD, offset: 0x3CDCD, size: 0x8, addend: 0x0, symName: __ZNSt3__116allocator_traitsINS_9allocatorIP10ArgmentASTEEE9constructB8ue170006IS3_JEvEEvRS4_PT_DpOT0_, symObjAddr: 0x18C08, symBinAddr: 0x100019340, symSize: 0x2C }
  - { offsetInCU: 0x3CE0F, offset: 0x3CE0F, size: 0x8, addend: 0x0, symName: __ZNSt3__16vectorIP10ArgmentASTNS_9allocatorIS2_EEE21_ConstructTransactionD1B8ue170006Ev, symObjAddr: 0x18C48, symBinAddr: 0x100019380, symSize: 0x2C }
  - { offsetInCU: 0x3CE39, offset: 0x3CE39, size: 0x8, addend: 0x0, symName: __ZNSt3__16vectorIP10ArgmentASTNS_9allocatorIS2_EEE21_ConstructTransactionC2B8ue170006ERS5_m, symObjAddr: 0x18C74, symBinAddr: 0x1000193AC, symSize: 0x44 }
  - { offsetInCU: 0x3CE81, offset: 0x3CE81, size: 0x8, addend: 0x0, symName: __ZNSt3__19allocatorIP10ArgmentASTE9constructB8ue170006IS2_JEEEvPT_DpOT0_, symObjAddr: 0x18CB8, symBinAddr: 0x1000193F0, symSize: 0x1C }
  - { offsetInCU: 0x3CEC3, offset: 0x3CEC3, size: 0x8, addend: 0x0, symName: __ZNSt3__16vectorIP10ArgmentASTNS_9allocatorIS2_EEE21_ConstructTransactionD2B8ue170006Ev, symObjAddr: 0x18CD4, symBinAddr: 0x10001940C, symSize: 0x20 }
  - { offsetInCU: 0x3CEED, offset: 0x3CEED, size: 0x8, addend: 0x0, symName: __ZNSt3__117__compressed_pairIPP10ArgmentASTNS_9allocatorIS2_EEE6secondB8ue170006Ev, symObjAddr: 0x18CF4, symBinAddr: 0x10001942C, symSize: 0x24 }
  - { offsetInCU: 0x3CF13, offset: 0x3CF13, size: 0x8, addend: 0x0, symName: __ZNSt3__122__compressed_pair_elemINS_9allocatorIP10ArgmentASTEELi1ELb1EE5__getB8ue170006Ev, symObjAddr: 0x18D18, symBinAddr: 0x100019450, symSize: 0x14 }
  - { offsetInCU: 0x3CF39, offset: 0x3CF39, size: 0x8, addend: 0x0, symName: __ZNKSt3__16vectorIP10ArgmentASTNS_9allocatorIS2_EEE8max_sizeEv, symObjAddr: 0x18D2C, symBinAddr: 0x100019464, symSize: 0x74 }
  - { offsetInCU: 0x3CF61, offset: 0x3CF61, size: 0x8, addend: 0x0, symName: __ZNKSt3__16vectorIP10ArgmentASTNS_9allocatorIS2_EEE20__throw_length_errorB8ue170006Ev, symObjAddr: 0x18DA0, symBinAddr: 0x1000194D8, symSize: 0x1C }
  - { offsetInCU: 0x3CF87, offset: 0x3CF87, size: 0x8, addend: 0x0, symName: __ZNKSt3__16vectorIP10ArgmentASTNS_9allocatorIS2_EEE8capacityB8ue170006Ev, symObjAddr: 0x18DBC, symBinAddr: 0x1000194F4, symSize: 0x40 }
  - { offsetInCU: 0x3CFB8, offset: 0x3CFB8, size: 0x8, addend: 0x0, symName: __ZNSt3__116allocator_traitsINS_9allocatorIP10ArgmentASTEEE8max_sizeB8ue170006IS4_vEEmRKS4_, symObjAddr: 0x18DFC, symBinAddr: 0x100019534, symSize: 0x24 }
  - { offsetInCU: 0x3CFE6, offset: 0x3CFE6, size: 0x8, addend: 0x0, symName: __ZNKSt3__16vectorIP10ArgmentASTNS_9allocatorIS2_EEE7__allocB8ue170006Ev, symObjAddr: 0x18E20, symBinAddr: 0x100019558, symSize: 0x28 }
  - { offsetInCU: 0x3D00C, offset: 0x3D00C, size: 0x8, addend: 0x0, symName: __ZNKSt3__19allocatorIP10ArgmentASTE8max_sizeB8ue170006Ev, symObjAddr: 0x18E48, symBinAddr: 0x100019580, symSize: 0x14 }
  - { offsetInCU: 0x3D032, offset: 0x3D032, size: 0x8, addend: 0x0, symName: __ZNKSt3__117__compressed_pairIPP10ArgmentASTNS_9allocatorIS2_EEE6secondB8ue170006Ev, symObjAddr: 0x18E5C, symBinAddr: 0x100019594, symSize: 0x24 }
  - { offsetInCU: 0x3D058, offset: 0x3D058, size: 0x8, addend: 0x0, symName: __ZNKSt3__122__compressed_pair_elemINS_9allocatorIP10ArgmentASTEELi1ELb1EE5__getB8ue170006Ev, symObjAddr: 0x18E80, symBinAddr: 0x1000195B8, symSize: 0x14 }
  - { offsetInCU: 0x3D07E, offset: 0x3D07E, size: 0x8, addend: 0x0, symName: __ZNKSt3__16vectorIP10ArgmentASTNS_9allocatorIS2_EEE9__end_capB8ue170006Ev, symObjAddr: 0x18E94, symBinAddr: 0x1000195CC, symSize: 0x28 }
  - { offsetInCU: 0x3D0A4, offset: 0x3D0A4, size: 0x8, addend: 0x0, symName: __ZNKSt3__117__compressed_pairIPP10ArgmentASTNS_9allocatorIS2_EEE5firstB8ue170006Ev, symObjAddr: 0x18EBC, symBinAddr: 0x1000195F4, symSize: 0x24 }
  - { offsetInCU: 0x3D0CA, offset: 0x3D0CA, size: 0x8, addend: 0x0, symName: __ZNKSt3__122__compressed_pair_elemIPP10ArgmentASTLi0ELb0EE5__getB8ue170006Ev, symObjAddr: 0x18EE0, symBinAddr: 0x100019618, symSize: 0x14 }
  - { offsetInCU: 0x3D0F0, offset: 0x3D0F0, size: 0x8, addend: 0x0, symName: __ZNSt3__114__split_bufferIP10ArgmentASTRNS_9allocatorIS2_EEEC2EmmS5_, symObjAddr: 0x18EF4, symBinAddr: 0x10001962C, symSize: 0xD4 }
  - { offsetInCU: 0x3D164, offset: 0x3D164, size: 0x8, addend: 0x0, symName: __ZNSt3__117__compressed_pairIPP10ArgmentASTRNS_9allocatorIS2_EEEC1B8ue170006IDnS6_EEOT_OT0_, symObjAddr: 0x18FC8, symBinAddr: 0x100019700, symSize: 0x3C }
  - { offsetInCU: 0x3D1BC, offset: 0x3D1BC, size: 0x8, addend: 0x0, symName: __ZNSt3__114__split_bufferIP10ArgmentASTRNS_9allocatorIS2_EEE7__allocB8ue170006Ev, symObjAddr: 0x19044, symBinAddr: 0x10001977C, symSize: 0x28 }
  - { offsetInCU: 0x3D1E2, offset: 0x3D1E2, size: 0x8, addend: 0x0, symName: __ZNSt3__114__split_bufferIP10ArgmentASTRNS_9allocatorIS2_EEE9__end_capB8ue170006Ev, symObjAddr: 0x1906C, symBinAddr: 0x1000197A4, symSize: 0x28 }
  - { offsetInCU: 0x3D208, offset: 0x3D208, size: 0x8, addend: 0x0, symName: __ZNSt3__117__compressed_pairIPP10ArgmentASTRNS_9allocatorIS2_EEEC2B8ue170006IDnS6_EEOT_OT0_, symObjAddr: 0x19094, symBinAddr: 0x1000197CC, symSize: 0x48 }
  - { offsetInCU: 0x3D260, offset: 0x3D260, size: 0x8, addend: 0x0, symName: __ZNSt3__122__compressed_pair_elemIPP10ArgmentASTLi0ELb0EEC2B8ue170006IDnvEEOT_, symObjAddr: 0x190DC, symBinAddr: 0x100019814, symSize: 0x1C }
  - { offsetInCU: 0x3D2A2, offset: 0x3D2A2, size: 0x8, addend: 0x0, symName: __ZNSt3__122__compressed_pair_elemIRNS_9allocatorIP10ArgmentASTEELi1ELb0EEC2B8ue170006IS5_vEEOT_, symObjAddr: 0x190F8, symBinAddr: 0x100019830, symSize: 0x20 }
  - { offsetInCU: 0x3D2E4, offset: 0x3D2E4, size: 0x8, addend: 0x0, symName: __ZNSt3__19allocatorIP10ArgmentASTE8allocateB8ue170006Em, symObjAddr: 0x19118, symBinAddr: 0x100019850, symSize: 0x84 }
  - { offsetInCU: 0x3D318, offset: 0x3D318, size: 0x8, addend: 0x0, symName: __ZNSt3__117__compressed_pairIPP10ArgmentASTRNS_9allocatorIS2_EEE6secondB8ue170006Ev, symObjAddr: 0x1919C, symBinAddr: 0x1000198D4, symSize: 0x28 }
  - { offsetInCU: 0x3D33E, offset: 0x3D33E, size: 0x8, addend: 0x0, symName: __ZNSt3__122__compressed_pair_elemIRNS_9allocatorIP10ArgmentASTEELi1ELb0EE5__getB8ue170006Ev, symObjAddr: 0x191C4, symBinAddr: 0x1000198FC, symSize: 0x18 }
  - { offsetInCU: 0x3D364, offset: 0x3D364, size: 0x8, addend: 0x0, symName: __ZNSt3__117__compressed_pairIPP10ArgmentASTRNS_9allocatorIS2_EEE5firstB8ue170006Ev, symObjAddr: 0x191DC, symBinAddr: 0x100019914, symSize: 0x24 }
  - { offsetInCU: 0x3D396, offset: 0x3D396, size: 0x8, addend: 0x0, symName: __ZNSt3__114__split_bufferIP10ArgmentASTRNS_9allocatorIS2_EEE21_ConstructTransactionC1B8ue170006EPPS2_m, symObjAddr: 0x19200, symBinAddr: 0x100019938, symSize: 0x3C }
  - { offsetInCU: 0x3D3DC, offset: 0x3D3DC, size: 0x8, addend: 0x0, symName: __ZNSt3__114__split_bufferIP10ArgmentASTRNS_9allocatorIS2_EEE21_ConstructTransactionD1B8ue170006Ev, symObjAddr: 0x1923C, symBinAddr: 0x100019974, symSize: 0x2C }
  - { offsetInCU: 0x3D406, offset: 0x3D406, size: 0x8, addend: 0x0, symName: __ZNSt3__114__split_bufferIP10ArgmentASTRNS_9allocatorIS2_EEE21_ConstructTransactionC2B8ue170006EPPS2_m, symObjAddr: 0x19268, symBinAddr: 0x1000199A0, symSize: 0x44 }
  - { offsetInCU: 0x3D44C, offset: 0x3D44C, size: 0x8, addend: 0x0, symName: __ZNSt3__114__split_bufferIP10ArgmentASTRNS_9allocatorIS2_EEE21_ConstructTransactionD2B8ue170006Ev, symObjAddr: 0x192AC, symBinAddr: 0x1000199E4, symSize: 0x20 }
  - { offsetInCU: 0x3D476, offset: 0x3D476, size: 0x8, addend: 0x0, symName: __ZNKSt3__16vectorIP10ArgmentASTNS_9allocatorIS2_EEE17__annotate_deleteB8ue170006Ev, symObjAddr: 0x192CC, symBinAddr: 0x100019A04, symSize: 0xB8 }
  - { offsetInCU: 0x3D49C, offset: 0x3D49C, size: 0x8, addend: 0x0, symName: __ZNSt3__116reverse_iteratorIPP10ArgmentASTEC1B8ue170006ES3_, symObjAddr: 0x1946C, symBinAddr: 0x100019BA4, symSize: 0x34 }
  - { offsetInCU: 0x3D4D4, offset: 0x3D4D4, size: 0x8, addend: 0x0, symName: __ZNKSt3__116reverse_iteratorIPP10ArgmentASTE4baseB8ue170006Ev, symObjAddr: 0x194A0, symBinAddr: 0x100019BD8, symSize: 0x18 }
  - { offsetInCU: 0x3D4FA, offset: 0x3D4FA, size: 0x8, addend: 0x0, symName: __ZNKSt3__16vectorIP10ArgmentASTNS_9allocatorIS2_EEE14__annotate_newB8ue170006Em, symObjAddr: 0x194F4, symBinAddr: 0x100019C2C, symSize: 0xAC }
  - { offsetInCU: 0x3D52F, offset: 0x3D52F, size: 0x8, addend: 0x0, symName: __ZNKSt3__16vectorIP10ArgmentASTNS_9allocatorIS2_EEE31__annotate_contiguous_containerB8ue170006EPKvS7_S7_S7_, symObjAddr: 0x195A0, symBinAddr: 0x100019CD8, symSize: 0x20 }
  - { offsetInCU: 0x3D581, offset: 0x3D581, size: 0x8, addend: 0x0, symName: __ZNKSt3__16vectorIP10ArgmentASTNS_9allocatorIS2_EEE4dataB8ue170006Ev, symObjAddr: 0x195C0, symBinAddr: 0x100019CF8, symSize: 0x28 }
  - { offsetInCU: 0x3D5A7, offset: 0x3D5A7, size: 0x8, addend: 0x0, symName: __ZNKSt3__116reverse_iteratorIPP10ArgmentASTEdeB8ue170006Ev, symObjAddr: 0x19680, symBinAddr: 0x100019DB8, symSize: 0x28 }
  - { offsetInCU: 0x3D5DB, offset: 0x3D5DB, size: 0x8, addend: 0x0, symName: __ZNSt3__116reverse_iteratorIPP10ArgmentASTEppB8ue170006Ev, symObjAddr: 0x196A8, symBinAddr: 0x100019DE0, symSize: 0x20 }
  - { offsetInCU: 0x3D607, offset: 0x3D607, size: 0x8, addend: 0x0, symName: __ZNSt3__119__to_address_helperINS_16reverse_iteratorIPP10ArgmentASTEEvE6__callB8ue170006ERKS5_, symObjAddr: 0x19740, symBinAddr: 0x100019E78, symSize: 0x4C }
  - { offsetInCU: 0x3D62A, offset: 0x3D62A, size: 0x8, addend: 0x0, symName: __ZNKSt3__116reverse_iteratorIPP10ArgmentASTEptB8ue170006Ev, symObjAddr: 0x1978C, symBinAddr: 0x100019EC4, symSize: 0x24 }
  - { offsetInCU: 0x3D66D, offset: 0x3D66D, size: 0x8, addend: 0x0, symName: __ZNKSt3__111__move_loopINS_17_ClassicAlgPolicyEEclB8ue170006INS_16reverse_iteratorIPP10ArgmentASTEES8_S8_EENS_4pairIT_T1_EESA_T0_SB_, symObjAddr: 0x19A28, symBinAddr: 0x10001A160, symSize: 0xA0 }
  - { offsetInCU: 0x3D6DE, offset: 0x3D6DE, size: 0x8, addend: 0x0, symName: __ZNSt3__18_IterOpsINS_17_ClassicAlgPolicyEE11__iter_moveB8ue170006IRNS_16reverse_iteratorIPP10ArgmentASTEEEENS_9enable_ifIXsr12is_referenceIDTdeclsr3stdE7declvalIRT_EEEEE5valueEDTclsr3stdE4movedeclsr3stdE7declvalISC_EEEEE4typeEOSB_, symObjAddr: 0x19C28, symBinAddr: 0x10001A360, symSize: 0x28 }
  - { offsetInCU: 0x3D70A, offset: 0x3D70A, size: 0x8, addend: 0x0, symName: __ZNSt3__18_IterOpsINS_17_ClassicAlgPolicyEE25__validate_iter_referenceB8ue170006IRNS_16reverse_iteratorIPP10ArgmentASTEEEEvv, symObjAddr: 0x19C50, symBinAddr: 0x10001A388, symSize: 0x4 }
  - { offsetInCU: 0x3D728, offset: 0x3D728, size: 0x8, addend: 0x0, symName: __ZNSt3__118__unwrap_iter_implINS_16reverse_iteratorIPP10ArgmentASTEELb0EE8__unwrapB8ue170006ES5_, symObjAddr: 0x19C54, symBinAddr: 0x10001A38C, symSize: 0x24 }
  - { offsetInCU: 0x3D74B, offset: 0x3D74B, size: 0x8, addend: 0x0, symName: __ZNSt3__14pairINS_16reverse_iteratorIPP10ArgmentASTEES5_EC1B8ue170006ERKS5_S8_, symObjAddr: 0x19C78, symBinAddr: 0x10001A3B0, symSize: 0x3C }
  - { offsetInCU: 0x3D791, offset: 0x3D791, size: 0x8, addend: 0x0, symName: __ZNSt3__14pairINS_16reverse_iteratorIPP10ArgmentASTEES5_EC2B8ue170006ERKS5_S8_, symObjAddr: 0x19CB4, symBinAddr: 0x10001A3EC, symSize: 0x34 }
  - { offsetInCU: 0x3D7D7, offset: 0x3D7D7, size: 0x8, addend: 0x0, symName: __ZNSt3__118__unwrap_iter_implINS_16reverse_iteratorIPP10ArgmentASTEELb0EE8__rewrapB8ue170006ES5_S5_, symObjAddr: 0x19CE8, symBinAddr: 0x10001A420, symSize: 0x2C }
  - { offsetInCU: 0x3D804, offset: 0x3D804, size: 0x8, addend: 0x0, symName: __ZNSt3__116reverse_iteratorIPP10ArgmentASTEC2B8ue170006ES3_, symObjAddr: 0x19D14, symBinAddr: 0x10001A44C, symSize: 0x28 }
  - { offsetInCU: 0x3D83C, offset: 0x3D83C, size: 0x8, addend: 0x0, symName: __ZNSt3__114__split_bufferIP10ArgmentASTRNS_9allocatorIS2_EEED2Ev, symObjAddr: 0x19D3C, symBinAddr: 0x10001A474, symSize: 0x80 }
  - { offsetInCU: 0x3D868, offset: 0x3D868, size: 0x8, addend: 0x0, symName: __ZNSt3__114__split_bufferIP10ArgmentASTRNS_9allocatorIS2_EEE5clearB8ue170006Ev, symObjAddr: 0x19DBC, symBinAddr: 0x10001A4F4, symSize: 0x28 }
  - { offsetInCU: 0x3D88E, offset: 0x3D88E, size: 0x8, addend: 0x0, symName: __ZNSt3__116allocator_traitsINS_9allocatorIP10ArgmentASTEEE10deallocateB8ue170006ERS4_PS3_m, symObjAddr: 0x19DE4, symBinAddr: 0x10001A51C, symSize: 0x34 }
  - { offsetInCU: 0x3D8D0, offset: 0x3D8D0, size: 0x8, addend: 0x0, symName: __ZNKSt3__114__split_bufferIP10ArgmentASTRNS_9allocatorIS2_EEE8capacityB8ue170006Ev, symObjAddr: 0x19E18, symBinAddr: 0x10001A550, symSize: 0x40 }
  - { offsetInCU: 0x3D8F6, offset: 0x3D8F6, size: 0x8, addend: 0x0, symName: __ZNSt3__114__split_bufferIP10ArgmentASTRNS_9allocatorIS2_EEE17__destruct_at_endB8ue170006EPS2_, symObjAddr: 0x19E58, symBinAddr: 0x10001A590, symSize: 0x2C }
  - { offsetInCU: 0x3D92A, offset: 0x3D92A, size: 0x8, addend: 0x0, symName: __ZNSt3__114__split_bufferIP10ArgmentASTRNS_9allocatorIS2_EEE17__destruct_at_endB8ue170006EPS2_NS_17integral_constantIbLb0EEE, symObjAddr: 0x19E84, symBinAddr: 0x10001A5BC, symSize: 0x94 }
  - { offsetInCU: 0x3D96A, offset: 0x3D96A, size: 0x8, addend: 0x0, symName: __ZNSt3__116allocator_traitsINS_9allocatorIP10ArgmentASTEEE7destroyB8ue170006IS3_vEEvRS4_PT_, symObjAddr: 0x19F18, symBinAddr: 0x10001A650, symSize: 0x2C }
  - { offsetInCU: 0x3D9A7, offset: 0x3D9A7, size: 0x8, addend: 0x0, symName: __ZNSt3__19allocatorIP10ArgmentASTE7destroyB8ue170006EPS2_, symObjAddr: 0x19F44, symBinAddr: 0x10001A67C, symSize: 0x14 }
  - { offsetInCU: 0x3D9DB, offset: 0x3D9DB, size: 0x8, addend: 0x0, symName: __ZNSt3__19allocatorIP10ArgmentASTE10deallocateB8ue170006EPS2_m, symObjAddr: 0x19F58, symBinAddr: 0x10001A690, symSize: 0x70 }
  - { offsetInCU: 0x3DA1D, offset: 0x3DA1D, size: 0x8, addend: 0x0, symName: __ZNKSt3__114__split_bufferIP10ArgmentASTRNS_9allocatorIS2_EEE9__end_capB8ue170006Ev, symObjAddr: 0x19FC8, symBinAddr: 0x10001A700, symSize: 0x28 }
  - { offsetInCU: 0x3DA43, offset: 0x3DA43, size: 0x8, addend: 0x0, symName: __ZNKSt3__117__compressed_pairIPP10ArgmentASTRNS_9allocatorIS2_EEE5firstB8ue170006Ev, symObjAddr: 0x19FF0, symBinAddr: 0x10001A728, symSize: 0x24 }
  - { offsetInCU: 0x3DA69, offset: 0x3DA69, size: 0x8, addend: 0x0, symName: __ZNSt3__16vectorIP10ArgmentASTNS_9allocatorIS2_EEE22__base_destruct_at_endB8ue170006EPS2_, symObjAddr: 0x1A014, symBinAddr: 0x10001A74C, symSize: 0xA0 }
  - { offsetInCU: 0x3DAAD, offset: 0x3DAAD, size: 0x8, addend: 0x0, symName: __ZNKSt3__16vectorIP10ArgmentASTNS_9allocatorIS2_EEE17__annotate_shrinkB8ue170006Em, symObjAddr: 0x1A0B4, symBinAddr: 0x10001A7EC, symSize: 0xB4 }
  - { offsetInCU: 0x3DAFF, offset: 0x3DAFF, size: 0x8, addend: 0x0, symName: __ZNKSt3__114__copy_trivialclB8ue170006IP10ArgmentASTS3_Li0EEENS_4pairIPT_PT0_EES6_S6_S8_, symObjAddr: 0x1A36C, symBinAddr: 0x10001AAA4, symSize: 0x48 }
  - { offsetInCU: 0x3DB67, offset: 0x3DB67, size: 0x8, addend: 0x0, symName: __ZNSt3__14pairIPP10ArgmentASTS3_EC1B8ue170006ERKS3_S6_, symObjAddr: 0x1A4EC, symBinAddr: 0x10001AC24, symSize: 0x3C }
  - { offsetInCU: 0x3DBAD, offset: 0x3DBAD, size: 0x8, addend: 0x0, symName: __ZNSt3__14pairIPP10ArgmentASTS3_EC2B8ue170006ERKS3_S6_, symObjAddr: 0x1A528, symBinAddr: 0x10001AC60, symSize: 0x34 }
  - { offsetInCU: 0x3DBF3, offset: 0x3DBF3, size: 0x8, addend: 0x0, symName: __ZNSt3__118__unwrap_iter_implINS_11__wrap_iterIPP10ArgmentASTEELb1EE8__unwrapB8ue170006ES5_, symObjAddr: 0x1A6B4, symBinAddr: 0x10001ADEC, symSize: 0x28 }
  - { offsetInCU: 0x3DC22, offset: 0x3DC22, size: 0x8, addend: 0x0, symName: __ZNSt3__119__to_address_helperINS_11__wrap_iterIPP10ArgmentASTEEvE6__callB8ue170006ERKS5_, symObjAddr: 0x1A700, symBinAddr: 0x10001AE38, symSize: 0x30 }
  - { offsetInCU: 0x3DC45, offset: 0x3DC45, size: 0x8, addend: 0x0, symName: __ZNSt3__114pointer_traitsINS_11__wrap_iterIPP10ArgmentASTEEE10to_addressB8ue170006ES5_, symObjAddr: 0x1A730, symBinAddr: 0x10001AE68, symSize: 0x2C }
  - { offsetInCU: 0x3DC68, offset: 0x3DC68, size: 0x8, addend: 0x0, symName: __ZNKSt3__111__wrap_iterIPP10ArgmentASTE4baseB8ue170006Ev, symObjAddr: 0x1A75C, symBinAddr: 0x10001AE94, symSize: 0x18 }
  - { offsetInCU: 0x3DCAB, offset: 0x3DCAB, size: 0x8, addend: 0x0, symName: __ZNSt3__14pairINS_11__wrap_iterIPP10ArgmentASTEES5_EC1B8ue170006ERKS5_S8_, symObjAddr: 0x1A774, symBinAddr: 0x10001AEAC, symSize: 0x3C }
  - { offsetInCU: 0x3DCF1, offset: 0x3DCF1, size: 0x8, addend: 0x0, symName: __ZNSt3__14pairINS_11__wrap_iterIPP10ArgmentASTEES5_EC2B8ue170006ERKS5_S8_, symObjAddr: 0x1A7B0, symBinAddr: 0x10001AEE8, symSize: 0x34 }
  - { offsetInCU: 0x3DD37, offset: 0x3DD37, size: 0x8, addend: 0x0, symName: __ZNSt3__118__unwrap_iter_implINS_11__wrap_iterIPP10ArgmentASTEELb1EE8__rewrapB8ue170006ES5_S4_, symObjAddr: 0x1A7E4, symBinAddr: 0x10001AF1C, symSize: 0x5C }
  - { offsetInCU: 0x3DD68, offset: 0x3DD68, size: 0x8, addend: 0x0, symName: __ZNKSt3__111__wrap_iterIPP10ArgmentASTEplB8ue170006El, symObjAddr: 0x1A840, symBinAddr: 0x10001AF78, symSize: 0x3C }
  - { offsetInCU: 0x3DDAA, offset: 0x3DDAA, size: 0x8, addend: 0x0, symName: __ZNSt3__111__wrap_iterIPP10ArgmentASTEpLB8ue170006El, symObjAddr: 0x1A87C, symBinAddr: 0x10001AFB4, symSize: 0x28 }
  - { offsetInCU: 0x3DDDE, offset: 0x3DDDE, size: 0x8, addend: 0x0, symName: __ZNSt3__16vectorIP10ArgmentASTNS_9allocatorIS2_EEE11__make_iterB8ue170006EPS2_, symObjAddr: 0x1A8A4, symBinAddr: 0x10001AFDC, symSize: 0x30 }
  - { offsetInCU: 0x3DE13, offset: 0x3DE13, size: 0x8, addend: 0x0, symName: __ZNSt3__111__wrap_iterIPP10ArgmentASTEC1B8ue170006ES3_, symObjAddr: 0x1A8D4, symBinAddr: 0x10001B00C, symSize: 0x34 }
  - { offsetInCU: 0x3DE4B, offset: 0x3DE4B, size: 0x8, addend: 0x0, symName: __ZNSt3__111__wrap_iterIPP10ArgmentASTEC2B8ue170006ES3_, symObjAddr: 0x1A908, symBinAddr: 0x10001B040, symSize: 0x20 }
  - { offsetInCU: 0x3DE83, offset: 0x3DE83, size: 0x8, addend: 0x0, symName: __ZN7CodeASTC2ENSt3__16vectorIP18AbstractSyntaxTreeNS0_9allocatorIS3_EEEEi, symObjAddr: 0x1A928, symBinAddr: 0x10001B060, symSize: 0xC8 }
  - { offsetInCU: 0x3DECA, offset: 0x3DECA, size: 0x8, addend: 0x0, symName: __ZNSt3__16vectorIP18AbstractSyntaxTreeNS_9allocatorIS2_EEEaSB8ue170006ERKS5_, symObjAddr: 0x1A9F0, symBinAddr: 0x10001B128, symSize: 0x68 }
  - { offsetInCU: 0x3DF01, offset: 0x3DF01, size: 0x8, addend: 0x0, symName: __ZNSt3__16vectorIP18AbstractSyntaxTreeNS_9allocatorIS2_EEE19__copy_assign_allocB8ue170006ERKS5_, symObjAddr: 0x1AA58, symBinAddr: 0x10001B190, symSize: 0x2C }
  - { offsetInCU: 0x3DF36, offset: 0x3DF36, size: 0x8, addend: 0x0, symName: __ZNSt3__16vectorIP18AbstractSyntaxTreeNS_9allocatorIS2_EEE6assignIPS2_Li0EEEvT_S8_, symObjAddr: 0x1AA84, symBinAddr: 0x10001B1BC, symSize: 0x5C }
  - { offsetInCU: 0x3DF8B, offset: 0x3DF8B, size: 0x8, addend: 0x0, symName: __ZNSt3__16vectorIP18AbstractSyntaxTreeNS_9allocatorIS2_EEE19__copy_assign_allocB8ue170006ERKS5_NS_17integral_constantIbLb0EEE, symObjAddr: 0x1AAE0, symBinAddr: 0x10001B218, symSize: 0x14 }
  - { offsetInCU: 0x3DFC7, offset: 0x3DFC7, size: 0x8, addend: 0x0, symName: __ZNSt3__16vectorIP18AbstractSyntaxTreeNS_9allocatorIS2_EEE18__assign_with_sizeB8ue170006IPS2_S7_EEvT_T0_l, symObjAddr: 0x1AAF4, symBinAddr: 0x10001B22C, symSize: 0x164 }
  - { offsetInCU: 0x3E079, offset: 0x3E079, size: 0x8, addend: 0x0, symName: __ZNSt3__16vectorIP18AbstractSyntaxTreeNS_9allocatorIS2_EEE18__construct_at_endIPS2_S7_EEvT_T0_m, symObjAddr: 0x1ACF8, symBinAddr: 0x10001B430, symSize: 0x94 }
  - { offsetInCU: 0x3E0EF, offset: 0x3E0EF, size: 0x8, addend: 0x0, symName: __ZNSt3__16vectorIP18AbstractSyntaxTreeNS_9allocatorIS2_EEE13__vdeallocateEv, symObjAddr: 0x1ADD0, symBinAddr: 0x10001B508, symSize: 0x94 }
  - { offsetInCU: 0x3E117, offset: 0x3E117, size: 0x8, addend: 0x0, symName: __ZNSt3__16vectorIP18AbstractSyntaxTreeNS_9allocatorIS2_EEE11__vallocateB8ue170006Em, symObjAddr: 0x1AE64, symBinAddr: 0x10001B59C, symSize: 0xAC }
  - { offsetInCU: 0x3E15B, offset: 0x3E15B, size: 0x8, addend: 0x0, symName: __ZNSt3__129_AllocatorDestroyRangeReverseINS_9allocatorIP18AbstractSyntaxTreeEEPS3_EC1B8ue170006ERS4_RS5_S8_, symObjAddr: 0x1B220, symBinAddr: 0x10001B958, symSize: 0x44 }
  - { offsetInCU: 0x3E1B2, offset: 0x3E1B2, size: 0x8, addend: 0x0, symName: __ZNSt3__116allocator_traitsINS_9allocatorIP18AbstractSyntaxTreeEEE9constructB8ue170006IS3_JRS3_EvEEvRS4_PT_DpOT0_, symObjAddr: 0x1B264, symBinAddr: 0x10001B99C, symSize: 0x34 }
  - { offsetInCU: 0x3E209, offset: 0x3E209, size: 0x8, addend: 0x0, symName: __ZNSt3__128__exception_guard_exceptionsINS_29_AllocatorDestroyRangeReverseINS_9allocatorIP18AbstractSyntaxTreeEEPS4_EEE10__completeB8ue170006Ev, symObjAddr: 0x1B298, symBinAddr: 0x10001B9D0, symSize: 0x1C }
  - { offsetInCU: 0x3E22F, offset: 0x3E22F, size: 0x8, addend: 0x0, symName: __ZNSt3__128__exception_guard_exceptionsINS_29_AllocatorDestroyRangeReverseINS_9allocatorIP18AbstractSyntaxTreeEEPS4_EEED1B8ue170006Ev, symObjAddr: 0x1B2B4, symBinAddr: 0x10001B9EC, symSize: 0x2C }
  - { offsetInCU: 0x3E259, offset: 0x3E259, size: 0x8, addend: 0x0, symName: __ZNSt3__128__exception_guard_exceptionsINS_29_AllocatorDestroyRangeReverseINS_9allocatorIP18AbstractSyntaxTreeEEPS4_EEEC1B8ue170006ES7_, symObjAddr: 0x1B2E0, symBinAddr: 0x10001BA18, symSize: 0x34 }
  - { offsetInCU: 0x3E292, offset: 0x3E292, size: 0x8, addend: 0x0, symName: __ZNSt3__128__exception_guard_exceptionsINS_29_AllocatorDestroyRangeReverseINS_9allocatorIP18AbstractSyntaxTreeEEPS4_EEEC2B8ue170006ES7_, symObjAddr: 0x1B314, symBinAddr: 0x10001BA4C, symSize: 0x30 }
  - { offsetInCU: 0x3E2CB, offset: 0x3E2CB, size: 0x8, addend: 0x0, symName: __ZNSt3__129_AllocatorDestroyRangeReverseINS_9allocatorIP18AbstractSyntaxTreeEEPS3_EC2B8ue170006ERS4_RS5_S8_, symObjAddr: 0x1B344, symBinAddr: 0x10001BA7C, symSize: 0x38 }
  - { offsetInCU: 0x3E322, offset: 0x3E322, size: 0x8, addend: 0x0, symName: __ZNSt3__19allocatorIP18AbstractSyntaxTreeE9constructB8ue170006IS2_JRS2_EEEvPT_DpOT0_, symObjAddr: 0x1B37C, symBinAddr: 0x10001BAB4, symSize: 0x28 }
  - { offsetInCU: 0x3E378, offset: 0x3E378, size: 0x8, addend: 0x0, symName: __ZNSt3__128__exception_guard_exceptionsINS_29_AllocatorDestroyRangeReverseINS_9allocatorIP18AbstractSyntaxTreeEEPS4_EEED2B8ue170006Ev, symObjAddr: 0x1B3A4, symBinAddr: 0x10001BADC, symSize: 0x48 }
  - { offsetInCU: 0x3E3A2, offset: 0x3E3A2, size: 0x8, addend: 0x0, symName: __ZNKSt3__129_AllocatorDestroyRangeReverseINS_9allocatorIP18AbstractSyntaxTreeEEPS3_EclB8ue170006Ev, symObjAddr: 0x1B3EC, symBinAddr: 0x10001BB24, symSize: 0x68 }
  - { offsetInCU: 0x3E3C8, offset: 0x3E3C8, size: 0x8, addend: 0x0, symName: __ZNSt3__118__unwrap_iter_implIPP18AbstractSyntaxTreeLb1EE8__unwrapB8ue170006ES3_, symObjAddr: 0x1B4C4, symBinAddr: 0x10001BBFC, symSize: 0x24 }
  - { offsetInCU: 0x3E3EB, offset: 0x3E3EB, size: 0x8, addend: 0x0, symName: __ZNSt3__118__unwrap_iter_implIPP18AbstractSyntaxTreeLb1EE8__rewrapB8ue170006ES3_S3_, symObjAddr: 0x1B4E8, symBinAddr: 0x10001BC20, symSize: 0x50 }
  - { offsetInCU: 0x3E41C, offset: 0x3E41C, size: 0x8, addend: 0x0, symName: __ZNSt3__16vectorIP18AbstractSyntaxTreeNS_9allocatorIS2_EEE5clearB8ue170006Ev, symObjAddr: 0x1B65C, symBinAddr: 0x10001BD94, symSize: 0x44 }
  - { offsetInCU: 0x3E451, offset: 0x3E451, size: 0x8, addend: 0x0, symName: __ZNSt3__16vectorIP18AbstractSyntaxTreeNS_9allocatorIS2_EEE7__clearB8ue170006Ev, symObjAddr: 0x1B6A0, symBinAddr: 0x10001BDD8, symSize: 0x28 }
  - { offsetInCU: 0x3E477, offset: 0x3E477, size: 0x8, addend: 0x0, symName: __ZN14DefFunctionASTC2ENSt3__112basic_stringIcNS0_11char_traitsIcEENS0_9allocatorIcEEEEP13IdentifierASTNS0_6vectorIP10ArgmentASTNS4_ISB_EEEEP18AbstractSyntaxTreei, symObjAddr: 0x1B6F0, symBinAddr: 0x10001BE28, symSize: 0x18C }
  - { offsetInCU: 0x3E4E9, offset: 0x3E4E9, size: 0x8, addend: 0x0, symName: __ZN14ConstructorASTC2EP13IdentifierASTNSt3__16vectorIP10ArgmentASTNS2_9allocatorIS5_EEEEP18AbstractSyntaxTreei, symObjAddr: 0x1B87C, symBinAddr: 0x10001BFB4, symSize: 0x13C }
  - { offsetInCU: 0x3E54C, offset: 0x3E54C, size: 0x8, addend: 0x0, symName: __ZN20VirtualDestructorASTC2EP13IdentifierASTi, symObjAddr: 0x1B9B8, symBinAddr: 0x10001C0F0, symSize: 0x5C }
  - { offsetInCU: 0x3E592, offset: 0x3E592, size: 0x8, addend: 0x0, symName: __ZN13DestructorASTC2EP13IdentifierASTP18AbstractSyntaxTreei, symObjAddr: 0x1BA14, symBinAddr: 0x10001C14C, symSize: 0x68 }
  - { offsetInCU: 0x3E5E6, offset: 0x3E5E6, size: 0x8, addend: 0x0, symName: __ZN8ClassASTC2EP13IdentifierASTNSt3__16vectorINS2_12basic_stringIcNS2_11char_traitsIcEENS2_9allocatorIcEEEENS7_IS9_EEEENS3_IP18AbstractSyntaxTreeNS7_ISD_EEEENS3_I14AccessModifierNS7_ISG_EEEEi, symObjAddr: 0x1BA7C, symBinAddr: 0x10001C1B4, symSize: 0x290 }
  - { offsetInCU: 0x3E659, offset: 0x3E659, size: 0x8, addend: 0x0, symName: __ZNSt3__16vectorI14AccessModifierNS_9allocatorIS1_EEE6resizeEm, symObjAddr: 0x1BD0C, symBinAddr: 0x10001C444, symSize: 0x94 }
  - { offsetInCU: 0x3E69F, offset: 0x3E69F, size: 0x8, addend: 0x0, symName: __ZNKSt3__16vectorI14AccessModifierNS_9allocatorIS1_EEE4sizeB8ue170006Ev, symObjAddr: 0x1BDA0, symBinAddr: 0x10001C4D8, symSize: 0x28 }
  - { offsetInCU: 0x3E6C5, offset: 0x3E6C5, size: 0x8, addend: 0x0, symName: __ZNSt3__16vectorI14AccessModifierNS_9allocatorIS1_EEE5beginB8ue170006Ev, symObjAddr: 0x1BE28, symBinAddr: 0x10001C560, symSize: 0x30 }
  - { offsetInCU: 0x3E6ED, offset: 0x3E6ED, size: 0x8, addend: 0x0, symName: __ZNSt3__16vectorI14AccessModifierNS_9allocatorIS1_EEE3endB8ue170006Ev, symObjAddr: 0x1BE58, symBinAddr: 0x10001C590, symSize: 0x30 }
  - { offsetInCU: 0x3E715, offset: 0x3E715, size: 0x8, addend: 0x0, symName: __ZNSt3__16vectorINS_12basic_stringIcNS_11char_traitsIcEENS_9allocatorIcEEEENS4_IS6_EEE6resizeEm, symObjAddr: 0x1BE88, symBinAddr: 0x10001C5C0, symSize: 0x9C }
  - { offsetInCU: 0x3E75B, offset: 0x3E75B, size: 0x8, addend: 0x0, symName: __ZNSt3__16vectorINS_12basic_stringIcNS_11char_traitsIcEENS_9allocatorIcEEEENS4_IS6_EEE5beginB8ue170006Ev, symObjAddr: 0x1BF84, symBinAddr: 0x10001C6BC, symSize: 0x30 }
  - { offsetInCU: 0x3E783, offset: 0x3E783, size: 0x8, addend: 0x0, symName: __ZNSt3__16vectorINS_12basic_stringIcNS_11char_traitsIcEENS_9allocatorIcEEEENS4_IS6_EEE3endB8ue170006Ev, symObjAddr: 0x1BFB4, symBinAddr: 0x10001C6EC, symSize: 0x30 }
  - { offsetInCU: 0x3E7AB, offset: 0x3E7AB, size: 0x8, addend: 0x0, symName: __ZNSt3__16vectorI14AccessModifierNS_9allocatorIS1_EEE8__appendEm, symObjAddr: 0x1BFE4, symBinAddr: 0x10001C71C, symSize: 0x110 }
  - { offsetInCU: 0x3E806, offset: 0x3E806, size: 0x8, addend: 0x0, symName: __ZNSt3__16vectorI14AccessModifierNS_9allocatorIS1_EEE17__destruct_at_endB8ue170006EPS1_, symObjAddr: 0x1C0F4, symBinAddr: 0x10001C82C, symSize: 0x4C }
  - { offsetInCU: 0x3E84A, offset: 0x3E84A, size: 0x8, addend: 0x0, symName: __ZNSt3__16vectorI14AccessModifierNS_9allocatorIS1_EEE9__end_capB8ue170006Ev, symObjAddr: 0x1C140, symBinAddr: 0x10001C878, symSize: 0x28 }
  - { offsetInCU: 0x3E870, offset: 0x3E870, size: 0x8, addend: 0x0, symName: __ZNSt3__16vectorI14AccessModifierNS_9allocatorIS1_EEE18__construct_at_endEm, symObjAddr: 0x1C168, symBinAddr: 0x10001C8A0, symSize: 0xD0 }
  - { offsetInCU: 0x3E8E3, offset: 0x3E8E3, size: 0x8, addend: 0x0, symName: __ZNSt3__16vectorI14AccessModifierNS_9allocatorIS1_EEE7__allocB8ue170006Ev, symObjAddr: 0x1C238, symBinAddr: 0x10001C970, symSize: 0x28 }
  - { offsetInCU: 0x3E909, offset: 0x3E909, size: 0x8, addend: 0x0, symName: __ZNKSt3__16vectorI14AccessModifierNS_9allocatorIS1_EEE11__recommendB8ue170006Em, symObjAddr: 0x1C260, symBinAddr: 0x10001C998, symSize: 0xB4 }
  - { offsetInCU: 0x3E95E, offset: 0x3E95E, size: 0x8, addend: 0x0, symName: __ZNSt3__114__split_bufferI14AccessModifierRNS_9allocatorIS1_EEEC1EmmS4_, symObjAddr: 0x1C314, symBinAddr: 0x10001CA4C, symSize: 0x44 }
  - { offsetInCU: 0x3E9B4, offset: 0x3E9B4, size: 0x8, addend: 0x0, symName: __ZNSt3__114__split_bufferI14AccessModifierRNS_9allocatorIS1_EEE18__construct_at_endEm, symObjAddr: 0x1C358, symBinAddr: 0x10001CA90, symSize: 0xBC }
  - { offsetInCU: 0x3E9F9, offset: 0x3E9F9, size: 0x8, addend: 0x0, symName: __ZNSt3__114__split_bufferI14AccessModifierRNS_9allocatorIS1_EEED1Ev, symObjAddr: 0x1C524, symBinAddr: 0x10001CC5C, symSize: 0x2C }
  - { offsetInCU: 0x3EA25, offset: 0x3EA25, size: 0x8, addend: 0x0, symName: __ZNSt3__117__compressed_pairIP14AccessModifierNS_9allocatorIS1_EEE5firstB8ue170006Ev, symObjAddr: 0x1C550, symBinAddr: 0x10001CC88, symSize: 0x24 }
  - { offsetInCU: 0x3EA4B, offset: 0x3EA4B, size: 0x8, addend: 0x0, symName: __ZNSt3__122__compressed_pair_elemIP14AccessModifierLi0ELb0EE5__getB8ue170006Ev, symObjAddr: 0x1C574, symBinAddr: 0x10001CCAC, symSize: 0x14 }
  - { offsetInCU: 0x3EA8D, offset: 0x3EA8D, size: 0x8, addend: 0x0, symName: __ZNSt3__16vectorI14AccessModifierNS_9allocatorIS1_EEE21_ConstructTransactionC1B8ue170006ERS4_m, symObjAddr: 0x1C588, symBinAddr: 0x10001CCC0, symSize: 0x3C }
  - { offsetInCU: 0x3EAD5, offset: 0x3EAD5, size: 0x8, addend: 0x0, symName: __ZNSt3__116allocator_traitsINS_9allocatorI14AccessModifierEEE9constructB8ue170006IS2_JEvEEvRS3_PT_DpOT0_, symObjAddr: 0x1C5C4, symBinAddr: 0x10001CCFC, symSize: 0x2C }
  - { offsetInCU: 0x3EB17, offset: 0x3EB17, size: 0x8, addend: 0x0, symName: __ZNSt3__16vectorI14AccessModifierNS_9allocatorIS1_EEE21_ConstructTransactionD1B8ue170006Ev, symObjAddr: 0x1C604, symBinAddr: 0x10001CD3C, symSize: 0x2C }
  - { offsetInCU: 0x3EB41, offset: 0x3EB41, size: 0x8, addend: 0x0, symName: __ZNSt3__16vectorI14AccessModifierNS_9allocatorIS1_EEE21_ConstructTransactionC2B8ue170006ERS4_m, symObjAddr: 0x1C630, symBinAddr: 0x10001CD68, symSize: 0x44 }
  - { offsetInCU: 0x3EB89, offset: 0x3EB89, size: 0x8, addend: 0x0, symName: __ZNSt3__19allocatorI14AccessModifierE9constructB8ue170006IS1_JEEEvPT_DpOT0_, symObjAddr: 0x1C674, symBinAddr: 0x10001CDAC, symSize: 0x1C }
  - { offsetInCU: 0x3EBCB, offset: 0x3EBCB, size: 0x8, addend: 0x0, symName: __ZNSt3__16vectorI14AccessModifierNS_9allocatorIS1_EEE21_ConstructTransactionD2B8ue170006Ev, symObjAddr: 0x1C690, symBinAddr: 0x10001CDC8, symSize: 0x20 }
  - { offsetInCU: 0x3EBF5, offset: 0x3EBF5, size: 0x8, addend: 0x0, symName: __ZNSt3__117__compressed_pairIP14AccessModifierNS_9allocatorIS1_EEE6secondB8ue170006Ev, symObjAddr: 0x1C6B0, symBinAddr: 0x10001CDE8, symSize: 0x24 }
  - { offsetInCU: 0x3EC1B, offset: 0x3EC1B, size: 0x8, addend: 0x0, symName: __ZNSt3__122__compressed_pair_elemINS_9allocatorI14AccessModifierEELi1ELb1EE5__getB8ue170006Ev, symObjAddr: 0x1C6D4, symBinAddr: 0x10001CE0C, symSize: 0x14 }
  - { offsetInCU: 0x3EC41, offset: 0x3EC41, size: 0x8, addend: 0x0, symName: __ZNKSt3__16vectorI14AccessModifierNS_9allocatorIS1_EEE8max_sizeEv, symObjAddr: 0x1C6E8, symBinAddr: 0x10001CE20, symSize: 0x74 }
  - { offsetInCU: 0x3EC69, offset: 0x3EC69, size: 0x8, addend: 0x0, symName: __ZNKSt3__16vectorI14AccessModifierNS_9allocatorIS1_EEE20__throw_length_errorB8ue170006Ev, symObjAddr: 0x1C75C, symBinAddr: 0x10001CE94, symSize: 0x1C }
  - { offsetInCU: 0x3EC8F, offset: 0x3EC8F, size: 0x8, addend: 0x0, symName: __ZNKSt3__16vectorI14AccessModifierNS_9allocatorIS1_EEE8capacityB8ue170006Ev, symObjAddr: 0x1C778, symBinAddr: 0x10001CEB0, symSize: 0x40 }
  - { offsetInCU: 0x3ECC0, offset: 0x3ECC0, size: 0x8, addend: 0x0, symName: __ZNSt3__116allocator_traitsINS_9allocatorI14AccessModifierEEE8max_sizeB8ue170006IS3_vEEmRKS3_, symObjAddr: 0x1C7B8, symBinAddr: 0x10001CEF0, symSize: 0x24 }
  - { offsetInCU: 0x3ECEE, offset: 0x3ECEE, size: 0x8, addend: 0x0, symName: __ZNKSt3__16vectorI14AccessModifierNS_9allocatorIS1_EEE7__allocB8ue170006Ev, symObjAddr: 0x1C7DC, symBinAddr: 0x10001CF14, symSize: 0x28 }
  - { offsetInCU: 0x3ED14, offset: 0x3ED14, size: 0x8, addend: 0x0, symName: __ZNKSt3__19allocatorI14AccessModifierE8max_sizeB8ue170006Ev, symObjAddr: 0x1C804, symBinAddr: 0x10001CF3C, symSize: 0x14 }
  - { offsetInCU: 0x3ED3A, offset: 0x3ED3A, size: 0x8, addend: 0x0, symName: __ZNKSt3__117__compressed_pairIP14AccessModifierNS_9allocatorIS1_EEE6secondB8ue170006Ev, symObjAddr: 0x1C818, symBinAddr: 0x10001CF50, symSize: 0x24 }
  - { offsetInCU: 0x3ED60, offset: 0x3ED60, size: 0x8, addend: 0x0, symName: __ZNKSt3__122__compressed_pair_elemINS_9allocatorI14AccessModifierEELi1ELb1EE5__getB8ue170006Ev, symObjAddr: 0x1C83C, symBinAddr: 0x10001CF74, symSize: 0x14 }
  - { offsetInCU: 0x3ED86, offset: 0x3ED86, size: 0x8, addend: 0x0, symName: __ZNKSt3__16vectorI14AccessModifierNS_9allocatorIS1_EEE9__end_capB8ue170006Ev, symObjAddr: 0x1C850, symBinAddr: 0x10001CF88, symSize: 0x28 }
  - { offsetInCU: 0x3EDAC, offset: 0x3EDAC, size: 0x8, addend: 0x0, symName: __ZNKSt3__117__compressed_pairIP14AccessModifierNS_9allocatorIS1_EEE5firstB8ue170006Ev, symObjAddr: 0x1C878, symBinAddr: 0x10001CFB0, symSize: 0x24 }
  - { offsetInCU: 0x3EDD2, offset: 0x3EDD2, size: 0x8, addend: 0x0, symName: __ZNKSt3__122__compressed_pair_elemIP14AccessModifierLi0ELb0EE5__getB8ue170006Ev, symObjAddr: 0x1C89C, symBinAddr: 0x10001CFD4, symSize: 0x14 }
  - { offsetInCU: 0x3EDF8, offset: 0x3EDF8, size: 0x8, addend: 0x0, symName: __ZNSt3__114__split_bufferI14AccessModifierRNS_9allocatorIS1_EEEC2EmmS4_, symObjAddr: 0x1C8B0, symBinAddr: 0x10001CFE8, symSize: 0xD4 }
  - { offsetInCU: 0x3EE6C, offset: 0x3EE6C, size: 0x8, addend: 0x0, symName: __ZNSt3__117__compressed_pairIP14AccessModifierRNS_9allocatorIS1_EEEC1B8ue170006IDnS5_EEOT_OT0_, symObjAddr: 0x1C984, symBinAddr: 0x10001D0BC, symSize: 0x3C }
  - { offsetInCU: 0x3EEC4, offset: 0x3EEC4, size: 0x8, addend: 0x0, symName: __ZNSt3__114__split_bufferI14AccessModifierRNS_9allocatorIS1_EEE7__allocB8ue170006Ev, symObjAddr: 0x1CA00, symBinAddr: 0x10001D138, symSize: 0x28 }
  - { offsetInCU: 0x3EEEA, offset: 0x3EEEA, size: 0x8, addend: 0x0, symName: __ZNSt3__114__split_bufferI14AccessModifierRNS_9allocatorIS1_EEE9__end_capB8ue170006Ev, symObjAddr: 0x1CA28, symBinAddr: 0x10001D160, symSize: 0x28 }
  - { offsetInCU: 0x3EF10, offset: 0x3EF10, size: 0x8, addend: 0x0, symName: __ZNSt3__117__compressed_pairIP14AccessModifierRNS_9allocatorIS1_EEEC2B8ue170006IDnS5_EEOT_OT0_, symObjAddr: 0x1CA50, symBinAddr: 0x10001D188, symSize: 0x48 }
  - { offsetInCU: 0x3EF68, offset: 0x3EF68, size: 0x8, addend: 0x0, symName: __ZNSt3__122__compressed_pair_elemIP14AccessModifierLi0ELb0EEC2B8ue170006IDnvEEOT_, symObjAddr: 0x1CA98, symBinAddr: 0x10001D1D0, symSize: 0x1C }
  - { offsetInCU: 0x3EFAA, offset: 0x3EFAA, size: 0x8, addend: 0x0, symName: __ZNSt3__122__compressed_pair_elemIRNS_9allocatorI14AccessModifierEELi1ELb0EEC2B8ue170006IS4_vEEOT_, symObjAddr: 0x1CAB4, symBinAddr: 0x10001D1EC, symSize: 0x20 }
  - { offsetInCU: 0x3EFEC, offset: 0x3EFEC, size: 0x8, addend: 0x0, symName: __ZNSt3__19allocatorI14AccessModifierE8allocateB8ue170006Em, symObjAddr: 0x1CAD4, symBinAddr: 0x10001D20C, symSize: 0x84 }
  - { offsetInCU: 0x3F020, offset: 0x3F020, size: 0x8, addend: 0x0, symName: __ZNSt3__117__compressed_pairIP14AccessModifierRNS_9allocatorIS1_EEE6secondB8ue170006Ev, symObjAddr: 0x1CB58, symBinAddr: 0x10001D290, symSize: 0x28 }
  - { offsetInCU: 0x3F046, offset: 0x3F046, size: 0x8, addend: 0x0, symName: __ZNSt3__122__compressed_pair_elemIRNS_9allocatorI14AccessModifierEELi1ELb0EE5__getB8ue170006Ev, symObjAddr: 0x1CB80, symBinAddr: 0x10001D2B8, symSize: 0x18 }
  - { offsetInCU: 0x3F06C, offset: 0x3F06C, size: 0x8, addend: 0x0, symName: __ZNSt3__117__compressed_pairIP14AccessModifierRNS_9allocatorIS1_EEE5firstB8ue170006Ev, symObjAddr: 0x1CB98, symBinAddr: 0x10001D2D0, symSize: 0x24 }
  - { offsetInCU: 0x3F09E, offset: 0x3F09E, size: 0x8, addend: 0x0, symName: __ZNSt3__114__split_bufferI14AccessModifierRNS_9allocatorIS1_EEE21_ConstructTransactionC1B8ue170006EPPS1_m, symObjAddr: 0x1CBBC, symBinAddr: 0x10001D2F4, symSize: 0x3C }
  - { offsetInCU: 0x3F0E4, offset: 0x3F0E4, size: 0x8, addend: 0x0, symName: __ZNSt3__114__split_bufferI14AccessModifierRNS_9allocatorIS1_EEE21_ConstructTransactionD1B8ue170006Ev, symObjAddr: 0x1CBF8, symBinAddr: 0x10001D330, symSize: 0x2C }
  - { offsetInCU: 0x3F10E, offset: 0x3F10E, size: 0x8, addend: 0x0, symName: __ZNSt3__114__split_bufferI14AccessModifierRNS_9allocatorIS1_EEE21_ConstructTransactionC2B8ue170006EPPS1_m, symObjAddr: 0x1CC24, symBinAddr: 0x10001D35C, symSize: 0x44 }
  - { offsetInCU: 0x3F154, offset: 0x3F154, size: 0x8, addend: 0x0, symName: __ZNSt3__114__split_bufferI14AccessModifierRNS_9allocatorIS1_EEE21_ConstructTransactionD2B8ue170006Ev, symObjAddr: 0x1CC68, symBinAddr: 0x10001D3A0, symSize: 0x20 }
  - { offsetInCU: 0x3F17E, offset: 0x3F17E, size: 0x8, addend: 0x0, symName: __ZNKSt3__16vectorI14AccessModifierNS_9allocatorIS1_EEE17__annotate_deleteB8ue170006Ev, symObjAddr: 0x1CC88, symBinAddr: 0x10001D3C0, symSize: 0xB8 }
  - { offsetInCU: 0x3F1A4, offset: 0x3F1A4, size: 0x8, addend: 0x0, symName: __ZNSt3__116reverse_iteratorIP14AccessModifierEC1B8ue170006ES2_, symObjAddr: 0x1CE28, symBinAddr: 0x10001D560, symSize: 0x34 }
  - { offsetInCU: 0x3F1DC, offset: 0x3F1DC, size: 0x8, addend: 0x0, symName: __ZNKSt3__116reverse_iteratorIP14AccessModifierE4baseB8ue170006Ev, symObjAddr: 0x1CE5C, symBinAddr: 0x10001D594, symSize: 0x18 }
  - { offsetInCU: 0x3F202, offset: 0x3F202, size: 0x8, addend: 0x0, symName: __ZNKSt3__16vectorI14AccessModifierNS_9allocatorIS1_EEE14__annotate_newB8ue170006Em, symObjAddr: 0x1CEB0, symBinAddr: 0x10001D5E8, symSize: 0xAC }
  - { offsetInCU: 0x3F237, offset: 0x3F237, size: 0x8, addend: 0x0, symName: __ZNKSt3__16vectorI14AccessModifierNS_9allocatorIS1_EEE31__annotate_contiguous_containerB8ue170006EPKvS6_S6_S6_, symObjAddr: 0x1CF5C, symBinAddr: 0x10001D694, symSize: 0x20 }
  - { offsetInCU: 0x3F289, offset: 0x3F289, size: 0x8, addend: 0x0, symName: __ZNKSt3__16vectorI14AccessModifierNS_9allocatorIS1_EEE4dataB8ue170006Ev, symObjAddr: 0x1CF7C, symBinAddr: 0x10001D6B4, symSize: 0x28 }
  - { offsetInCU: 0x3F2AF, offset: 0x3F2AF, size: 0x8, addend: 0x0, symName: __ZNKSt3__116reverse_iteratorIP14AccessModifierEdeB8ue170006Ev, symObjAddr: 0x1D03C, symBinAddr: 0x10001D774, symSize: 0x28 }
  - { offsetInCU: 0x3F2E3, offset: 0x3F2E3, size: 0x8, addend: 0x0, symName: __ZNSt3__116reverse_iteratorIP14AccessModifierEppB8ue170006Ev, symObjAddr: 0x1D064, symBinAddr: 0x10001D79C, symSize: 0x20 }
  - { offsetInCU: 0x3F30F, offset: 0x3F30F, size: 0x8, addend: 0x0, symName: __ZNSt3__119__to_address_helperINS_16reverse_iteratorIP14AccessModifierEEvE6__callB8ue170006ERKS4_, symObjAddr: 0x1D0FC, symBinAddr: 0x10001D834, symSize: 0x4C }
  - { offsetInCU: 0x3F332, offset: 0x3F332, size: 0x8, addend: 0x0, symName: __ZNKSt3__116reverse_iteratorIP14AccessModifierEptB8ue170006Ev, symObjAddr: 0x1D148, symBinAddr: 0x10001D880, symSize: 0x24 }
  - { offsetInCU: 0x3F375, offset: 0x3F375, size: 0x8, addend: 0x0, symName: __ZNKSt3__111__move_loopINS_17_ClassicAlgPolicyEEclB8ue170006INS_16reverse_iteratorIP14AccessModifierEES7_S7_EENS_4pairIT_T1_EES9_T0_SA_, symObjAddr: 0x1D3E4, symBinAddr: 0x10001DB1C, symSize: 0xA0 }
  - { offsetInCU: 0x3F3E6, offset: 0x3F3E6, size: 0x8, addend: 0x0, symName: __ZNSt3__18_IterOpsINS_17_ClassicAlgPolicyEE11__iter_moveB8ue170006IRNS_16reverse_iteratorIP14AccessModifierEEEENS_9enable_ifIXsr12is_referenceIDTdeclsr3stdE7declvalIRT_EEEEE5valueEDTclsr3stdE4movedeclsr3stdE7declvalISB_EEEEE4typeEOSA_, symObjAddr: 0x1D5E4, symBinAddr: 0x10001DD1C, symSize: 0x28 }
  - { offsetInCU: 0x3F412, offset: 0x3F412, size: 0x8, addend: 0x0, symName: __ZNSt3__18_IterOpsINS_17_ClassicAlgPolicyEE25__validate_iter_referenceB8ue170006IRNS_16reverse_iteratorIP14AccessModifierEEEEvv, symObjAddr: 0x1D60C, symBinAddr: 0x10001DD44, symSize: 0x4 }
  - { offsetInCU: 0x3F430, offset: 0x3F430, size: 0x8, addend: 0x0, symName: __ZNSt3__118__unwrap_iter_implINS_16reverse_iteratorIP14AccessModifierEELb0EE8__unwrapB8ue170006ES4_, symObjAddr: 0x1D610, symBinAddr: 0x10001DD48, symSize: 0x24 }
  - { offsetInCU: 0x3F453, offset: 0x3F453, size: 0x8, addend: 0x0, symName: __ZNSt3__14pairINS_16reverse_iteratorIP14AccessModifierEES4_EC1B8ue170006ERKS4_S7_, symObjAddr: 0x1D634, symBinAddr: 0x10001DD6C, symSize: 0x3C }
  - { offsetInCU: 0x3F499, offset: 0x3F499, size: 0x8, addend: 0x0, symName: __ZNSt3__14pairINS_16reverse_iteratorIP14AccessModifierEES4_EC2B8ue170006ERKS4_S7_, symObjAddr: 0x1D670, symBinAddr: 0x10001DDA8, symSize: 0x34 }
  - { offsetInCU: 0x3F4DF, offset: 0x3F4DF, size: 0x8, addend: 0x0, symName: __ZNSt3__118__unwrap_iter_implINS_16reverse_iteratorIP14AccessModifierEELb0EE8__rewrapB8ue170006ES4_S4_, symObjAddr: 0x1D6A4, symBinAddr: 0x10001DDDC, symSize: 0x2C }
  - { offsetInCU: 0x3F50C, offset: 0x3F50C, size: 0x8, addend: 0x0, symName: __ZNSt3__116reverse_iteratorIP14AccessModifierEC2B8ue170006ES2_, symObjAddr: 0x1D6D0, symBinAddr: 0x10001DE08, symSize: 0x28 }
  - { offsetInCU: 0x3F544, offset: 0x3F544, size: 0x8, addend: 0x0, symName: __ZNSt3__114__split_bufferI14AccessModifierRNS_9allocatorIS1_EEED2Ev, symObjAddr: 0x1D6F8, symBinAddr: 0x10001DE30, symSize: 0x80 }
  - { offsetInCU: 0x3F570, offset: 0x3F570, size: 0x8, addend: 0x0, symName: __ZNSt3__114__split_bufferI14AccessModifierRNS_9allocatorIS1_EEE5clearB8ue170006Ev, symObjAddr: 0x1D778, symBinAddr: 0x10001DEB0, symSize: 0x28 }
  - { offsetInCU: 0x3F596, offset: 0x3F596, size: 0x8, addend: 0x0, symName: __ZNSt3__116allocator_traitsINS_9allocatorI14AccessModifierEEE10deallocateB8ue170006ERS3_PS2_m, symObjAddr: 0x1D7A0, symBinAddr: 0x10001DED8, symSize: 0x34 }
  - { offsetInCU: 0x3F5D8, offset: 0x3F5D8, size: 0x8, addend: 0x0, symName: __ZNKSt3__114__split_bufferI14AccessModifierRNS_9allocatorIS1_EEE8capacityB8ue170006Ev, symObjAddr: 0x1D7D4, symBinAddr: 0x10001DF0C, symSize: 0x40 }
  - { offsetInCU: 0x3F5FE, offset: 0x3F5FE, size: 0x8, addend: 0x0, symName: __ZNSt3__114__split_bufferI14AccessModifierRNS_9allocatorIS1_EEE17__destruct_at_endB8ue170006EPS1_, symObjAddr: 0x1D814, symBinAddr: 0x10001DF4C, symSize: 0x2C }
  - { offsetInCU: 0x3F632, offset: 0x3F632, size: 0x8, addend: 0x0, symName: __ZNSt3__114__split_bufferI14AccessModifierRNS_9allocatorIS1_EEE17__destruct_at_endB8ue170006EPS1_NS_17integral_constantIbLb0EEE, symObjAddr: 0x1D840, symBinAddr: 0x10001DF78, symSize: 0x94 }
  - { offsetInCU: 0x3F672, offset: 0x3F672, size: 0x8, addend: 0x0, symName: __ZNSt3__116allocator_traitsINS_9allocatorI14AccessModifierEEE7destroyB8ue170006IS2_vEEvRS3_PT_, symObjAddr: 0x1D8D4, symBinAddr: 0x10001E00C, symSize: 0x2C }
  - { offsetInCU: 0x3F6AF, offset: 0x3F6AF, size: 0x8, addend: 0x0, symName: __ZNSt3__19allocatorI14AccessModifierE7destroyB8ue170006EPS1_, symObjAddr: 0x1D900, symBinAddr: 0x10001E038, symSize: 0x14 }
  - { offsetInCU: 0x3F6E3, offset: 0x3F6E3, size: 0x8, addend: 0x0, symName: __ZNSt3__19allocatorI14AccessModifierE10deallocateB8ue170006EPS1_m, symObjAddr: 0x1D914, symBinAddr: 0x10001E04C, symSize: 0x70 }
  - { offsetInCU: 0x3F725, offset: 0x3F725, size: 0x8, addend: 0x0, symName: __ZNKSt3__114__split_bufferI14AccessModifierRNS_9allocatorIS1_EEE9__end_capB8ue170006Ev, symObjAddr: 0x1D984, symBinAddr: 0x10001E0BC, symSize: 0x28 }
  - { offsetInCU: 0x3F74B, offset: 0x3F74B, size: 0x8, addend: 0x0, symName: __ZNKSt3__117__compressed_pairIP14AccessModifierRNS_9allocatorIS1_EEE5firstB8ue170006Ev, symObjAddr: 0x1D9AC, symBinAddr: 0x10001E0E4, symSize: 0x24 }
  - { offsetInCU: 0x3F771, offset: 0x3F771, size: 0x8, addend: 0x0, symName: __ZNSt3__16vectorI14AccessModifierNS_9allocatorIS1_EEE22__base_destruct_at_endB8ue170006EPS1_, symObjAddr: 0x1D9D0, symBinAddr: 0x10001E108, symSize: 0xA0 }
  - { offsetInCU: 0x3F7B5, offset: 0x3F7B5, size: 0x8, addend: 0x0, symName: __ZNKSt3__16vectorI14AccessModifierNS_9allocatorIS1_EEE17__annotate_shrinkB8ue170006Em, symObjAddr: 0x1DA70, symBinAddr: 0x10001E1A8, symSize: 0xB4 }
  - { offsetInCU: 0x3F807, offset: 0x3F807, size: 0x8, addend: 0x0, symName: __ZNKSt3__114__copy_trivialclB8ue170006I14AccessModifierS2_Li0EEENS_4pairIPT_PT0_EES5_S5_S7_, symObjAddr: 0x1DD28, symBinAddr: 0x10001E460, symSize: 0x48 }
  - { offsetInCU: 0x3F86F, offset: 0x3F86F, size: 0x8, addend: 0x0, symName: __ZNSt3__14pairIP14AccessModifierS2_EC1B8ue170006ERKS2_S5_, symObjAddr: 0x1DEA8, symBinAddr: 0x10001E5E0, symSize: 0x3C }
  - { offsetInCU: 0x3F8B5, offset: 0x3F8B5, size: 0x8, addend: 0x0, symName: __ZNSt3__14pairIP14AccessModifierS2_EC2B8ue170006ERKS2_S5_, symObjAddr: 0x1DEE4, symBinAddr: 0x10001E61C, symSize: 0x34 }
  - { offsetInCU: 0x3F8FB, offset: 0x3F8FB, size: 0x8, addend: 0x0, symName: __ZNSt3__118__unwrap_iter_implINS_11__wrap_iterIP14AccessModifierEELb1EE8__unwrapB8ue170006ES4_, symObjAddr: 0x1E070, symBinAddr: 0x10001E7A8, symSize: 0x28 }
  - { offsetInCU: 0x3F92A, offset: 0x3F92A, size: 0x8, addend: 0x0, symName: __ZNSt3__119__to_address_helperINS_11__wrap_iterIP14AccessModifierEEvE6__callB8ue170006ERKS4_, symObjAddr: 0x1E0BC, symBinAddr: 0x10001E7F4, symSize: 0x30 }
  - { offsetInCU: 0x3F94D, offset: 0x3F94D, size: 0x8, addend: 0x0, symName: __ZNSt3__114pointer_traitsINS_11__wrap_iterIP14AccessModifierEEE10to_addressB8ue170006ES4_, symObjAddr: 0x1E0EC, symBinAddr: 0x10001E824, symSize: 0x2C }
  - { offsetInCU: 0x3F970, offset: 0x3F970, size: 0x8, addend: 0x0, symName: __ZNKSt3__111__wrap_iterIP14AccessModifierE4baseB8ue170006Ev, symObjAddr: 0x1E118, symBinAddr: 0x10001E850, symSize: 0x18 }
  - { offsetInCU: 0x3F9B3, offset: 0x3F9B3, size: 0x8, addend: 0x0, symName: __ZNSt3__14pairINS_11__wrap_iterIP14AccessModifierEES4_EC1B8ue170006ERKS4_S7_, symObjAddr: 0x1E130, symBinAddr: 0x10001E868, symSize: 0x3C }
  - { offsetInCU: 0x3F9F9, offset: 0x3F9F9, size: 0x8, addend: 0x0, symName: __ZNSt3__14pairINS_11__wrap_iterIP14AccessModifierEES4_EC2B8ue170006ERKS4_S7_, symObjAddr: 0x1E16C, symBinAddr: 0x10001E8A4, symSize: 0x34 }
  - { offsetInCU: 0x3FA3F, offset: 0x3FA3F, size: 0x8, addend: 0x0, symName: __ZNSt3__118__unwrap_iter_implINS_11__wrap_iterIP14AccessModifierEELb1EE8__rewrapB8ue170006ES4_S3_, symObjAddr: 0x1E1A0, symBinAddr: 0x10001E8D8, symSize: 0x5C }
  - { offsetInCU: 0x3FA70, offset: 0x3FA70, size: 0x8, addend: 0x0, symName: __ZNKSt3__111__wrap_iterIP14AccessModifierEplB8ue170006El, symObjAddr: 0x1E1FC, symBinAddr: 0x10001E934, symSize: 0x3C }
  - { offsetInCU: 0x3FAB2, offset: 0x3FAB2, size: 0x8, addend: 0x0, symName: __ZNSt3__111__wrap_iterIP14AccessModifierEpLB8ue170006El, symObjAddr: 0x1E238, symBinAddr: 0x10001E970, symSize: 0x28 }
  - { offsetInCU: 0x3FAE6, offset: 0x3FAE6, size: 0x8, addend: 0x0, symName: __ZNSt3__16vectorI14AccessModifierNS_9allocatorIS1_EEE11__make_iterB8ue170006EPS1_, symObjAddr: 0x1E260, symBinAddr: 0x10001E998, symSize: 0x30 }
  - { offsetInCU: 0x3FB1B, offset: 0x3FB1B, size: 0x8, addend: 0x0, symName: __ZNSt3__111__wrap_iterIP14AccessModifierEC1B8ue170006ES2_, symObjAddr: 0x1E290, symBinAddr: 0x10001E9C8, symSize: 0x34 }
  - { offsetInCU: 0x3FB53, offset: 0x3FB53, size: 0x8, addend: 0x0, symName: __ZNSt3__111__wrap_iterIP14AccessModifierEC2B8ue170006ES2_, symObjAddr: 0x1E2C4, symBinAddr: 0x10001E9FC, symSize: 0x20 }
  - { offsetInCU: 0x3FB8B, offset: 0x3FB8B, size: 0x8, addend: 0x0, symName: __ZNSt3__16vectorINS_12basic_stringIcNS_11char_traitsIcEENS_9allocatorIcEEEENS4_IS6_EEE8__appendEm, symObjAddr: 0x1E2E4, symBinAddr: 0x10001EA1C, symSize: 0x110 }
  - { offsetInCU: 0x3FBE6, offset: 0x3FBE6, size: 0x8, addend: 0x0, symName: __ZNSt3__16vectorINS_12basic_stringIcNS_11char_traitsIcEENS_9allocatorIcEEEENS4_IS6_EEE17__destruct_at_endB8ue170006EPS6_, symObjAddr: 0x1E3F4, symBinAddr: 0x10001EB2C, symSize: 0x4C }
  - { offsetInCU: 0x3FC2A, offset: 0x3FC2A, size: 0x8, addend: 0x0, symName: __ZNSt3__16vectorINS_12basic_stringIcNS_11char_traitsIcEENS_9allocatorIcEEEENS4_IS6_EEE9__end_capB8ue170006Ev, symObjAddr: 0x1E440, symBinAddr: 0x10001EB78, symSize: 0x28 }
  - { offsetInCU: 0x3FC50, offset: 0x3FC50, size: 0x8, addend: 0x0, symName: __ZNSt3__16vectorINS_12basic_stringIcNS_11char_traitsIcEENS_9allocatorIcEEEENS4_IS6_EEE18__construct_at_endEm, symObjAddr: 0x1E468, symBinAddr: 0x10001EBA0, symSize: 0xD0 }
  - { offsetInCU: 0x3FCC3, offset: 0x3FCC3, size: 0x8, addend: 0x0, symName: __ZNSt3__16vectorINS_12basic_stringIcNS_11char_traitsIcEENS_9allocatorIcEEEENS4_IS6_EEE7__allocB8ue170006Ev, symObjAddr: 0x1E538, symBinAddr: 0x10001EC70, symSize: 0x28 }
  - { offsetInCU: 0x3FCE9, offset: 0x3FCE9, size: 0x8, addend: 0x0, symName: __ZNKSt3__16vectorINS_12basic_stringIcNS_11char_traitsIcEENS_9allocatorIcEEEENS4_IS6_EEE11__recommendB8ue170006Em, symObjAddr: 0x1E560, symBinAddr: 0x10001EC98, symSize: 0xB4 }
  - { offsetInCU: 0x3FD3E, offset: 0x3FD3E, size: 0x8, addend: 0x0, symName: __ZNSt3__114__split_bufferINS_12basic_stringIcNS_11char_traitsIcEENS_9allocatorIcEEEERNS4_IS6_EEEC1EmmS8_, symObjAddr: 0x1E614, symBinAddr: 0x10001ED4C, symSize: 0x44 }
  - { offsetInCU: 0x3FD94, offset: 0x3FD94, size: 0x8, addend: 0x0, symName: __ZNSt3__114__split_bufferINS_12basic_stringIcNS_11char_traitsIcEENS_9allocatorIcEEEERNS4_IS6_EEE18__construct_at_endEm, symObjAddr: 0x1E658, symBinAddr: 0x10001ED90, symSize: 0xBC }
  - { offsetInCU: 0x3FDD9, offset: 0x3FDD9, size: 0x8, addend: 0x0, symName: __ZNSt3__114__split_bufferINS_12basic_stringIcNS_11char_traitsIcEENS_9allocatorIcEEEERNS4_IS6_EEED1Ev, symObjAddr: 0x1E824, symBinAddr: 0x10001EF5C, symSize: 0x2C }
  - { offsetInCU: 0x3FE05, offset: 0x3FE05, size: 0x8, addend: 0x0, symName: __ZNSt3__117__compressed_pairIPNS_12basic_stringIcNS_11char_traitsIcEENS_9allocatorIcEEEENS4_IS6_EEE5firstB8ue170006Ev, symObjAddr: 0x1E850, symBinAddr: 0x10001EF88, symSize: 0x24 }
  - { offsetInCU: 0x3FE2B, offset: 0x3FE2B, size: 0x8, addend: 0x0, symName: __ZNSt3__122__compressed_pair_elemIPNS_12basic_stringIcNS_11char_traitsIcEENS_9allocatorIcEEEELi0ELb0EE5__getB8ue170006Ev, symObjAddr: 0x1E874, symBinAddr: 0x10001EFAC, symSize: 0x14 }
  - { offsetInCU: 0x3FE6D, offset: 0x3FE6D, size: 0x8, addend: 0x0, symName: __ZNSt3__16vectorINS_12basic_stringIcNS_11char_traitsIcEENS_9allocatorIcEEEENS4_IS6_EEE21_ConstructTransactionC1B8ue170006ERS8_m, symObjAddr: 0x1E888, symBinAddr: 0x10001EFC0, symSize: 0x3C }
  - { offsetInCU: 0x3FEB5, offset: 0x3FEB5, size: 0x8, addend: 0x0, symName: __ZNSt3__116allocator_traitsINS_9allocatorINS_12basic_stringIcNS_11char_traitsIcEENS1_IcEEEEEEE9constructB8ue170006IS6_JEvEEvRS7_PT_DpOT0_, symObjAddr: 0x1E8C4, symBinAddr: 0x10001EFFC, symSize: 0x2C }
  - { offsetInCU: 0x3FEF7, offset: 0x3FEF7, size: 0x8, addend: 0x0, symName: __ZNSt3__16vectorINS_12basic_stringIcNS_11char_traitsIcEENS_9allocatorIcEEEENS4_IS6_EEE21_ConstructTransactionD1B8ue170006Ev, symObjAddr: 0x1E904, symBinAddr: 0x10001F03C, symSize: 0x2C }
  - { offsetInCU: 0x3FF21, offset: 0x3FF21, size: 0x8, addend: 0x0, symName: __ZNSt3__16vectorINS_12basic_stringIcNS_11char_traitsIcEENS_9allocatorIcEEEENS4_IS6_EEE21_ConstructTransactionC2B8ue170006ERS8_m, symObjAddr: 0x1E930, symBinAddr: 0x10001F068, symSize: 0x4C }
  - { offsetInCU: 0x3FF69, offset: 0x3FF69, size: 0x8, addend: 0x0, symName: __ZNSt3__19allocatorINS_12basic_stringIcNS_11char_traitsIcEENS0_IcEEEEE9constructB8ue170006IS5_JEEEvPT_DpOT0_, symObjAddr: 0x1E97C, symBinAddr: 0x10001F0B4, symSize: 0x28 }
  - { offsetInCU: 0x3FFAB, offset: 0x3FFAB, size: 0x8, addend: 0x0, symName: __ZNSt3__16vectorINS_12basic_stringIcNS_11char_traitsIcEENS_9allocatorIcEEEENS4_IS6_EEE21_ConstructTransactionD2B8ue170006Ev, symObjAddr: 0x1E9A4, symBinAddr: 0x10001F0DC, symSize: 0x20 }
  - { offsetInCU: 0x3FFD5, offset: 0x3FFD5, size: 0x8, addend: 0x0, symName: __ZNSt3__117__compressed_pairIPNS_12basic_stringIcNS_11char_traitsIcEENS_9allocatorIcEEEENS4_IS6_EEE6secondB8ue170006Ev, symObjAddr: 0x1E9C4, symBinAddr: 0x10001F0FC, symSize: 0x24 }
  - { offsetInCU: 0x3FFFB, offset: 0x3FFFB, size: 0x8, addend: 0x0, symName: __ZNSt3__122__compressed_pair_elemINS_9allocatorINS_12basic_stringIcNS_11char_traitsIcEENS1_IcEEEEEELi1ELb1EE5__getB8ue170006Ev, symObjAddr: 0x1E9E8, symBinAddr: 0x10001F120, symSize: 0x14 }
  - { offsetInCU: 0x40021, offset: 0x40021, size: 0x8, addend: 0x0, symName: __ZNKSt3__16vectorINS_12basic_stringIcNS_11char_traitsIcEENS_9allocatorIcEEEENS4_IS6_EEE8max_sizeEv, symObjAddr: 0x1E9FC, symBinAddr: 0x10001F134, symSize: 0x74 }
  - { offsetInCU: 0x40049, offset: 0x40049, size: 0x8, addend: 0x0, symName: __ZNKSt3__16vectorINS_12basic_stringIcNS_11char_traitsIcEENS_9allocatorIcEEEENS4_IS6_EEE20__throw_length_errorB8ue170006Ev, symObjAddr: 0x1EA70, symBinAddr: 0x10001F1A8, symSize: 0x1C }
  - { offsetInCU: 0x4006F, offset: 0x4006F, size: 0x8, addend: 0x0, symName: __ZNKSt3__16vectorINS_12basic_stringIcNS_11char_traitsIcEENS_9allocatorIcEEEENS4_IS6_EEE8capacityB8ue170006Ev, symObjAddr: 0x1EA8C, symBinAddr: 0x10001F1C4, symSize: 0x40 }
  - { offsetInCU: 0x400A0, offset: 0x400A0, size: 0x8, addend: 0x0, symName: __ZNSt3__116allocator_traitsINS_9allocatorINS_12basic_stringIcNS_11char_traitsIcEENS1_IcEEEEEEE8max_sizeB8ue170006IS7_vEEmRKS7_, symObjAddr: 0x1EACC, symBinAddr: 0x10001F204, symSize: 0x24 }
  - { offsetInCU: 0x400CE, offset: 0x400CE, size: 0x8, addend: 0x0, symName: __ZNKSt3__16vectorINS_12basic_stringIcNS_11char_traitsIcEENS_9allocatorIcEEEENS4_IS6_EEE7__allocB8ue170006Ev, symObjAddr: 0x1EAF0, symBinAddr: 0x10001F228, symSize: 0x28 }
  - { offsetInCU: 0x400F4, offset: 0x400F4, size: 0x8, addend: 0x0, symName: __ZNKSt3__19allocatorINS_12basic_stringIcNS_11char_traitsIcEENS0_IcEEEEE8max_sizeB8ue170006Ev, symObjAddr: 0x1EB18, symBinAddr: 0x10001F250, symSize: 0x18 }
  - { offsetInCU: 0x4011A, offset: 0x4011A, size: 0x8, addend: 0x0, symName: __ZNKSt3__117__compressed_pairIPNS_12basic_stringIcNS_11char_traitsIcEENS_9allocatorIcEEEENS4_IS6_EEE6secondB8ue170006Ev, symObjAddr: 0x1EB30, symBinAddr: 0x10001F268, symSize: 0x24 }
  - { offsetInCU: 0x40140, offset: 0x40140, size: 0x8, addend: 0x0, symName: __ZNKSt3__122__compressed_pair_elemINS_9allocatorINS_12basic_stringIcNS_11char_traitsIcEENS1_IcEEEEEELi1ELb1EE5__getB8ue170006Ev, symObjAddr: 0x1EB54, symBinAddr: 0x10001F28C, symSize: 0x14 }
  - { offsetInCU: 0x40166, offset: 0x40166, size: 0x8, addend: 0x0, symName: __ZNKSt3__16vectorINS_12basic_stringIcNS_11char_traitsIcEENS_9allocatorIcEEEENS4_IS6_EEE9__end_capB8ue170006Ev, symObjAddr: 0x1EB68, symBinAddr: 0x10001F2A0, symSize: 0x28 }
  - { offsetInCU: 0x4018C, offset: 0x4018C, size: 0x8, addend: 0x0, symName: __ZNKSt3__117__compressed_pairIPNS_12basic_stringIcNS_11char_traitsIcEENS_9allocatorIcEEEENS4_IS6_EEE5firstB8ue170006Ev, symObjAddr: 0x1EB90, symBinAddr: 0x10001F2C8, symSize: 0x24 }
  - { offsetInCU: 0x401B2, offset: 0x401B2, size: 0x8, addend: 0x0, symName: __ZNKSt3__122__compressed_pair_elemIPNS_12basic_stringIcNS_11char_traitsIcEENS_9allocatorIcEEEELi0ELb0EE5__getB8ue170006Ev, symObjAddr: 0x1EBB4, symBinAddr: 0x10001F2EC, symSize: 0x14 }
  - { offsetInCU: 0x401D8, offset: 0x401D8, size: 0x8, addend: 0x0, symName: __ZNSt3__114__split_bufferINS_12basic_stringIcNS_11char_traitsIcEENS_9allocatorIcEEEERNS4_IS6_EEEC2EmmS8_, symObjAddr: 0x1EBC8, symBinAddr: 0x10001F300, symSize: 0xE0 }
  - { offsetInCU: 0x4024C, offset: 0x4024C, size: 0x8, addend: 0x0, symName: __ZNSt3__117__compressed_pairIPNS_12basic_stringIcNS_11char_traitsIcEENS_9allocatorIcEEEERNS4_IS6_EEEC1B8ue170006IDnS9_EEOT_OT0_, symObjAddr: 0x1ECA8, symBinAddr: 0x10001F3E0, symSize: 0x3C }
  - { offsetInCU: 0x402A4, offset: 0x402A4, size: 0x8, addend: 0x0, symName: __ZNSt3__114__split_bufferINS_12basic_stringIcNS_11char_traitsIcEENS_9allocatorIcEEEERNS4_IS6_EEE7__allocB8ue170006Ev, symObjAddr: 0x1ED24, symBinAddr: 0x10001F45C, symSize: 0x28 }
  - { offsetInCU: 0x402CA, offset: 0x402CA, size: 0x8, addend: 0x0, symName: __ZNSt3__114__split_bufferINS_12basic_stringIcNS_11char_traitsIcEENS_9allocatorIcEEEERNS4_IS6_EEE9__end_capB8ue170006Ev, symObjAddr: 0x1ED4C, symBinAddr: 0x10001F484, symSize: 0x28 }
  - { offsetInCU: 0x402F0, offset: 0x402F0, size: 0x8, addend: 0x0, symName: __ZNSt3__117__compressed_pairIPNS_12basic_stringIcNS_11char_traitsIcEENS_9allocatorIcEEEERNS4_IS6_EEEC2B8ue170006IDnS9_EEOT_OT0_, symObjAddr: 0x1ED74, symBinAddr: 0x10001F4AC, symSize: 0x48 }
  - { offsetInCU: 0x40348, offset: 0x40348, size: 0x8, addend: 0x0, symName: __ZNSt3__122__compressed_pair_elemIPNS_12basic_stringIcNS_11char_traitsIcEENS_9allocatorIcEEEELi0ELb0EEC2B8ue170006IDnvEEOT_, symObjAddr: 0x1EDBC, symBinAddr: 0x10001F4F4, symSize: 0x1C }
  - { offsetInCU: 0x4038A, offset: 0x4038A, size: 0x8, addend: 0x0, symName: __ZNSt3__122__compressed_pair_elemIRNS_9allocatorINS_12basic_stringIcNS_11char_traitsIcEENS1_IcEEEEEELi1ELb0EEC2B8ue170006IS8_vEEOT_, symObjAddr: 0x1EDD8, symBinAddr: 0x10001F510, symSize: 0x20 }
  - { offsetInCU: 0x403CC, offset: 0x403CC, size: 0x8, addend: 0x0, symName: __ZNSt3__19allocatorINS_12basic_stringIcNS_11char_traitsIcEENS0_IcEEEEE8allocateB8ue170006Em, symObjAddr: 0x1EDF8, symBinAddr: 0x10001F530, symSize: 0x8C }
  - { offsetInCU: 0x40400, offset: 0x40400, size: 0x8, addend: 0x0, symName: __ZNSt3__117__compressed_pairIPNS_12basic_stringIcNS_11char_traitsIcEENS_9allocatorIcEEEERNS4_IS6_EEE6secondB8ue170006Ev, symObjAddr: 0x1EE84, symBinAddr: 0x10001F5BC, symSize: 0x28 }
  - { offsetInCU: 0x40426, offset: 0x40426, size: 0x8, addend: 0x0, symName: __ZNSt3__122__compressed_pair_elemIRNS_9allocatorINS_12basic_stringIcNS_11char_traitsIcEENS1_IcEEEEEELi1ELb0EE5__getB8ue170006Ev, symObjAddr: 0x1EEAC, symBinAddr: 0x10001F5E4, symSize: 0x18 }
  - { offsetInCU: 0x4044C, offset: 0x4044C, size: 0x8, addend: 0x0, symName: __ZNSt3__117__compressed_pairIPNS_12basic_stringIcNS_11char_traitsIcEENS_9allocatorIcEEEERNS4_IS6_EEE5firstB8ue170006Ev, symObjAddr: 0x1EEC4, symBinAddr: 0x10001F5FC, symSize: 0x24 }
  - { offsetInCU: 0x4047E, offset: 0x4047E, size: 0x8, addend: 0x0, symName: __ZNSt3__114__split_bufferINS_12basic_stringIcNS_11char_traitsIcEENS_9allocatorIcEEEERNS4_IS6_EEE21_ConstructTransactionC1B8ue170006EPPS6_m, symObjAddr: 0x1EEE8, symBinAddr: 0x10001F620, symSize: 0x3C }
  - { offsetInCU: 0x404C4, offset: 0x404C4, size: 0x8, addend: 0x0, symName: __ZNSt3__114__split_bufferINS_12basic_stringIcNS_11char_traitsIcEENS_9allocatorIcEEEERNS4_IS6_EEE21_ConstructTransactionD1B8ue170006Ev, symObjAddr: 0x1EF24, symBinAddr: 0x10001F65C, symSize: 0x2C }
  - { offsetInCU: 0x404EE, offset: 0x404EE, size: 0x8, addend: 0x0, symName: __ZNSt3__114__split_bufferINS_12basic_stringIcNS_11char_traitsIcEENS_9allocatorIcEEEERNS4_IS6_EEE21_ConstructTransactionC2B8ue170006EPPS6_m, symObjAddr: 0x1EF50, symBinAddr: 0x10001F688, symSize: 0x4C }
  - { offsetInCU: 0x40534, offset: 0x40534, size: 0x8, addend: 0x0, symName: __ZNSt3__114__split_bufferINS_12basic_stringIcNS_11char_traitsIcEENS_9allocatorIcEEEERNS4_IS6_EEE21_ConstructTransactionD2B8ue170006Ev, symObjAddr: 0x1EF9C, symBinAddr: 0x10001F6D4, symSize: 0x20 }
  - { offsetInCU: 0x4055E, offset: 0x4055E, size: 0x8, addend: 0x0, symName: __ZNKSt3__16vectorINS_12basic_stringIcNS_11char_traitsIcEENS_9allocatorIcEEEENS4_IS6_EEE17__annotate_deleteB8ue170006Ev, symObjAddr: 0x1EFBC, symBinAddr: 0x10001F6F4, symSize: 0xD4 }
  - { offsetInCU: 0x40584, offset: 0x40584, size: 0x8, addend: 0x0, symName: __ZNSt3__116reverse_iteratorIPNS_12basic_stringIcNS_11char_traitsIcEENS_9allocatorIcEEEEEC1B8ue170006ES7_, symObjAddr: 0x1F1C4, symBinAddr: 0x10001F8FC, symSize: 0x34 }
  - { offsetInCU: 0x405BC, offset: 0x405BC, size: 0x8, addend: 0x0, symName: __ZNKSt3__116reverse_iteratorIPNS_12basic_stringIcNS_11char_traitsIcEENS_9allocatorIcEEEEE4baseB8ue170006Ev, symObjAddr: 0x1F1F8, symBinAddr: 0x10001F930, symSize: 0x18 }
  - { offsetInCU: 0x405E2, offset: 0x405E2, size: 0x8, addend: 0x0, symName: __ZNKSt3__16vectorINS_12basic_stringIcNS_11char_traitsIcEENS_9allocatorIcEEEENS4_IS6_EEE14__annotate_newB8ue170006Em, symObjAddr: 0x1F24C, symBinAddr: 0x10001F984, symSize: 0xC8 }
  - { offsetInCU: 0x40617, offset: 0x40617, size: 0x8, addend: 0x0, symName: __ZNKSt3__16vectorINS_12basic_stringIcNS_11char_traitsIcEENS_9allocatorIcEEEENS4_IS6_EEE31__annotate_contiguous_containerB8ue170006EPKvSA_SA_SA_, symObjAddr: 0x1F314, symBinAddr: 0x10001FA4C, symSize: 0x20 }
  - { offsetInCU: 0x40669, offset: 0x40669, size: 0x8, addend: 0x0, symName: __ZNKSt3__16vectorINS_12basic_stringIcNS_11char_traitsIcEENS_9allocatorIcEEEENS4_IS6_EEE4dataB8ue170006Ev, symObjAddr: 0x1F334, symBinAddr: 0x10001FA6C, symSize: 0x28 }
  - { offsetInCU: 0x4068F, offset: 0x4068F, size: 0x8, addend: 0x0, symName: __ZNSt3__129_AllocatorDestroyRangeReverseINS_9allocatorINS_12basic_stringIcNS_11char_traitsIcEENS1_IcEEEEEENS_16reverse_iteratorIPS6_EEEC1B8ue170006ERS7_RSA_SD_, symObjAddr: 0x1F3A8, symBinAddr: 0x10001FAE0, symSize: 0x44 }
  - { offsetInCU: 0x406E6, offset: 0x406E6, size: 0x8, addend: 0x0, symName: __ZNSt3__116allocator_traitsINS_9allocatorINS_12basic_stringIcNS_11char_traitsIcEENS1_IcEEEEEEE9constructB8ue170006IS6_JRKS6_EvEEvRS7_PT_DpOT0_, symObjAddr: 0x1F434, symBinAddr: 0x10001FB6C, symSize: 0x34 }
  - { offsetInCU: 0x4073D, offset: 0x4073D, size: 0x8, addend: 0x0, symName: __ZNKSt3__116reverse_iteratorIPNS_12basic_stringIcNS_11char_traitsIcEENS_9allocatorIcEEEEEdeB8ue170006Ev, symObjAddr: 0x1F48C, symBinAddr: 0x10001FBC4, symSize: 0x28 }
  - { offsetInCU: 0x40771, offset: 0x40771, size: 0x8, addend: 0x0, symName: __ZNSt3__116reverse_iteratorIPNS_12basic_stringIcNS_11char_traitsIcEENS_9allocatorIcEEEEEppB8ue170006Ev, symObjAddr: 0x1F4B4, symBinAddr: 0x10001FBEC, symSize: 0x20 }
  - { offsetInCU: 0x40797, offset: 0x40797, size: 0x8, addend: 0x0, symName: __ZNSt3__128__exception_guard_exceptionsINS_29_AllocatorDestroyRangeReverseINS_9allocatorINS_12basic_stringIcNS_11char_traitsIcEENS2_IcEEEEEENS_16reverse_iteratorIPS7_EEEEE10__completeB8ue170006Ev, symObjAddr: 0x1F4D4, symBinAddr: 0x10001FC0C, symSize: 0x1C }
  - { offsetInCU: 0x407BD, offset: 0x407BD, size: 0x8, addend: 0x0, symName: __ZNSt3__128__exception_guard_exceptionsINS_29_AllocatorDestroyRangeReverseINS_9allocatorINS_12basic_stringIcNS_11char_traitsIcEENS2_IcEEEEEENS_16reverse_iteratorIPS7_EEEEED1B8ue170006Ev, symObjAddr: 0x1F4F0, symBinAddr: 0x10001FC28, symSize: 0x2C }
  - { offsetInCU: 0x407E7, offset: 0x407E7, size: 0x8, addend: 0x0, symName: __ZNSt3__128__exception_guard_exceptionsINS_29_AllocatorDestroyRangeReverseINS_9allocatorINS_12basic_stringIcNS_11char_traitsIcEENS2_IcEEEEEENS_16reverse_iteratorIPS7_EEEEEC1B8ue170006ESC_, symObjAddr: 0x1F51C, symBinAddr: 0x10001FC54, symSize: 0x34 }
  - { offsetInCU: 0x40820, offset: 0x40820, size: 0x8, addend: 0x0, symName: __ZNSt3__128__exception_guard_exceptionsINS_29_AllocatorDestroyRangeReverseINS_9allocatorINS_12basic_stringIcNS_11char_traitsIcEENS2_IcEEEEEENS_16reverse_iteratorIPS7_EEEEEC2B8ue170006ESC_, symObjAddr: 0x1F550, symBinAddr: 0x10001FC88, symSize: 0x30 }
  - { offsetInCU: 0x40859, offset: 0x40859, size: 0x8, addend: 0x0, symName: __ZNSt3__129_AllocatorDestroyRangeReverseINS_9allocatorINS_12basic_stringIcNS_11char_traitsIcEENS1_IcEEEEEENS_16reverse_iteratorIPS6_EEEC2B8ue170006ERS7_RSA_SD_, symObjAddr: 0x1F580, symBinAddr: 0x10001FCB8, symSize: 0x38 }
  - { offsetInCU: 0x408B0, offset: 0x408B0, size: 0x8, addend: 0x0, symName: __ZNSt3__19allocatorINS_12basic_stringIcNS_11char_traitsIcEENS0_IcEEEEE9constructB8ue170006IS5_JRKS5_EEEvPT_DpOT0_, symObjAddr: 0x1F5B8, symBinAddr: 0x10001FCF0, symSize: 0x30 }
  - { offsetInCU: 0x4090C, offset: 0x4090C, size: 0x8, addend: 0x0, symName: __ZNSt3__119__to_address_helperINS_16reverse_iteratorIPNS_12basic_stringIcNS_11char_traitsIcEENS_9allocatorIcEEEEEEvE6__callB8ue170006ERKS9_, symObjAddr: 0x1F5E8, symBinAddr: 0x10001FD20, symSize: 0x4C }
  - { offsetInCU: 0x4092F, offset: 0x4092F, size: 0x8, addend: 0x0, symName: __ZNKSt3__116reverse_iteratorIPNS_12basic_stringIcNS_11char_traitsIcEENS_9allocatorIcEEEEEptB8ue170006Ev, symObjAddr: 0x1F634, symBinAddr: 0x10001FD6C, symSize: 0x24 }
  - { offsetInCU: 0x40955, offset: 0x40955, size: 0x8, addend: 0x0, symName: __ZNSt3__128__exception_guard_exceptionsINS_29_AllocatorDestroyRangeReverseINS_9allocatorINS_12basic_stringIcNS_11char_traitsIcEENS2_IcEEEEEENS_16reverse_iteratorIPS7_EEEEED2B8ue170006Ev, symObjAddr: 0x1F658, symBinAddr: 0x10001FD90, symSize: 0x48 }
  - { offsetInCU: 0x4097F, offset: 0x4097F, size: 0x8, addend: 0x0, symName: __ZNKSt3__129_AllocatorDestroyRangeReverseINS_9allocatorINS_12basic_stringIcNS_11char_traitsIcEENS1_IcEEEEEENS_16reverse_iteratorIPS6_EEEclB8ue170006Ev, symObjAddr: 0x1F6A0, symBinAddr: 0x10001FDD8, symSize: 0xB4 }
  - { offsetInCU: 0x409A6, offset: 0x409A6, size: 0x8, addend: 0x0, symName: __ZNSt3__116reverse_iteratorINS0_IPNS_12basic_stringIcNS_11char_traitsIcEENS_9allocatorIcEEEEEEEC1B8ue170006ES8_, symObjAddr: 0x1F7C4, symBinAddr: 0x10001FEFC, symSize: 0x3C }
  - { offsetInCU: 0x409DE, offset: 0x409DE, size: 0x8, addend: 0x0, symName: __ZNSt3__116allocator_traitsINS_9allocatorINS_12basic_stringIcNS_11char_traitsIcEENS1_IcEEEEEEE7destroyB8ue170006IS6_vEEvRS7_PT_, symObjAddr: 0x1F860, symBinAddr: 0x10001FF98, symSize: 0x2C }
  - { offsetInCU: 0x40A1B, offset: 0x40A1B, size: 0x8, addend: 0x0, symName: __ZNSt3__116reverse_iteratorINS0_IPNS_12basic_stringIcNS_11char_traitsIcEENS_9allocatorIcEEEEEEEppB8ue170006Ev, symObjAddr: 0x1F8B0, symBinAddr: 0x10001FFE8, symSize: 0x30 }
  - { offsetInCU: 0x40A41, offset: 0x40A41, size: 0x8, addend: 0x0, symName: __ZNKSt3__116reverse_iteratorINS0_IPNS_12basic_stringIcNS_11char_traitsIcEENS_9allocatorIcEEEEEEE4baseB8ue170006Ev, symObjAddr: 0x1F8E0, symBinAddr: 0x100020018, symSize: 0x24 }
  - { offsetInCU: 0x40A67, offset: 0x40A67, size: 0x8, addend: 0x0, symName: __ZNSt3__19allocatorINS_12basic_stringIcNS_11char_traitsIcEENS0_IcEEEEE7destroyB8ue170006EPS5_, symObjAddr: 0x1F904, symBinAddr: 0x10002003C, symSize: 0x28 }
  - { offsetInCU: 0x40AA1, offset: 0x40AA1, size: 0x8, addend: 0x0, symName: __ZNSt3__119__to_address_helperINS_16reverse_iteratorINS1_IPNS_12basic_stringIcNS_11char_traitsIcEENS_9allocatorIcEEEEEEEEvE6__callB8ue170006ERKSA_, symObjAddr: 0x1F92C, symBinAddr: 0x100020064, symSize: 0x4C }
  - { offsetInCU: 0x40AC4, offset: 0x40AC4, size: 0x8, addend: 0x0, symName: __ZNKSt3__116reverse_iteratorINS0_IPNS_12basic_stringIcNS_11char_traitsIcEENS_9allocatorIcEEEEEEEptB8ue170006Ev, symObjAddr: 0x1F978, symBinAddr: 0x1000200B0, symSize: 0x24 }
  - { offsetInCU: 0x40AEA, offset: 0x40AEA, size: 0x8, addend: 0x0, symName: __ZNKSt3__116reverse_iteratorINS0_IPNS_12basic_stringIcNS_11char_traitsIcEENS_9allocatorIcEEEEEEEdeB8ue170006Ev, symObjAddr: 0x1F99C, symBinAddr: 0x1000200D4, symSize: 0x34 }
  - { offsetInCU: 0x40B1E, offset: 0x40B1E, size: 0x8, addend: 0x0, symName: __ZNSt3__116reverse_iteratorIPNS_12basic_stringIcNS_11char_traitsIcEENS_9allocatorIcEEEEEmmB8ue170006Ev, symObjAddr: 0x1F9D0, symBinAddr: 0x100020108, symSize: 0x20 }
  - { offsetInCU: 0x40B44, offset: 0x40B44, size: 0x8, addend: 0x0, symName: __ZNSt3__116reverse_iteratorINS0_IPNS_12basic_stringIcNS_11char_traitsIcEENS_9allocatorIcEEEEEEEC2B8ue170006ES8_, symObjAddr: 0x1F9F0, symBinAddr: 0x100020128, symSize: 0x2C }
  - { offsetInCU: 0x40B7C, offset: 0x40B7C, size: 0x8, addend: 0x0, symName: __ZNSt3__116reverse_iteratorIPNS_12basic_stringIcNS_11char_traitsIcEENS_9allocatorIcEEEEEC2B8ue170006ES7_, symObjAddr: 0x1FA1C, symBinAddr: 0x100020154, symSize: 0x28 }
  - { offsetInCU: 0x40BB4, offset: 0x40BB4, size: 0x8, addend: 0x0, symName: __ZNSt3__114__split_bufferINS_12basic_stringIcNS_11char_traitsIcEENS_9allocatorIcEEEERNS4_IS6_EEED2Ev, symObjAddr: 0x1FA44, symBinAddr: 0x10002017C, symSize: 0x80 }
  - { offsetInCU: 0x40BE0, offset: 0x40BE0, size: 0x8, addend: 0x0, symName: __ZNSt3__114__split_bufferINS_12basic_stringIcNS_11char_traitsIcEENS_9allocatorIcEEEERNS4_IS6_EEE5clearB8ue170006Ev, symObjAddr: 0x1FAC4, symBinAddr: 0x1000201FC, symSize: 0x28 }
  - { offsetInCU: 0x40C06, offset: 0x40C06, size: 0x8, addend: 0x0, symName: __ZNSt3__116allocator_traitsINS_9allocatorINS_12basic_stringIcNS_11char_traitsIcEENS1_IcEEEEEEE10deallocateB8ue170006ERS7_PS6_m, symObjAddr: 0x1FAEC, symBinAddr: 0x100020224, symSize: 0x34 }
  - { offsetInCU: 0x40C48, offset: 0x40C48, size: 0x8, addend: 0x0, symName: __ZNKSt3__114__split_bufferINS_12basic_stringIcNS_11char_traitsIcEENS_9allocatorIcEEEERNS4_IS6_EEE8capacityB8ue170006Ev, symObjAddr: 0x1FB20, symBinAddr: 0x100020258, symSize: 0x40 }
  - { offsetInCU: 0x40C6E, offset: 0x40C6E, size: 0x8, addend: 0x0, symName: __ZNSt3__114__split_bufferINS_12basic_stringIcNS_11char_traitsIcEENS_9allocatorIcEEEERNS4_IS6_EEE17__destruct_at_endB8ue170006EPS6_, symObjAddr: 0x1FB60, symBinAddr: 0x100020298, symSize: 0x2C }
  - { offsetInCU: 0x40CA2, offset: 0x40CA2, size: 0x8, addend: 0x0, symName: __ZNSt3__114__split_bufferINS_12basic_stringIcNS_11char_traitsIcEENS_9allocatorIcEEEERNS4_IS6_EEE17__destruct_at_endB8ue170006EPS6_NS_17integral_constantIbLb0EEE, symObjAddr: 0x1FB8C, symBinAddr: 0x1000202C4, symSize: 0x94 }
  - { offsetInCU: 0x40CE2, offset: 0x40CE2, size: 0x8, addend: 0x0, symName: __ZNSt3__19allocatorINS_12basic_stringIcNS_11char_traitsIcEENS0_IcEEEEE10deallocateB8ue170006EPS5_m, symObjAddr: 0x1FC20, symBinAddr: 0x100020358, symSize: 0x74 }
  - { offsetInCU: 0x40D24, offset: 0x40D24, size: 0x8, addend: 0x0, symName: __ZNKSt3__114__split_bufferINS_12basic_stringIcNS_11char_traitsIcEENS_9allocatorIcEEEERNS4_IS6_EEE9__end_capB8ue170006Ev, symObjAddr: 0x1FC94, symBinAddr: 0x1000203CC, symSize: 0x28 }
  - { offsetInCU: 0x40D4A, offset: 0x40D4A, size: 0x8, addend: 0x0, symName: __ZNKSt3__117__compressed_pairIPNS_12basic_stringIcNS_11char_traitsIcEENS_9allocatorIcEEEERNS4_IS6_EEE5firstB8ue170006Ev, symObjAddr: 0x1FCBC, symBinAddr: 0x1000203F4, symSize: 0x24 }
  - { offsetInCU: 0x40D70, offset: 0x40D70, size: 0x8, addend: 0x0, symName: __ZNSt3__16vectorINS_12basic_stringIcNS_11char_traitsIcEENS_9allocatorIcEEEENS4_IS6_EEE22__base_destruct_at_endB8ue170006EPS6_, symObjAddr: 0x1FCE0, symBinAddr: 0x100020418, symSize: 0xA0 }
  - { offsetInCU: 0x40DB4, offset: 0x40DB4, size: 0x8, addend: 0x0, symName: __ZNKSt3__16vectorINS_12basic_stringIcNS_11char_traitsIcEENS_9allocatorIcEEEENS4_IS6_EEE17__annotate_shrinkB8ue170006Em, symObjAddr: 0x1FD80, symBinAddr: 0x1000204B8, symSize: 0xD0 }
  - { offsetInCU: 0x40E11, offset: 0x40E11, size: 0x8, addend: 0x0, symName: __ZNKSt3__111__copy_loopINS_17_ClassicAlgPolicyEEclB8ue170006IPNS_12basic_stringIcNS_11char_traitsIcEENS_9allocatorIcEEEESA_SA_EENS_4pairIT_T1_EESC_T0_SD_, symObjAddr: 0x20054, symBinAddr: 0x10002078C, symSize: 0x88 }
  - { offsetInCU: 0x40E7C, offset: 0x40E7C, size: 0x8, addend: 0x0, symName: __ZNSt3__14pairIPNS_12basic_stringIcNS_11char_traitsIcEENS_9allocatorIcEEEES7_EC1B8ue170006ERKS7_SA_, symObjAddr: 0x20214, symBinAddr: 0x10002094C, symSize: 0x3C }
  - { offsetInCU: 0x40EC2, offset: 0x40EC2, size: 0x8, addend: 0x0, symName: __ZNSt3__14pairIPNS_12basic_stringIcNS_11char_traitsIcEENS_9allocatorIcEEEES7_EC2B8ue170006ERKS7_SA_, symObjAddr: 0x20250, symBinAddr: 0x100020988, symSize: 0x34 }
  - { offsetInCU: 0x40F08, offset: 0x40F08, size: 0x8, addend: 0x0, symName: __ZNSt3__118__unwrap_iter_implINS_11__wrap_iterIPNS_12basic_stringIcNS_11char_traitsIcEENS_9allocatorIcEEEEEELb1EE8__unwrapB8ue170006ES9_, symObjAddr: 0x20284, symBinAddr: 0x1000209BC, symSize: 0x28 }
  - { offsetInCU: 0x40F37, offset: 0x40F37, size: 0x8, addend: 0x0, symName: __ZNSt3__119__to_address_helperINS_11__wrap_iterIPNS_12basic_stringIcNS_11char_traitsIcEENS_9allocatorIcEEEEEEvE6__callB8ue170006ERKS9_, symObjAddr: 0x202D0, symBinAddr: 0x100020A08, symSize: 0x30 }
  - { offsetInCU: 0x40F5A, offset: 0x40F5A, size: 0x8, addend: 0x0, symName: __ZNSt3__114pointer_traitsINS_11__wrap_iterIPNS_12basic_stringIcNS_11char_traitsIcEENS_9allocatorIcEEEEEEE10to_addressB8ue170006ES9_, symObjAddr: 0x20300, symBinAddr: 0x100020A38, symSize: 0x2C }
  - { offsetInCU: 0x40F7D, offset: 0x40F7D, size: 0x8, addend: 0x0, symName: __ZNKSt3__111__wrap_iterIPNS_12basic_stringIcNS_11char_traitsIcEENS_9allocatorIcEEEEE4baseB8ue170006Ev, symObjAddr: 0x2032C, symBinAddr: 0x100020A64, symSize: 0x18 }
  - { offsetInCU: 0x40FC0, offset: 0x40FC0, size: 0x8, addend: 0x0, symName: __ZNSt3__14pairINS_11__wrap_iterIPNS_12basic_stringIcNS_11char_traitsIcEENS_9allocatorIcEEEEEES9_EC1B8ue170006ERKS9_SC_, symObjAddr: 0x20344, symBinAddr: 0x100020A7C, symSize: 0x3C }
  - { offsetInCU: 0x41006, offset: 0x41006, size: 0x8, addend: 0x0, symName: __ZNSt3__14pairINS_11__wrap_iterIPNS_12basic_stringIcNS_11char_traitsIcEENS_9allocatorIcEEEEEES9_EC2B8ue170006ERKS9_SC_, symObjAddr: 0x20380, symBinAddr: 0x100020AB8, symSize: 0x34 }
  - { offsetInCU: 0x4104C, offset: 0x4104C, size: 0x8, addend: 0x0, symName: __ZNSt3__118__unwrap_iter_implINS_11__wrap_iterIPNS_12basic_stringIcNS_11char_traitsIcEENS_9allocatorIcEEEEEELb1EE8__rewrapB8ue170006ES9_S8_, symObjAddr: 0x203B4, symBinAddr: 0x100020AEC, symSize: 0x5C }
  - { offsetInCU: 0x4107D, offset: 0x4107D, size: 0x8, addend: 0x0, symName: __ZNKSt3__111__wrap_iterIPNS_12basic_stringIcNS_11char_traitsIcEENS_9allocatorIcEEEEEplB8ue170006El, symObjAddr: 0x20410, symBinAddr: 0x100020B48, symSize: 0x3C }
  - { offsetInCU: 0x410BF, offset: 0x410BF, size: 0x8, addend: 0x0, symName: __ZNSt3__111__wrap_iterIPNS_12basic_stringIcNS_11char_traitsIcEENS_9allocatorIcEEEEEpLB8ue170006El, symObjAddr: 0x2044C, symBinAddr: 0x100020B84, symSize: 0x30 }
  - { offsetInCU: 0x410F3, offset: 0x410F3, size: 0x8, addend: 0x0, symName: __ZNSt3__16vectorINS_12basic_stringIcNS_11char_traitsIcEENS_9allocatorIcEEEENS4_IS6_EEE11__make_iterB8ue170006EPS6_, symObjAddr: 0x2047C, symBinAddr: 0x100020BB4, symSize: 0x30 }
  - { offsetInCU: 0x41128, offset: 0x41128, size: 0x8, addend: 0x0, symName: __ZNSt3__111__wrap_iterIPNS_12basic_stringIcNS_11char_traitsIcEENS_9allocatorIcEEEEEC1B8ue170006ES7_, symObjAddr: 0x204AC, symBinAddr: 0x100020BE4, symSize: 0x34 }
  - { offsetInCU: 0x41160, offset: 0x41160, size: 0x8, addend: 0x0, symName: __ZNSt3__111__wrap_iterIPNS_12basic_stringIcNS_11char_traitsIcEENS_9allocatorIcEEEEEC2B8ue170006ES7_, symObjAddr: 0x204E0, symBinAddr: 0x100020C18, symSize: 0x20 }
  - { offsetInCU: 0x41198, offset: 0x41198, size: 0x8, addend: 0x0, symName: __ZN12InterfaceASTC2EP13IdentifierASTNSt3__16vectorIP18AbstractSyntaxTreeNS2_9allocatorIS5_EEEENS3_I14AccessModifierNS6_IS9_EEEEi, symObjAddr: 0x20500, symBinAddr: 0x100020C38, symSize: 0x1DC }
  - { offsetInCU: 0x411FC, offset: 0x411FC, size: 0x8, addend: 0x0, symName: __ZN5IfASTC2EP18AbstractSyntaxTreeP7CodeASTi, symObjAddr: 0x206DC, symBinAddr: 0x100020E14, symSize: 0x68 }
  - { offsetInCU: 0x41250, offset: 0x41250, size: 0x8, addend: 0x0, symName: __ZN7ElifASTC2EP18AbstractSyntaxTreeP7CodeASTi, symObjAddr: 0x20744, symBinAddr: 0x100020E7C, symSize: 0x68 }
  - { offsetInCU: 0x412A4, offset: 0x412A4, size: 0x8, addend: 0x0, symName: __ZN7ElseASTC2EP7CodeASTi, symObjAddr: 0x207AC, symBinAddr: 0x100020EE4, symSize: 0x5C }
  - { offsetInCU: 0x412EA, offset: 0x412EA, size: 0x8, addend: 0x0, symName: __ZN6ForASTC2EP18AbstractSyntaxTreeS1_S1_P7CodeASTi, symObjAddr: 0x20808, symBinAddr: 0x100020F40, symSize: 0x80 }
  - { offsetInCU: 0x4135A, offset: 0x4135A, size: 0x8, addend: 0x0, symName: __ZN8WhileASTC2EP18AbstractSyntaxTreeP7CodeASTi, symObjAddr: 0x20888, symBinAddr: 0x100020FC0, symSize: 0x68 }
  - { offsetInCU: 0x413AE, offset: 0x413AE, size: 0x8, addend: 0x0, symName: __ZN5LexerC2ENSt3__112basic_stringIcNS0_11char_traitsIcEENS0_9allocatorIcEEEE, symObjAddr: 0x208F0, symBinAddr: 0x100021028, symSize: 0x308 }
  - { offsetInCU: 0x413E7, offset: 0x413E7, size: 0x8, addend: 0x0, symName: __ZNSt3__15dequeIP5TokenNS_9allocatorIS2_EEEC1B8ue170006Ev, symObjAddr: 0x20BF8, symBinAddr: 0x100021330, symSize: 0x2C }
  - { offsetInCU: 0x41411, offset: 0x41411, size: 0x8, addend: 0x0, symName: __ZNSt3__111basic_regexIcNS_12regex_traitsIcEEEC1B8ue170006Ev, symObjAddr: 0x20C24, symBinAddr: 0x10002135C, symSize: 0x2C }
  - { offsetInCU: 0x4143B, offset: 0x4143B, size: 0x8, addend: 0x0, symName: __ZNSt3__111basic_regexIcNS_12regex_traitsIcEEEC1B8ue170006EPKcNS_15regex_constants18syntax_option_typeE, symObjAddr: 0x20C50, symBinAddr: 0x100021388, symSize: 0x3C }
  - { offsetInCU: 0x4148F, offset: 0x4148F, size: 0x8, addend: 0x0, symName: __ZNSt3__111basic_regexIcNS_12regex_traitsIcEEEaSERKS3_, symObjAddr: 0x20C8C, symBinAddr: 0x1000213C4, symSize: 0x60 }
  - { offsetInCU: 0x414C1, offset: 0x414C1, size: 0x8, addend: 0x0, symName: __ZNSt3__111basic_regexIcNS_12regex_traitsIcEEED1Ev, symObjAddr: 0x20CEC, symBinAddr: 0x100021424, symSize: 0x2C }
  - { offsetInCU: 0x414EE, offset: 0x414EE, size: 0x8, addend: 0x0, symName: __ZNSt3__15dequeIP5TokenNS_9allocatorIS2_EEED1B8ue170006Ev, symObjAddr: 0x20D18, symBinAddr: 0x100021450, symSize: 0x2C }
  - { offsetInCU: 0x41518, offset: 0x41518, size: 0x8, addend: 0x0, symName: __ZNSt3__15dequeIP5TokenNS_9allocatorIS2_EEEC2B8ue170006Ev, symObjAddr: 0x20D44, symBinAddr: 0x10002147C, symSize: 0x84 }
  - { offsetInCU: 0x41542, offset: 0x41542, size: 0x8, addend: 0x0, symName: __ZNSt3__114__split_bufferIPP5TokenNS_9allocatorIS3_EEEC1B8ue170006Ev, symObjAddr: 0x20DC8, symBinAddr: 0x100021500, symSize: 0x2C }
  - { offsetInCU: 0x41578, offset: 0x41578, size: 0x8, addend: 0x0, symName: __ZNSt3__117__compressed_pairImNS_9allocatorIP5TokenEEEC1B8ue170006IiNS_18__default_init_tagEEEOT_OT0_, symObjAddr: 0x20DF4, symBinAddr: 0x10002152C, symSize: 0x3C }
  - { offsetInCU: 0x415D0, offset: 0x415D0, size: 0x8, addend: 0x0, symName: __ZNKSt3__15dequeIP5TokenNS_9allocatorIS2_EEE14__annotate_newB8ue170006Em, symObjAddr: 0x20E30, symBinAddr: 0x100021568, symSize: 0xDC }
  - { offsetInCU: 0x41605, offset: 0x41605, size: 0x8, addend: 0x0, symName: __ZNSt3__114__split_bufferIPP5TokenNS_9allocatorIS3_EEED1Ev, symObjAddr: 0x20F0C, symBinAddr: 0x100021644, symSize: 0x2C }
  - { offsetInCU: 0x41631, offset: 0x41631, size: 0x8, addend: 0x0, symName: __ZNSt3__114__split_bufferIPP5TokenNS_9allocatorIS3_EEEC2B8ue170006Ev, symObjAddr: 0x20F38, symBinAddr: 0x100021670, symSize: 0x48 }
  - { offsetInCU: 0x4165B, offset: 0x4165B, size: 0x8, addend: 0x0, symName: __ZNSt3__117__compressed_pairIPPP5TokenNS_9allocatorIS3_EEEC1B8ue170006IDnNS_18__default_init_tagEEEOT_OT0_, symObjAddr: 0x20F80, symBinAddr: 0x1000216B8, symSize: 0x3C }
  - { offsetInCU: 0x416B3, offset: 0x416B3, size: 0x8, addend: 0x0, symName: __ZNSt3__117__compressed_pairIPPP5TokenNS_9allocatorIS3_EEEC2B8ue170006IDnNS_18__default_init_tagEEEOT_OT0_, symObjAddr: 0x20FBC, symBinAddr: 0x1000216F4, symSize: 0x40 }
  - { offsetInCU: 0x4170B, offset: 0x4170B, size: 0x8, addend: 0x0, symName: __ZNSt3__122__compressed_pair_elemIPPP5TokenLi0ELb0EEC2B8ue170006IDnvEEOT_, symObjAddr: 0x20FFC, symBinAddr: 0x100021734, symSize: 0x1C }
  - { offsetInCU: 0x4174D, offset: 0x4174D, size: 0x8, addend: 0x0, symName: __ZNSt3__122__compressed_pair_elemINS_9allocatorIPP5TokenEELi1ELb1EEC2B8ue170006ENS_18__default_init_tagE, symObjAddr: 0x21018, symBinAddr: 0x100021750, symSize: 0x2C }
  - { offsetInCU: 0x41781, offset: 0x41781, size: 0x8, addend: 0x0, symName: __ZNSt3__19allocatorIPP5TokenEC2B8ue170006Ev, symObjAddr: 0x21044, symBinAddr: 0x10002177C, symSize: 0x2C }
  - { offsetInCU: 0x417AB, offset: 0x417AB, size: 0x8, addend: 0x0, symName: __ZNSt3__116__non_trivial_ifILb1ENS_9allocatorIPP5TokenEEEC2B8ue170006Ev, symObjAddr: 0x21070, symBinAddr: 0x1000217A8, symSize: 0x14 }
  - { offsetInCU: 0x417D5, offset: 0x417D5, size: 0x8, addend: 0x0, symName: __ZNSt3__117__compressed_pairImNS_9allocatorIP5TokenEEEC2B8ue170006IiNS_18__default_init_tagEEEOT_OT0_, symObjAddr: 0x21084, symBinAddr: 0x1000217BC, symSize: 0x40 }
  - { offsetInCU: 0x4182D, offset: 0x4182D, size: 0x8, addend: 0x0, symName: __ZNSt3__122__compressed_pair_elemImLi0ELb0EEC2B8ue170006IivEEOT_, symObjAddr: 0x210C4, symBinAddr: 0x1000217FC, symSize: 0x24 }
  - { offsetInCU: 0x4186F, offset: 0x4186F, size: 0x8, addend: 0x0, symName: __ZNSt3__122__compressed_pair_elemINS_9allocatorIP5TokenEELi1ELb1EEC2B8ue170006ENS_18__default_init_tagE, symObjAddr: 0x210E8, symBinAddr: 0x100021820, symSize: 0x2C }
  - { offsetInCU: 0x418A3, offset: 0x418A3, size: 0x8, addend: 0x0, symName: __ZNSt3__19allocatorIP5TokenEC2B8ue170006Ev, symObjAddr: 0x21114, symBinAddr: 0x10002184C, symSize: 0x2C }
  - { offsetInCU: 0x418CD, offset: 0x418CD, size: 0x8, addend: 0x0, symName: __ZNSt3__116__non_trivial_ifILb1ENS_9allocatorIP5TokenEEEC2B8ue170006Ev, symObjAddr: 0x21140, symBinAddr: 0x100021878, symSize: 0x14 }
  - { offsetInCU: 0x418F7, offset: 0x418F7, size: 0x8, addend: 0x0, symName: __ZNKSt3__15dequeIP5TokenNS_9allocatorIS2_EEE18__annotate_from_toB8ue170006EmmNS5_22__asan_annotation_typeENS5_23__asan_annotation_placeE, symObjAddr: 0x21154, symBinAddr: 0x10002188C, symSize: 0x580 }
  - { offsetInCU: 0x41AB5, offset: 0x41AB5, size: 0x8, addend: 0x0, symName: __ZNKSt3__114__split_bufferIPP5TokenNS_9allocatorIS3_EEE4sizeB8ue170006Ev, symObjAddr: 0x216D4, symBinAddr: 0x100021E0C, symSize: 0x28 }
  - { offsetInCU: 0x41ADB, offset: 0x41ADB, size: 0x8, addend: 0x0, symName: __ZNKSt3__114__split_bufferIPP5TokenNS_9allocatorIS3_EEE5beginB8ue170006Ev, symObjAddr: 0x216FC, symBinAddr: 0x100021E34, symSize: 0x18 }
  - { offsetInCU: 0x41B01, offset: 0x41B01, size: 0x8, addend: 0x0, symName: __ZNKSt3__15dequeIP5TokenNS_9allocatorIS2_EEE5emptyB8ue170006Ev, symObjAddr: 0x21714, symBinAddr: 0x100021E4C, symSize: 0x30 }
  - { offsetInCU: 0x41B27, offset: 0x41B27, size: 0x8, addend: 0x0, symName: __ZNKSt3__15dequeIP5TokenNS_9allocatorIS2_EEE44__annotate_double_ended_contiguous_containerB8ue170006EPKvS7_S7_S7_S7_S7_, symObjAddr: 0x21758, symBinAddr: 0x100021E90, symSize: 0x28 }
  - { offsetInCU: 0x41B8F, offset: 0x41B8F, size: 0x8, addend: 0x0, symName: __ZNSt3__114__split_bufferIPP5TokenNS_9allocatorIS3_EEED2Ev, symObjAddr: 0x21780, symBinAddr: 0x100021EB8, symSize: 0x80 }
  - { offsetInCU: 0x41BBB, offset: 0x41BBB, size: 0x8, addend: 0x0, symName: __ZNSt3__114__split_bufferIPP5TokenNS_9allocatorIS3_EEE5clearB8ue170006Ev, symObjAddr: 0x21800, symBinAddr: 0x100021F38, symSize: 0x28 }
  - { offsetInCU: 0x41BE1, offset: 0x41BE1, size: 0x8, addend: 0x0, symName: __ZNSt3__116allocator_traitsINS_9allocatorIPP5TokenEEE10deallocateB8ue170006ERS5_PS4_m, symObjAddr: 0x21828, symBinAddr: 0x100021F60, symSize: 0x34 }
  - { offsetInCU: 0x41C23, offset: 0x41C23, size: 0x8, addend: 0x0, symName: __ZNSt3__114__split_bufferIPP5TokenNS_9allocatorIS3_EEE7__allocB8ue170006Ev, symObjAddr: 0x2185C, symBinAddr: 0x100021F94, symSize: 0x28 }
  - { offsetInCU: 0x41C49, offset: 0x41C49, size: 0x8, addend: 0x0, symName: __ZNKSt3__114__split_bufferIPP5TokenNS_9allocatorIS3_EEE8capacityB8ue170006Ev, symObjAddr: 0x21884, symBinAddr: 0x100021FBC, symSize: 0x40 }
  - { offsetInCU: 0x41C6F, offset: 0x41C6F, size: 0x8, addend: 0x0, symName: __ZNSt3__114__split_bufferIPP5TokenNS_9allocatorIS3_EEE17__destruct_at_endB8ue170006EPS3_, symObjAddr: 0x218C4, symBinAddr: 0x100021FFC, symSize: 0x2C }
  - { offsetInCU: 0x41CA3, offset: 0x41CA3, size: 0x8, addend: 0x0, symName: __ZNSt3__114__split_bufferIPP5TokenNS_9allocatorIS3_EEE17__destruct_at_endB8ue170006EPS3_NS_17integral_constantIbLb0EEE, symObjAddr: 0x218F0, symBinAddr: 0x100022028, symSize: 0x94 }
  - { offsetInCU: 0x41CE3, offset: 0x41CE3, size: 0x8, addend: 0x0, symName: __ZNSt3__116allocator_traitsINS_9allocatorIPP5TokenEEE7destroyB8ue170006IS4_vEEvRS5_PT_, symObjAddr: 0x21984, symBinAddr: 0x1000220BC, symSize: 0x2C }
  - { offsetInCU: 0x41D20, offset: 0x41D20, size: 0x8, addend: 0x0, symName: __ZNSt3__19allocatorIPP5TokenE7destroyB8ue170006EPS3_, symObjAddr: 0x219C4, symBinAddr: 0x1000220FC, symSize: 0x14 }
  - { offsetInCU: 0x41D54, offset: 0x41D54, size: 0x8, addend: 0x0, symName: __ZNSt3__19allocatorIPP5TokenE10deallocateB8ue170006EPS3_m, symObjAddr: 0x219D8, symBinAddr: 0x100022110, symSize: 0x70 }
  - { offsetInCU: 0x41D96, offset: 0x41D96, size: 0x8, addend: 0x0, symName: __ZNSt3__117__compressed_pairIPPP5TokenNS_9allocatorIS3_EEE6secondB8ue170006Ev, symObjAddr: 0x21A48, symBinAddr: 0x100022180, symSize: 0x24 }
  - { offsetInCU: 0x41DBC, offset: 0x41DBC, size: 0x8, addend: 0x0, symName: __ZNSt3__122__compressed_pair_elemINS_9allocatorIPP5TokenEELi1ELb1EE5__getB8ue170006Ev, symObjAddr: 0x21A6C, symBinAddr: 0x1000221A4, symSize: 0x14 }
  - { offsetInCU: 0x41DE2, offset: 0x41DE2, size: 0x8, addend: 0x0, symName: __ZNKSt3__114__split_bufferIPP5TokenNS_9allocatorIS3_EEE9__end_capB8ue170006Ev, symObjAddr: 0x21A80, symBinAddr: 0x1000221B8, symSize: 0x28 }
  - { offsetInCU: 0x41E08, offset: 0x41E08, size: 0x8, addend: 0x0, symName: __ZNKSt3__117__compressed_pairIPPP5TokenNS_9allocatorIS3_EEE5firstB8ue170006Ev, symObjAddr: 0x21AA8, symBinAddr: 0x1000221E0, symSize: 0x24 }
  - { offsetInCU: 0x41E2E, offset: 0x41E2E, size: 0x8, addend: 0x0, symName: __ZNKSt3__122__compressed_pair_elemIPPP5TokenLi0ELb0EE5__getB8ue170006Ev, symObjAddr: 0x21ACC, symBinAddr: 0x100022204, symSize: 0x14 }
  - { offsetInCU: 0x41E54, offset: 0x41E54, size: 0x8, addend: 0x0, symName: __ZNSt3__111basic_regexIcNS_12regex_traitsIcEEEC2B8ue170006Ev, symObjAddr: 0x21AE0, symBinAddr: 0x100022218, symSize: 0x4C }
  - { offsetInCU: 0x41E7E, offset: 0x41E7E, size: 0x8, addend: 0x0, symName: __ZNSt3__112regex_traitsIcEC1Ev, symObjAddr: 0x21B2C, symBinAddr: 0x100022264, symSize: 0x2C }
  - { offsetInCU: 0x41EAA, offset: 0x41EAA, size: 0x8, addend: 0x0, symName: __ZNSt3__110shared_ptrINS_13__empty_stateIcEEEC1B8ue170006Ev, symObjAddr: 0x21B58, symBinAddr: 0x100022290, symSize: 0x2C }
  - { offsetInCU: 0x41ED4, offset: 0x41ED4, size: 0x8, addend: 0x0, symName: __ZNSt3__112regex_traitsIcEC2Ev, symObjAddr: 0x21B84, symBinAddr: 0x1000222BC, symSize: 0x64 }
  - { offsetInCU: 0x41F00, offset: 0x41F00, size: 0x8, addend: 0x0, symName: __ZNSt3__112regex_traitsIcE6__initEv, symObjAddr: 0x21BE8, symBinAddr: 0x100022320, symSize: 0x40 }
  - { offsetInCU: 0x41F28, offset: 0x41F28, size: 0x8, addend: 0x0, symName: __ZNSt3__110shared_ptrINS_13__empty_stateIcEEEC2B8ue170006Ev, symObjAddr: 0x21C80, symBinAddr: 0x1000223B8, symSize: 0x1C }
  - { offsetInCU: 0x41F52, offset: 0x41F52, size: 0x8, addend: 0x0, symName: __ZNSt3__111basic_regexIcNS_12regex_traitsIcEEEC2B8ue170006EPKcNS_15regex_constants18syntax_option_typeE, symObjAddr: 0x21C9C, symBinAddr: 0x1000223D4, symSize: 0xD4 }
  - { offsetInCU: 0x41F9A, offset: 0x41F9A, size: 0x8, addend: 0x0, symName: __ZNSt3__111basic_regexIcNS_12regex_traitsIcEEE6__initIPKcEEvT_S7_, symObjAddr: 0x21D70, symBinAddr: 0x1000224A8, symSize: 0x88 }
  - { offsetInCU: 0x41FF8, offset: 0x41FF8, size: 0x8, addend: 0x0, symName: __ZNSt3__112regex_traitsIcE6lengthB8ue170006EPKc, symObjAddr: 0x21DF8, symBinAddr: 0x100022530, symSize: 0x24 }
  - { offsetInCU: 0x4201C, offset: 0x4201C, size: 0x8, addend: 0x0, symName: __ZNSt3__110shared_ptrINS_13__empty_stateIcEEED1B8ue170006Ev, symObjAddr: 0x21E1C, symBinAddr: 0x100022554, symSize: 0x2C }
  - { offsetInCU: 0x42046, offset: 0x42046, size: 0x8, addend: 0x0, symName: __ZNSt3__112regex_traitsIcED1Ev, symObjAddr: 0x21E48, symBinAddr: 0x100022580, symSize: 0x2C }
  - { offsetInCU: 0x42073, offset: 0x42073, size: 0x8, addend: 0x0, symName: __ZNSt3__111basic_regexIcNS_12regex_traitsIcEEE7__parseIPKcEET_S7_S7_, symObjAddr: 0x21EC8, symBinAddr: 0x100022600, symSize: 0x224 }
  - { offsetInCU: 0x420EE, offset: 0x420EE, size: 0x8, addend: 0x0, symName: __ZNSt3__111__end_stateIcEC1B8ue170006Ev, symObjAddr: 0x2216C, symBinAddr: 0x1000228A4, symSize: 0x2C }
  - { offsetInCU: 0x421BF, offset: 0x421BF, size: 0x8, addend: 0x0, symName: __ZNSt3__110unique_ptrINS_6__nodeIcEENS_14default_deleteIS2_EEEC1B8ue170006ILb1EvEEPS2_, symObjAddr: 0x22198, symBinAddr: 0x1000228D0, symSize: 0x34 }
  - { offsetInCU: 0x42208, offset: 0x42208, size: 0x8, addend: 0x0, symName: __ZNSt3__110shared_ptrINS_13__empty_stateIcEEE5resetB8ue170006IS2_vEEvPT_, symObjAddr: 0x221CC, symBinAddr: 0x100022904, symSize: 0x4C }
  - { offsetInCU: 0x42247, offset: 0x42247, size: 0x8, addend: 0x0, symName: __ZNKSt3__110unique_ptrINS_6__nodeIcEENS_14default_deleteIS2_EEE3getB8ue170006Ev, symObjAddr: 0x22218, symBinAddr: 0x100022950, symSize: 0x28 }
  - { offsetInCU: 0x4226D, offset: 0x4226D, size: 0x8, addend: 0x0, symName: __ZNSt3__113__empty_stateIcEC1B8ue170006EPNS_6__nodeIcEE, symObjAddr: 0x22240, symBinAddr: 0x100022978, symSize: 0x34 }
  - { offsetInCU: 0x422A6, offset: 0x422A6, size: 0x8, addend: 0x0, symName: __ZNSt3__110unique_ptrINS_6__nodeIcEENS_14default_deleteIS2_EEE7releaseB8ue170006Ev, symObjAddr: 0x22274, symBinAddr: 0x1000229AC, symSize: 0x44 }
  - { offsetInCU: 0x422DB, offset: 0x422DB, size: 0x8, addend: 0x0, symName: __ZNKSt3__110shared_ptrINS_13__empty_stateIcEEE3getB8ue170006Ev, symObjAddr: 0x222B8, symBinAddr: 0x1000229F0, symSize: 0x18 }
  - { offsetInCU: 0x42301, offset: 0x42301, size: 0x8, addend: 0x0, symName: __ZNSt3__110unique_ptrINS_6__nodeIcEENS_14default_deleteIS2_EEED1B8ue170006Ev, symObjAddr: 0x222D0, symBinAddr: 0x100022A08, symSize: 0x2C }
  - { offsetInCU: 0x4232B, offset: 0x4232B, size: 0x8, addend: 0x0, symName: __ZNSt3__111basic_regexIcNS_12regex_traitsIcEEE16__parse_ecma_expIPKcEET_S7_S7_, symObjAddr: 0x222FC, symBinAddr: 0x100022A34, symSize: 0x124 }
  - { offsetInCU: 0x423B6, offset: 0x423B6, size: 0x8, addend: 0x0, symName: __ZNSt3__111basic_regexIcNS_12regex_traitsIcEEE21__parse_basic_reg_expIPKcEET_S7_S7_, symObjAddr: 0x22420, symBinAddr: 0x100022B58, symSize: 0x13C }
  - { offsetInCU: 0x42423, offset: 0x42423, size: 0x8, addend: 0x0, symName: __ZNSt3__111basic_regexIcNS_12regex_traitsIcEEE24__parse_extended_reg_expIPKcEET_S7_S7_, symObjAddr: 0x2255C, symBinAddr: 0x100022C94, symSize: 0x114 }
  - { offsetInCU: 0x424AE, offset: 0x424AE, size: 0x8, addend: 0x0, symName: __ZNSt3__111basic_regexIcNS_12regex_traitsIcEEE12__parse_grepIPKcEET_S7_S7_, symObjAddr: 0x22670, symBinAddr: 0x100022DA8, symSize: 0x17C }
  - { offsetInCU: 0x42539, offset: 0x42539, size: 0x8, addend: 0x0, symName: __ZNSt3__111basic_regexIcNS_12regex_traitsIcEEE13__parse_egrepIPKcEET_S7_S7_, symObjAddr: 0x227EC, symBinAddr: 0x100022F24, symSize: 0x17C }
  - { offsetInCU: 0x425C4, offset: 0x425C4, size: 0x8, addend: 0x0, symName: __ZNSt3__111__end_stateIcEC2B8ue170006Ev, symObjAddr: 0x229C8, symBinAddr: 0x100023100, symSize: 0x44 }
  - { offsetInCU: 0x425EE, offset: 0x425EE, size: 0x8, addend: 0x0, symName: __ZNSt3__16__nodeIcEC2B8ue170006Ev, symObjAddr: 0x22A0C, symBinAddr: 0x100023144, symSize: 0x24 }
  - { offsetInCU: 0x42618, offset: 0x42618, size: 0x8, addend: 0x0, symName: __ZNSt3__111__end_stateIcED1Ev, symObjAddr: 0x22A30, symBinAddr: 0x100023168, symSize: 0x2C }
  - { offsetInCU: 0x42645, offset: 0x42645, size: 0x8, addend: 0x0, symName: __ZNSt3__111__end_stateIcED0Ev, symObjAddr: 0x22A5C, symBinAddr: 0x100023194, symSize: 0x58 }
  - { offsetInCU: 0x42672, offset: 0x42672, size: 0x8, addend: 0x0, symName: __ZNKSt3__111__end_stateIcE6__execERNS_7__stateIcEE, symObjAddr: 0x22AB4, symBinAddr: 0x1000231EC, symSize: 0x20 }
  - { offsetInCU: 0x426A9, offset: 0x426A9, size: 0x8, addend: 0x0, symName: __ZNKSt3__16__nodeIcE12__exec_splitEbRNS_7__stateIcEE, symObjAddr: 0x22AD4, symBinAddr: 0x10002320C, symSize: 0x1C }
  - { offsetInCU: 0x426E5, offset: 0x426E5, size: 0x8, addend: 0x0, symName: __ZNSt3__16__nodeIcED1Ev, symObjAddr: 0x22AF0, symBinAddr: 0x100023228, symSize: 0x2C }
  - { offsetInCU: 0x4270F, offset: 0x4270F, size: 0x8, addend: 0x0, symName: __ZNSt3__16__nodeIcED0Ev, symObjAddr: 0x22B1C, symBinAddr: 0x100023254, symSize: 0x58 }
  - { offsetInCU: 0x42739, offset: 0x42739, size: 0x8, addend: 0x0, symName: __ZNKSt3__16__nodeIcE6__execERNS_7__stateIcEE, symObjAddr: 0x22B74, symBinAddr: 0x1000232AC, symSize: 0x14 }
  - { offsetInCU: 0x4276A, offset: 0x4276A, size: 0x8, addend: 0x0, symName: __ZNSt3__16__nodeIcED2Ev, symObjAddr: 0x22B88, symBinAddr: 0x1000232C0, symSize: 0x14 }
  - { offsetInCU: 0x42794, offset: 0x42794, size: 0x8, addend: 0x0, symName: __ZNSt3__111__end_stateIcED2Ev, symObjAddr: 0x22B9C, symBinAddr: 0x1000232D4, symSize: 0x2C }
  - { offsetInCU: 0x427C1, offset: 0x427C1, size: 0x8, addend: 0x0, symName: __ZNSt3__110unique_ptrINS_6__nodeIcEENS_14default_deleteIS2_EEEC2B8ue170006ILb1EvEEPS2_, symObjAddr: 0x22BC8, symBinAddr: 0x100023300, symSize: 0x58 }
  - { offsetInCU: 0x4280A, offset: 0x4280A, size: 0x8, addend: 0x0, symName: __ZNSt3__117__compressed_pairIPNS_6__nodeIcEENS_14default_deleteIS2_EEEC1B8ue170006IRS3_NS_16__value_init_tagEEEOT_OT0_, symObjAddr: 0x22C20, symBinAddr: 0x100023358, symSize: 0x3C }
  - { offsetInCU: 0x42862, offset: 0x42862, size: 0x8, addend: 0x0, symName: __ZNSt3__117__compressed_pairIPNS_6__nodeIcEENS_14default_deleteIS2_EEEC2B8ue170006IRS3_NS_16__value_init_tagEEEOT_OT0_, symObjAddr: 0x22C5C, symBinAddr: 0x100023394, symSize: 0x40 }
  - { offsetInCU: 0x428BA, offset: 0x428BA, size: 0x8, addend: 0x0, symName: __ZNSt3__122__compressed_pair_elemIPNS_6__nodeIcEELi0ELb0EEC2B8ue170006IRS3_vEEOT_, symObjAddr: 0x22C9C, symBinAddr: 0x1000233D4, symSize: 0x24 }
  - { offsetInCU: 0x428FC, offset: 0x428FC, size: 0x8, addend: 0x0, symName: __ZNSt3__122__compressed_pair_elemINS_14default_deleteINS_6__nodeIcEEEELi1ELb1EEC2B8ue170006ENS_16__value_init_tagE, symObjAddr: 0x22CC0, symBinAddr: 0x1000233F8, symSize: 0x2C }
  - { offsetInCU: 0x42930, offset: 0x42930, size: 0x8, addend: 0x0, symName: __ZNSt3__114default_deleteINS_6__nodeIcEEEC2B8ue170006Ev, symObjAddr: 0x22CEC, symBinAddr: 0x100023424, symSize: 0x14 }
  - { offsetInCU: 0x4295A, offset: 0x4295A, size: 0x8, addend: 0x0, symName: __ZNSt3__110shared_ptrINS_13__empty_stateIcEEEC1B8ue170006IS2_vEEPT_, symObjAddr: 0x22D00, symBinAddr: 0x100023438, symSize: 0x34 }
  - { offsetInCU: 0x4299D, offset: 0x4299D, size: 0x8, addend: 0x0, symName: __ZNSt3__110shared_ptrINS_13__empty_stateIcEEE4swapB8ue170006ERS3_, symObjAddr: 0x22D34, symBinAddr: 0x10002346C, symSize: 0x64 }
  - { offsetInCU: 0x429D2, offset: 0x429D2, size: 0x8, addend: 0x0, symName: __ZNSt3__110shared_ptrINS_13__empty_stateIcEEEC2B8ue170006IS2_vEEPT_, symObjAddr: 0x22D98, symBinAddr: 0x1000234D0, symSize: 0x100 }
  - { offsetInCU: 0x42AD7, offset: 0x42AD7, size: 0x8, addend: 0x0, symName: __ZNSt3__110unique_ptrINS_13__empty_stateIcEENS_14default_deleteIS2_EEEC1B8ue170006ILb1EvEEPS2_, symObjAddr: 0x22E98, symBinAddr: 0x1000235D0, symSize: 0x34 }
  - { offsetInCU: 0x42B20, offset: 0x42B20, size: 0x8, addend: 0x0, symName: __ZNSt3__110shared_ptrINS_13__empty_stateIcEEE27__shared_ptr_default_deleteIS2_S2_EC1Ev, symObjAddr: 0x22ECC, symBinAddr: 0x100023604, symSize: 0x2C }
  - { offsetInCU: 0x42B70, offset: 0x42B70, size: 0x8, addend: 0x0, symName: __ZNSt3__19allocatorINS_13__empty_stateIcEEEC1B8ue170006Ev, symObjAddr: 0x22EF8, symBinAddr: 0x100023630, symSize: 0x2C }
  - { offsetInCU: 0x42C4D, offset: 0x42C4D, size: 0x8, addend: 0x0, symName: __ZNSt3__120__shared_ptr_pointerIPNS_13__empty_stateIcEENS_10shared_ptrIS2_E27__shared_ptr_default_deleteIS2_S2_EENS_9allocatorIS2_EEEC1B8ue170006ES3_S7_S9_, symObjAddr: 0x22F24, symBinAddr: 0x10002365C, symSize: 0x34 }
  - { offsetInCU: 0x42CA1, offset: 0x42CA1, size: 0x8, addend: 0x0, symName: __ZNSt3__110unique_ptrINS_13__empty_stateIcEENS_14default_deleteIS2_EEE7releaseB8ue170006Ev, symObjAddr: 0x22F58, symBinAddr: 0x100023690, symSize: 0x44 }
  - { offsetInCU: 0x42CD6, offset: 0x42CD6, size: 0x8, addend: 0x0, symName: __ZNSt3__110shared_ptrINS_13__empty_stateIcEEE18__enable_weak_thisB8ue170006Ez, symObjAddr: 0x22F9C, symBinAddr: 0x1000236D4, symSize: 0x10 }
  - { offsetInCU: 0x42CFD, offset: 0x42CFD, size: 0x8, addend: 0x0, symName: __ZNSt3__110unique_ptrINS_13__empty_stateIcEENS_14default_deleteIS2_EEED1B8ue170006Ev, symObjAddr: 0x22FAC, symBinAddr: 0x1000236E4, symSize: 0x2C }
  - { offsetInCU: 0x42D27, offset: 0x42D27, size: 0x8, addend: 0x0, symName: __ZNSt3__110unique_ptrINS_13__empty_stateIcEENS_14default_deleteIS2_EEEC2B8ue170006ILb1EvEEPS2_, symObjAddr: 0x22FD8, symBinAddr: 0x100023710, symSize: 0x58 }
  - { offsetInCU: 0x42D6A, offset: 0x42D6A, size: 0x8, addend: 0x0, symName: __ZNSt3__117__compressed_pairIPNS_13__empty_stateIcEENS_14default_deleteIS2_EEEC1B8ue170006IRS3_NS_16__value_init_tagEEEOT_OT0_, symObjAddr: 0x23030, symBinAddr: 0x100023768, symSize: 0x3C }
  - { offsetInCU: 0x42DC2, offset: 0x42DC2, size: 0x8, addend: 0x0, symName: __ZNSt3__117__compressed_pairIPNS_13__empty_stateIcEENS_14default_deleteIS2_EEEC2B8ue170006IRS3_NS_16__value_init_tagEEEOT_OT0_, symObjAddr: 0x2306C, symBinAddr: 0x1000237A4, symSize: 0x40 }
  - { offsetInCU: 0x42E1A, offset: 0x42E1A, size: 0x8, addend: 0x0, symName: __ZNSt3__122__compressed_pair_elemIPNS_13__empty_stateIcEELi0ELb0EEC2B8ue170006IRS3_vEEOT_, symObjAddr: 0x230AC, symBinAddr: 0x1000237E4, symSize: 0x24 }
  - { offsetInCU: 0x42E5C, offset: 0x42E5C, size: 0x8, addend: 0x0, symName: __ZNSt3__122__compressed_pair_elemINS_14default_deleteINS_13__empty_stateIcEEEELi1ELb1EEC2B8ue170006ENS_16__value_init_tagE, symObjAddr: 0x230D0, symBinAddr: 0x100023808, symSize: 0x2C }
  - { offsetInCU: 0x42E90, offset: 0x42E90, size: 0x8, addend: 0x0, symName: __ZNSt3__114default_deleteINS_13__empty_stateIcEEEC2B8ue170006Ev, symObjAddr: 0x230FC, symBinAddr: 0x100023834, symSize: 0x14 }
  - { offsetInCU: 0x42EBA, offset: 0x42EBA, size: 0x8, addend: 0x0, symName: __ZNSt3__110shared_ptrINS_13__empty_stateIcEEE27__shared_ptr_default_deleteIS2_S2_EC2Ev, symObjAddr: 0x23110, symBinAddr: 0x100023848, symSize: 0x2C }
  - { offsetInCU: 0x42EE7, offset: 0x42EE7, size: 0x8, addend: 0x0, symName: __ZNSt3__19allocatorINS_13__empty_stateIcEEEC2B8ue170006Ev, symObjAddr: 0x2313C, symBinAddr: 0x100023874, symSize: 0x2C }
  - { offsetInCU: 0x42F11, offset: 0x42F11, size: 0x8, addend: 0x0, symName: __ZNSt3__116__non_trivial_ifILb1ENS_9allocatorINS_13__empty_stateIcEEEEEC2B8ue170006Ev, symObjAddr: 0x23168, symBinAddr: 0x1000238A0, symSize: 0x14 }
  - { offsetInCU: 0x42F3B, offset: 0x42F3B, size: 0x8, addend: 0x0, symName: __ZNSt3__120__shared_ptr_pointerIPNS_13__empty_stateIcEENS_10shared_ptrIS2_E27__shared_ptr_default_deleteIS2_S2_EENS_9allocatorIS2_EEEC2B8ue170006ES3_S7_S9_, symObjAddr: 0x2317C, symBinAddr: 0x1000238B4, symSize: 0xB0 }
  - { offsetInCU: 0x42F8F, offset: 0x42F8F, size: 0x8, addend: 0x0, symName: __ZNSt3__119__shared_weak_countC2B8ue170006El, symObjAddr: 0x2322C, symBinAddr: 0x100023964, symSize: 0x54 }
  - { offsetInCU: 0x42FCD, offset: 0x42FCD, size: 0x8, addend: 0x0, symName: __ZNSt3__117__compressed_pairIPNS_13__empty_stateIcEENS_10shared_ptrIS2_E27__shared_ptr_default_deleteIS2_S2_EEEC1B8ue170006IRS3_S7_EEOT_OT0_, symObjAddr: 0x23280, symBinAddr: 0x1000239B8, symSize: 0x3C }
  - { offsetInCU: 0x43031, offset: 0x43031, size: 0x8, addend: 0x0, symName: __ZNSt3__117__compressed_pairINS0_IPNS_13__empty_stateIcEENS_10shared_ptrIS2_E27__shared_ptr_default_deleteIS2_S2_EEEENS_9allocatorIS2_EEEC1B8ue170006IS8_SA_EEOT_OT0_, symObjAddr: 0x232BC, symBinAddr: 0x1000239F4, symSize: 0x3C }
  - { offsetInCU: 0x43089, offset: 0x43089, size: 0x8, addend: 0x0, symName: __ZNSt3__120__shared_ptr_pointerIPNS_13__empty_stateIcEENS_10shared_ptrIS2_E27__shared_ptr_default_deleteIS2_S2_EENS_9allocatorIS2_EEED1Ev, symObjAddr: 0x232F8, symBinAddr: 0x100023A30, symSize: 0x2C }
  - { offsetInCU: 0x430B5, offset: 0x430B5, size: 0x8, addend: 0x0, symName: __ZNSt3__120__shared_ptr_pointerIPNS_13__empty_stateIcEENS_10shared_ptrIS2_E27__shared_ptr_default_deleteIS2_S2_EENS_9allocatorIS2_EEED0Ev, symObjAddr: 0x23324, symBinAddr: 0x100023A5C, symSize: 0x58 }
  - { offsetInCU: 0x430E1, offset: 0x430E1, size: 0x8, addend: 0x0, symName: __ZNSt3__120__shared_ptr_pointerIPNS_13__empty_stateIcEENS_10shared_ptrIS2_E27__shared_ptr_default_deleteIS2_S2_EENS_9allocatorIS2_EEE16__on_zero_sharedEv, symObjAddr: 0x2337C, symBinAddr: 0x100023AB4, symSize: 0x64 }
  - { offsetInCU: 0x43109, offset: 0x43109, size: 0x8, addend: 0x0, symName: __ZNKSt3__120__shared_ptr_pointerIPNS_13__empty_stateIcEENS_10shared_ptrIS2_E27__shared_ptr_default_deleteIS2_S2_EENS_9allocatorIS2_EEE13__get_deleterERKSt9type_info, symObjAddr: 0x233E0, symBinAddr: 0x100023B18, symSize: 0x68 }
  - { offsetInCU: 0x4313E, offset: 0x4313E, size: 0x8, addend: 0x0, symName: __ZNSt3__120__shared_ptr_pointerIPNS_13__empty_stateIcEENS_10shared_ptrIS2_E27__shared_ptr_default_deleteIS2_S2_EENS_9allocatorIS2_EEE21__on_zero_shared_weakEv, symObjAddr: 0x23448, symBinAddr: 0x100023B80, symSize: 0x60 }
  - { offsetInCU: 0x43181, offset: 0x43181, size: 0x8, addend: 0x0, symName: __ZNSt3__114__shared_countC2B8ue170006El, symObjAddr: 0x234A8, symBinAddr: 0x100023BE0, symSize: 0x30 }
  - { offsetInCU: 0x431B9, offset: 0x431B9, size: 0x8, addend: 0x0, symName: __ZNSt3__117__compressed_pairIPNS_13__empty_stateIcEENS_10shared_ptrIS2_E27__shared_ptr_default_deleteIS2_S2_EEEC2B8ue170006IRS3_S7_EEOT_OT0_, symObjAddr: 0x234D8, symBinAddr: 0x100023C10, symSize: 0x44 }
  - { offsetInCU: 0x43211, offset: 0x43211, size: 0x8, addend: 0x0, symName: __ZNSt3__122__compressed_pair_elemINS_10shared_ptrINS_13__empty_stateIcEEE27__shared_ptr_default_deleteIS3_S3_EELi1ELb1EEC2B8ue170006IS6_vEEOT_, symObjAddr: 0x2351C, symBinAddr: 0x100023C54, symSize: 0x18 }
  - { offsetInCU: 0x43253, offset: 0x43253, size: 0x8, addend: 0x0, symName: __ZNSt3__117__compressed_pairINS0_IPNS_13__empty_stateIcEENS_10shared_ptrIS2_E27__shared_ptr_default_deleteIS2_S2_EEEENS_9allocatorIS2_EEEC2B8ue170006IS8_SA_EEOT_OT0_, symObjAddr: 0x23534, symBinAddr: 0x100023C6C, symSize: 0x44 }
  - { offsetInCU: 0x432AB, offset: 0x432AB, size: 0x8, addend: 0x0, symName: __ZNSt3__122__compressed_pair_elemINS_17__compressed_pairIPNS_13__empty_stateIcEENS_10shared_ptrIS3_E27__shared_ptr_default_deleteIS3_S3_EEEELi0ELb0EEC2B8ue170006IS9_vEEOT_, symObjAddr: 0x23578, symBinAddr: 0x100023CB0, symSize: 0x24 }
  - { offsetInCU: 0x432ED, offset: 0x432ED, size: 0x8, addend: 0x0, symName: __ZNSt3__122__compressed_pair_elemINS_9allocatorINS_13__empty_stateIcEEEELi1ELb1EEC2B8ue170006IS4_vEEOT_, symObjAddr: 0x2359C, symBinAddr: 0x100023CD4, symSize: 0x18 }
  - { offsetInCU: 0x4332F, offset: 0x4332F, size: 0x8, addend: 0x0, symName: __ZNSt3__120__shared_ptr_pointerIPNS_13__empty_stateIcEENS_10shared_ptrIS2_E27__shared_ptr_default_deleteIS2_S2_EENS_9allocatorIS2_EEED2Ev, symObjAddr: 0x235B4, symBinAddr: 0x100023CEC, symSize: 0x2C }
  - { offsetInCU: 0x4335B, offset: 0x4335B, size: 0x8, addend: 0x0, symName: __ZNSt3__117__compressed_pairINS0_IPNS_13__empty_stateIcEENS_10shared_ptrIS2_E27__shared_ptr_default_deleteIS2_S2_EEEENS_9allocatorIS2_EEE5firstB8ue170006Ev, symObjAddr: 0x235E0, symBinAddr: 0x100023D18, symSize: 0x24 }
  - { offsetInCU: 0x43381, offset: 0x43381, size: 0x8, addend: 0x0, symName: __ZNSt3__117__compressed_pairIPNS_13__empty_stateIcEENS_10shared_ptrIS2_E27__shared_ptr_default_deleteIS2_S2_EEE6secondB8ue170006Ev, symObjAddr: 0x23604, symBinAddr: 0x100023D3C, symSize: 0x24 }
  - { offsetInCU: 0x433A7, offset: 0x433A7, size: 0x8, addend: 0x0, symName: __ZNKSt3__114default_deleteINS_13__empty_stateIcEEEclB8ue170006EPS2_, symObjAddr: 0x23628, symBinAddr: 0x100023D60, symSize: 0x68 }
  - { offsetInCU: 0x433DB, offset: 0x433DB, size: 0x8, addend: 0x0, symName: __ZNSt3__117__compressed_pairIPNS_13__empty_stateIcEENS_10shared_ptrIS2_E27__shared_ptr_default_deleteIS2_S2_EEE5firstB8ue170006Ev, symObjAddr: 0x23690, symBinAddr: 0x100023DC8, symSize: 0x24 }
  - { offsetInCU: 0x43401, offset: 0x43401, size: 0x8, addend: 0x0, symName: __ZNSt3__122__compressed_pair_elemINS_17__compressed_pairIPNS_13__empty_stateIcEENS_10shared_ptrIS3_E27__shared_ptr_default_deleteIS3_S3_EEEELi0ELb0EE5__getB8ue170006Ev, symObjAddr: 0x236B4, symBinAddr: 0x100023DEC, symSize: 0x14 }
  - { offsetInCU: 0x43427, offset: 0x43427, size: 0x8, addend: 0x0, symName: __ZNSt3__122__compressed_pair_elemINS_10shared_ptrINS_13__empty_stateIcEEE27__shared_ptr_default_deleteIS3_S3_EELi1ELb1EE5__getB8ue170006Ev, symObjAddr: 0x236C8, symBinAddr: 0x100023E00, symSize: 0x14 }
  - { offsetInCU: 0x4344D, offset: 0x4344D, size: 0x8, addend: 0x0, symName: __ZNSt3__122__compressed_pair_elemIPNS_13__empty_stateIcEELi0ELb0EE5__getB8ue170006Ev, symObjAddr: 0x236DC, symBinAddr: 0x100023E14, symSize: 0x14 }
  - { offsetInCU: 0x434A8, offset: 0x434A8, size: 0x8, addend: 0x0, symName: __ZNKSt9type_infoeqB8ue170006ERKS_, symObjAddr: 0x236F0, symBinAddr: 0x100023E28, symSize: 0x124 }
  - { offsetInCU: 0x43542, offset: 0x43542, size: 0x8, addend: 0x0, symName: __ZNKSt3__117__compressed_pairINS0_IPNS_13__empty_stateIcEENS_10shared_ptrIS2_E27__shared_ptr_default_deleteIS2_S2_EEEENS_9allocatorIS2_EEE5firstB8ue170006Ev, symObjAddr: 0x23814, symBinAddr: 0x100023F4C, symSize: 0x24 }
  - { offsetInCU: 0x43568, offset: 0x43568, size: 0x8, addend: 0x0, symName: __ZNKSt3__117__compressed_pairIPNS_13__empty_stateIcEENS_10shared_ptrIS2_E27__shared_ptr_default_deleteIS2_S2_EEE6secondB8ue170006Ev, symObjAddr: 0x23838, symBinAddr: 0x100023F70, symSize: 0x24 }
  - { offsetInCU: 0x4358E, offset: 0x4358E, size: 0x8, addend: 0x0, symName: __ZNSt27__type_info_implementations30__non_unique_arm_rtti_bit_impl21__is_type_name_uniqueB8ue170006Em, symObjAddr: 0x2385C, symBinAddr: 0x100023F94, symSize: 0x20 }
  - { offsetInCU: 0x435B2, offset: 0x435B2, size: 0x8, addend: 0x0, symName: __ZNKSt3__122__compressed_pair_elemINS_17__compressed_pairIPNS_13__empty_stateIcEENS_10shared_ptrIS3_E27__shared_ptr_default_deleteIS3_S3_EEEELi0ELb0EE5__getB8ue170006Ev, symObjAddr: 0x2387C, symBinAddr: 0x100023FB4, symSize: 0x14 }
  - { offsetInCU: 0x435D8, offset: 0x435D8, size: 0x8, addend: 0x0, symName: __ZNKSt3__122__compressed_pair_elemINS_10shared_ptrINS_13__empty_stateIcEEE27__shared_ptr_default_deleteIS3_S3_EELi1ELb1EE5__getB8ue170006Ev, symObjAddr: 0x23890, symBinAddr: 0x100023FC8, symSize: 0x14 }
  - { offsetInCU: 0x435FE, offset: 0x435FE, size: 0x8, addend: 0x0, symName: __ZNSt3__117__compressed_pairINS0_IPNS_13__empty_stateIcEENS_10shared_ptrIS2_E27__shared_ptr_default_deleteIS2_S2_EEEENS_9allocatorIS2_EEE6secondB8ue170006Ev, symObjAddr: 0x238A4, symBinAddr: 0x100023FDC, symSize: 0x24 }
  - { offsetInCU: 0x43653, offset: 0x43653, size: 0x8, addend: 0x0, symName: __ZNSt3__19allocatorINS_20__shared_ptr_pointerIPNS_13__empty_stateIcEENS_10shared_ptrIS3_E27__shared_ptr_default_deleteIS3_S3_EENS0_IS3_EEEEEC1B8ue170006IS3_EERKNS0_IT_EE, symObjAddr: 0x238C8, symBinAddr: 0x100024000, symSize: 0x34 }
  - { offsetInCU: 0x43690, offset: 0x43690, size: 0x8, addend: 0x0, symName: __ZNSt3__19allocatorINS_20__shared_ptr_pointerIPNS_13__empty_stateIcEENS_10shared_ptrIS3_E27__shared_ptr_default_deleteIS3_S3_EENS0_IS3_EEEEE10deallocateB8ue170006EPSA_m, symObjAddr: 0x238FC, symBinAddr: 0x100024034, symSize: 0x70 }
  - { offsetInCU: 0x436D2, offset: 0x436D2, size: 0x8, addend: 0x0, symName: __ZNSt3__114pointer_traitsIPNS_20__shared_ptr_pointerIPNS_13__empty_stateIcEENS_10shared_ptrIS3_E27__shared_ptr_default_deleteIS3_S3_EENS_9allocatorIS3_EEEEE10pointer_toB8ue170006ERSB_, symObjAddr: 0x2396C, symBinAddr: 0x1000240A4, symSize: 0x14 }
  - { offsetInCU: 0x436F5, offset: 0x436F5, size: 0x8, addend: 0x0, symName: __ZNSt3__122__compressed_pair_elemINS_9allocatorINS_13__empty_stateIcEEEELi1ELb1EE5__getB8ue170006Ev, symObjAddr: 0x23980, symBinAddr: 0x1000240B8, symSize: 0x14 }
  - { offsetInCU: 0x4371B, offset: 0x4371B, size: 0x8, addend: 0x0, symName: __ZNSt3__19allocatorINS_20__shared_ptr_pointerIPNS_13__empty_stateIcEENS_10shared_ptrIS3_E27__shared_ptr_default_deleteIS3_S3_EENS0_IS3_EEEEEC2B8ue170006IS3_EERKNS0_IT_EE, symObjAddr: 0x23994, symBinAddr: 0x1000240CC, symSize: 0x30 }
  - { offsetInCU: 0x43758, offset: 0x43758, size: 0x8, addend: 0x0, symName: __ZNSt3__116__non_trivial_ifILb1ENS_9allocatorINS_20__shared_ptr_pointerIPNS_13__empty_stateIcEENS_10shared_ptrIS4_E27__shared_ptr_default_deleteIS4_S4_EENS1_IS4_EEEEEEEC2B8ue170006Ev, symObjAddr: 0x239C4, symBinAddr: 0x1000240FC, symSize: 0x14 }
  - { offsetInCU: 0x43782, offset: 0x43782, size: 0x8, addend: 0x0, symName: __ZNSt3__117__compressed_pairIPNS_13__empty_stateIcEENS_14default_deleteIS2_EEE5firstB8ue170006Ev, symObjAddr: 0x239D8, symBinAddr: 0x100024110, symSize: 0x24 }
  - { offsetInCU: 0x437A8, offset: 0x437A8, size: 0x8, addend: 0x0, symName: __ZNSt3__110unique_ptrINS_13__empty_stateIcEENS_14default_deleteIS2_EEED2B8ue170006Ev, symObjAddr: 0x239FC, symBinAddr: 0x100024134, symSize: 0x30 }
  - { offsetInCU: 0x437D2, offset: 0x437D2, size: 0x8, addend: 0x0, symName: __ZNSt3__110unique_ptrINS_13__empty_stateIcEENS_14default_deleteIS2_EEE5resetB8ue170006EPS2_, symObjAddr: 0x23A2C, symBinAddr: 0x100024164, symSize: 0x78 }
  - { offsetInCU: 0x43816, offset: 0x43816, size: 0x8, addend: 0x0, symName: __ZNSt3__117__compressed_pairIPNS_13__empty_stateIcEENS_14default_deleteIS2_EEE6secondB8ue170006Ev, symObjAddr: 0x23AA4, symBinAddr: 0x1000241DC, symSize: 0x24 }
  - { offsetInCU: 0x4383C, offset: 0x4383C, size: 0x8, addend: 0x0, symName: __ZNSt3__122__compressed_pair_elemINS_14default_deleteINS_13__empty_stateIcEEEELi1ELb1EE5__getB8ue170006Ev, symObjAddr: 0x23AC8, symBinAddr: 0x100024200, symSize: 0x14 }
  - { offsetInCU: 0x43862, offset: 0x43862, size: 0x8, addend: 0x0, symName: __ZNKSt3__117__compressed_pairIPNS_6__nodeIcEENS_14default_deleteIS2_EEE5firstB8ue170006Ev, symObjAddr: 0x23B54, symBinAddr: 0x10002428C, symSize: 0x24 }
  - { offsetInCU: 0x43888, offset: 0x43888, size: 0x8, addend: 0x0, symName: __ZNKSt3__122__compressed_pair_elemIPNS_6__nodeIcEELi0ELb0EE5__getB8ue170006Ev, symObjAddr: 0x23B78, symBinAddr: 0x1000242B0, symSize: 0x14 }
  - { offsetInCU: 0x438AE, offset: 0x438AE, size: 0x8, addend: 0x0, symName: __ZNSt3__113__empty_stateIcEC2B8ue170006EPNS_6__nodeIcEE, symObjAddr: 0x23B8C, symBinAddr: 0x1000242C4, symSize: 0x4C }
  - { offsetInCU: 0x438E7, offset: 0x438E7, size: 0x8, addend: 0x0, symName: __ZNSt3__116__owns_one_stateIcEC2B8ue170006EPNS_6__nodeIcEE, symObjAddr: 0x23BD8, symBinAddr: 0x100024310, symSize: 0x4C }
  - { offsetInCU: 0x43920, offset: 0x43920, size: 0x8, addend: 0x0, symName: __ZNSt3__113__empty_stateIcED1Ev, symObjAddr: 0x23C24, symBinAddr: 0x10002435C, symSize: 0x2C }
  - { offsetInCU: 0x4394D, offset: 0x4394D, size: 0x8, addend: 0x0, symName: __ZNSt3__113__empty_stateIcED0Ev, symObjAddr: 0x23C50, symBinAddr: 0x100024388, symSize: 0x58 }
  - { offsetInCU: 0x4397A, offset: 0x4397A, size: 0x8, addend: 0x0, symName: __ZNKSt3__113__empty_stateIcE6__execERNS_7__stateIcEE, symObjAddr: 0x23CA8, symBinAddr: 0x1000243E0, symSize: 0x3C }
  - { offsetInCU: 0x439B1, offset: 0x439B1, size: 0x8, addend: 0x0, symName: __ZNSt3__115__has_one_stateIcEC2B8ue170006EPNS_6__nodeIcEE, symObjAddr: 0x23CE4, symBinAddr: 0x10002441C, symSize: 0x50 }
  - { offsetInCU: 0x439EA, offset: 0x439EA, size: 0x8, addend: 0x0, symName: __ZNSt3__116__owns_one_stateIcED1Ev, symObjAddr: 0x23D34, symBinAddr: 0x10002446C, symSize: 0x2C }
  - { offsetInCU: 0x43A16, offset: 0x43A16, size: 0x8, addend: 0x0, symName: __ZNSt3__116__owns_one_stateIcED0Ev, symObjAddr: 0x23D60, symBinAddr: 0x100024498, symSize: 0x58 }
  - { offsetInCU: 0x43A42, offset: 0x43A42, size: 0x8, addend: 0x0, symName: __ZNSt3__115__has_one_stateIcED1Ev, symObjAddr: 0x23DB8, symBinAddr: 0x1000244F0, symSize: 0x2C }
  - { offsetInCU: 0x43A6F, offset: 0x43A6F, size: 0x8, addend: 0x0, symName: __ZNSt3__115__has_one_stateIcED0Ev, symObjAddr: 0x23DE4, symBinAddr: 0x10002451C, symSize: 0x58 }
  - { offsetInCU: 0x43A9C, offset: 0x43A9C, size: 0x8, addend: 0x0, symName: __ZNSt3__115__has_one_stateIcED2Ev, symObjAddr: 0x23E3C, symBinAddr: 0x100024574, symSize: 0x2C }
  - { offsetInCU: 0x43AC9, offset: 0x43AC9, size: 0x8, addend: 0x0, symName: __ZNSt3__116__owns_one_stateIcED2Ev, symObjAddr: 0x23E68, symBinAddr: 0x1000245A0, symSize: 0xAC }
  - { offsetInCU: 0x43AF5, offset: 0x43AF5, size: 0x8, addend: 0x0, symName: __ZNSt3__115__has_one_stateIcE5firstB8ue170006Ev, symObjAddr: 0x23F14, symBinAddr: 0x10002464C, symSize: 0x18 }
  - { offsetInCU: 0x43B1B, offset: 0x43B1B, size: 0x8, addend: 0x0, symName: __ZNSt3__113__empty_stateIcED2Ev, symObjAddr: 0x23F2C, symBinAddr: 0x100024664, symSize: 0x2C }
  - { offsetInCU: 0x43B48, offset: 0x43B48, size: 0x8, addend: 0x0, symName: __ZNKSt3__115__has_one_stateIcE5firstB8ue170006Ev, symObjAddr: 0x23F58, symBinAddr: 0x100024690, symSize: 0x18 }
  - { offsetInCU: 0x43B6E, offset: 0x43B6E, size: 0x8, addend: 0x0, symName: __ZNSt3__117__compressed_pairIPNS_6__nodeIcEENS_14default_deleteIS2_EEE5firstB8ue170006Ev, symObjAddr: 0x23F70, symBinAddr: 0x1000246A8, symSize: 0x24 }
  - { offsetInCU: 0x43B94, offset: 0x43B94, size: 0x8, addend: 0x0, symName: __ZNSt3__122__compressed_pair_elemIPNS_6__nodeIcEELi0ELb0EE5__getB8ue170006Ev, symObjAddr: 0x23F94, symBinAddr: 0x1000246CC, symSize: 0x14 }
  - { offsetInCU: 0x43BBA, offset: 0x43BBA, size: 0x8, addend: 0x0, symName: __ZNSt3__110unique_ptrINS_6__nodeIcEENS_14default_deleteIS2_EEED2B8ue170006Ev, symObjAddr: 0x23FA8, symBinAddr: 0x1000246E0, symSize: 0x30 }
  - { offsetInCU: 0x43BE4, offset: 0x43BE4, size: 0x8, addend: 0x0, symName: __ZNSt3__110unique_ptrINS_6__nodeIcEENS_14default_deleteIS2_EEE5resetB8ue170006EPS2_, symObjAddr: 0x23FD8, symBinAddr: 0x100024710, symSize: 0x78 }
  - { offsetInCU: 0x43C28, offset: 0x43C28, size: 0x8, addend: 0x0, symName: __ZNSt3__117__compressed_pairIPNS_6__nodeIcEENS_14default_deleteIS2_EEE6secondB8ue170006Ev, symObjAddr: 0x24050, symBinAddr: 0x100024788, symSize: 0x24 }
  - { offsetInCU: 0x43C4E, offset: 0x43C4E, size: 0x8, addend: 0x0, symName: __ZNKSt3__114default_deleteINS_6__nodeIcEEEclB8ue170006EPS2_, symObjAddr: 0x24074, symBinAddr: 0x1000247AC, symSize: 0x68 }
  - { offsetInCU: 0x43C82, offset: 0x43C82, size: 0x8, addend: 0x0, symName: __ZNSt3__122__compressed_pair_elemINS_14default_deleteINS_6__nodeIcEEEELi1ELb1EE5__getB8ue170006Ev, symObjAddr: 0x240DC, symBinAddr: 0x100024814, symSize: 0x14 }
  - { offsetInCU: 0x43CA8, offset: 0x43CA8, size: 0x8, addend: 0x0, symName: __ZNSt3__111basic_regexIcNS_12regex_traitsIcEEE19__parse_alternativeIPKcEET_S7_S7_, symObjAddr: 0x240F0, symBinAddr: 0x100024828, symSize: 0x70 }
  - { offsetInCU: 0x43D15, offset: 0x43D15, size: 0x8, addend: 0x0, symName: __ZNSt3__111basic_regexIcNS_12regex_traitsIcEEE12__push_emptyEv, symObjAddr: 0x24160, symBinAddr: 0x100024898, symSize: 0xA0 }
  - { offsetInCU: 0x43D3D, offset: 0x43D3D, size: 0x8, addend: 0x0, symName: __ZNSt3__111basic_regexIcNS_12regex_traitsIcEEE18__push_alternationEPNS_16__owns_one_stateIcEES6_, symObjAddr: 0x24200, symBinAddr: 0x100024938, symSize: 0x17C }
  - { offsetInCU: 0x43D83, offset: 0x43D83, size: 0x8, addend: 0x0, symName: __ZNSt3__111basic_regexIcNS_12regex_traitsIcEEE12__parse_termIPKcEET_S7_S7_, symObjAddr: 0x2437C, symBinAddr: 0x100024AB4, symSize: 0xD0 }
  - { offsetInCU: 0x43E0E, offset: 0x43E0E, size: 0x8, addend: 0x0, symName: __ZNSt3__111basic_regexIcNS_12regex_traitsIcEEE17__parse_assertionIPKcEET_S7_S7_, symObjAddr: 0x2444C, symBinAddr: 0x100024B84, symSize: 0x490 }
  - { offsetInCU: 0x43EDC, offset: 0x43EDC, size: 0x8, addend: 0x0, symName: __ZNSt3__111basic_regexIcNS_12regex_traitsIcEEE12__parse_atomIPKcEET_S7_S7_, symObjAddr: 0x248DC, symBinAddr: 0x100025014, symSize: 0x2DC }
  - { offsetInCU: 0x43F67, offset: 0x43F67, size: 0x8, addend: 0x0, symName: __ZNSt3__111basic_regexIcNS_12regex_traitsIcEEE23__parse_ERE_dupl_symbolIPKcEET_S7_S7_PNS_16__owns_one_stateIcEEjj, symObjAddr: 0x24BB8, symBinAddr: 0x1000252F0, symSize: 0x63C }
  - { offsetInCU: 0x4404C, offset: 0x4404C, size: 0x8, addend: 0x0, symName: __ZNSt3__111basic_regexIcNS_12regex_traitsIcEEE15__push_l_anchorEv, symObjAddr: 0x251F4, symBinAddr: 0x10002592C, symSize: 0xBC }
  - { offsetInCU: 0x44074, offset: 0x44074, size: 0x8, addend: 0x0, symName: __ZNSt3__111basic_regexIcNS_12regex_traitsIcEEE15__push_r_anchorEv, symObjAddr: 0x252B0, symBinAddr: 0x1000259E8, symSize: 0xBC }
  - { offsetInCU: 0x4409C, offset: 0x4409C, size: 0x8, addend: 0x0, symName: __ZNSt3__111basic_regexIcNS_12regex_traitsIcEEE20__push_word_boundaryEb, symObjAddr: 0x253A0, symBinAddr: 0x100025AD8, symSize: 0xC0 }
  - { offsetInCU: 0x440D3, offset: 0x440D3, size: 0x8, addend: 0x0, symName: __ZNSt3__111basic_regexIcNS_12regex_traitsIcEEE16__push_lookaheadERKS3_bj, symObjAddr: 0x25460, symBinAddr: 0x100025B98, symSize: 0xD4 }
  - { offsetInCU: 0x44128, offset: 0x44128, size: 0x8, addend: 0x0, symName: __ZNKSt3__111basic_regexIcNS_12regex_traitsIcEEE15__use_multilineB8ue170006Ev, symObjAddr: 0x25594, symBinAddr: 0x100025CCC, symSize: 0x6C }
  - { offsetInCU: 0x44165, offset: 0x44165, size: 0x8, addend: 0x0, symName: __ZNSt3__120__l_anchor_multilineIcEC1B8ue170006EbPNS_6__nodeIcEE, symObjAddr: 0x25600, symBinAddr: 0x100025D38, symSize: 0x48 }
  - { offsetInCU: 0x441AD, offset: 0x441AD, size: 0x8, addend: 0x0, symName: __ZNSt3__120__l_anchor_multilineIcEC2B8ue170006EbPNS_6__nodeIcEE, symObjAddr: 0x25668, symBinAddr: 0x100025DA0, symSize: 0x64 }
  - { offsetInCU: 0x441F5, offset: 0x441F5, size: 0x8, addend: 0x0, symName: __ZNSt3__120__l_anchor_multilineIcED1Ev, symObjAddr: 0x256CC, symBinAddr: 0x100025E04, symSize: 0x2C }
  - { offsetInCU: 0x44222, offset: 0x44222, size: 0x8, addend: 0x0, symName: __ZNSt3__120__l_anchor_multilineIcED0Ev, symObjAddr: 0x256F8, symBinAddr: 0x100025E30, symSize: 0x58 }
  - { offsetInCU: 0x4424F, offset: 0x4424F, size: 0x8, addend: 0x0, symName: __ZNKSt3__120__l_anchor_multilineIcE6__execERNS_7__stateIcEE, symObjAddr: 0x25750, symBinAddr: 0x100025E88, symSize: 0x114 }
  - { offsetInCU: 0x44286, offset: 0x44286, size: 0x8, addend: 0x0, symName: __ZNSt3__120__l_anchor_multilineIcED2Ev, symObjAddr: 0x25864, symBinAddr: 0x100025F9C, symSize: 0x2C }
  - { offsetInCU: 0x442CA, offset: 0x442CA, size: 0x8, addend: 0x0, symName: __ZNSt3__120__r_anchor_multilineIcEC1B8ue170006EbPNS_6__nodeIcEE, symObjAddr: 0x25994, symBinAddr: 0x1000260CC, symSize: 0x48 }
  - { offsetInCU: 0x44312, offset: 0x44312, size: 0x8, addend: 0x0, symName: __ZNSt3__120__r_anchor_multilineIcEC2B8ue170006EbPNS_6__nodeIcEE, symObjAddr: 0x259DC, symBinAddr: 0x100026114, symSize: 0x64 }
  - { offsetInCU: 0x4435A, offset: 0x4435A, size: 0x8, addend: 0x0, symName: __ZNSt3__120__r_anchor_multilineIcED1Ev, symObjAddr: 0x25A40, symBinAddr: 0x100026178, symSize: 0x2C }
  - { offsetInCU: 0x44387, offset: 0x44387, size: 0x8, addend: 0x0, symName: __ZNSt3__120__r_anchor_multilineIcED0Ev, symObjAddr: 0x25A6C, symBinAddr: 0x1000261A4, symSize: 0x58 }
  - { offsetInCU: 0x443B4, offset: 0x443B4, size: 0x8, addend: 0x0, symName: __ZNKSt3__120__r_anchor_multilineIcE6__execERNS_7__stateIcEE, symObjAddr: 0x25AC4, symBinAddr: 0x1000261FC, symSize: 0xEC }
  - { offsetInCU: 0x443EB, offset: 0x443EB, size: 0x8, addend: 0x0, symName: __ZNSt3__120__r_anchor_multilineIcED2Ev, symObjAddr: 0x25BB0, symBinAddr: 0x1000262E8, symSize: 0x2C }
  - { offsetInCU: 0x4442F, offset: 0x4442F, size: 0x8, addend: 0x0, symName: __ZNSt3__115__word_boundaryIcNS_12regex_traitsIcEEEC1B8ue170006ERKS2_bPNS_6__nodeIcEE, symObjAddr: 0x25BDC, symBinAddr: 0x100026314, symSize: 0x50 }
  - { offsetInCU: 0x44486, offset: 0x44486, size: 0x8, addend: 0x0, symName: __ZNSt3__115__word_boundaryIcNS_12regex_traitsIcEEEC2B8ue170006ERKS2_bPNS_6__nodeIcEE, symObjAddr: 0x25C2C, symBinAddr: 0x100026364, symSize: 0x78 }
  - { offsetInCU: 0x444DD, offset: 0x444DD, size: 0x8, addend: 0x0, symName: __ZNSt3__112regex_traitsIcEC1ERKS1_, symObjAddr: 0x25CA4, symBinAddr: 0x1000263DC, symSize: 0x34 }
  - { offsetInCU: 0x44513, offset: 0x44513, size: 0x8, addend: 0x0, symName: __ZNSt3__115__word_boundaryIcNS_12regex_traitsIcEEED1Ev, symObjAddr: 0x25CD8, symBinAddr: 0x100026410, symSize: 0x2C }
  - { offsetInCU: 0x44540, offset: 0x44540, size: 0x8, addend: 0x0, symName: __ZNSt3__115__word_boundaryIcNS_12regex_traitsIcEEED0Ev, symObjAddr: 0x25D04, symBinAddr: 0x10002643C, symSize: 0x58 }
  - { offsetInCU: 0x4456D, offset: 0x4456D, size: 0x8, addend: 0x0, symName: __ZNKSt3__115__word_boundaryIcNS_12regex_traitsIcEEE6__execERNS_7__stateIcEE, symObjAddr: 0x25D5C, symBinAddr: 0x100026494, symSize: 0x2E4 }
  - { offsetInCU: 0x4463A, offset: 0x4463A, size: 0x8, addend: 0x0, symName: __ZNSt3__112regex_traitsIcEC2ERKS1_, symObjAddr: 0x26040, symBinAddr: 0x100026778, symSize: 0x40 }
  - { offsetInCU: 0x44670, offset: 0x44670, size: 0x8, addend: 0x0, symName: __ZNSt3__115__word_boundaryIcNS_12regex_traitsIcEEED2Ev, symObjAddr: 0x26080, symBinAddr: 0x1000267B8, symSize: 0x78 }
  - { offsetInCU: 0x4469D, offset: 0x4469D, size: 0x8, addend: 0x0, symName: __ZNKSt3__112regex_traitsIcE7isctypeEcj, symObjAddr: 0x260F8, symBinAddr: 0x100026830, symSize: 0xA0 }
  - { offsetInCU: 0x446E3, offset: 0x446E3, size: 0x8, addend: 0x0, symName: __ZNKSt3__15ctypeIcE2isB8ue170006Ejc, symObjAddr: 0x26198, symBinAddr: 0x1000268D0, symSize: 0x7C }
  - { offsetInCU: 0x44726, offset: 0x44726, size: 0x8, addend: 0x0, symName: __Z7isasciii, symObjAddr: 0x26214, symBinAddr: 0x10002694C, symSize: 0x24 }
  - { offsetInCU: 0x44776, offset: 0x44776, size: 0x8, addend: 0x0, symName: __ZNSt3__111__lookaheadIcNS_12regex_traitsIcEEEC1B8ue170006ERKNS_11basic_regexIcS2_EEbPNS_6__nodeIcEEj, symObjAddr: 0x26238, symBinAddr: 0x100026970, symSize: 0x58 }
  - { offsetInCU: 0x447DC, offset: 0x447DC, size: 0x8, addend: 0x0, symName: __ZNSt3__111__lookaheadIcNS_12regex_traitsIcEEEC2B8ue170006ERKNS_11basic_regexIcS2_EEbPNS_6__nodeIcEEj, symObjAddr: 0x26290, symBinAddr: 0x1000269C8, symSize: 0x84 }
  - { offsetInCU: 0x44842, offset: 0x44842, size: 0x8, addend: 0x0, symName: __ZNSt3__111basic_regexIcNS_12regex_traitsIcEEEC1ERKS3_, symObjAddr: 0x26314, symBinAddr: 0x100026A4C, symSize: 0x34 }
  - { offsetInCU: 0x44878, offset: 0x44878, size: 0x8, addend: 0x0, symName: __ZNSt3__111__lookaheadIcNS_12regex_traitsIcEEED1Ev, symObjAddr: 0x26348, symBinAddr: 0x100026A80, symSize: 0x2C }
  - { offsetInCU: 0x448A5, offset: 0x448A5, size: 0x8, addend: 0x0, symName: __ZNSt3__111__lookaheadIcNS_12regex_traitsIcEEED0Ev, symObjAddr: 0x26374, symBinAddr: 0x100026AAC, symSize: 0x58 }
  - { offsetInCU: 0x448D2, offset: 0x448D2, size: 0x8, addend: 0x0, symName: __ZNKSt3__111__lookaheadIcNS_12regex_traitsIcEEE6__execERNS_7__stateIcEE, symObjAddr: 0x263CC, symBinAddr: 0x100026B04, symSize: 0x290 }
  - { offsetInCU: 0x44948, offset: 0x44948, size: 0x8, addend: 0x0, symName: __ZNSt3__111basic_regexIcNS_12regex_traitsIcEEEC2ERKS3_, symObjAddr: 0x2665C, symBinAddr: 0x100026D94, symSize: 0x60 }
  - { offsetInCU: 0x4497E, offset: 0x4497E, size: 0x8, addend: 0x0, symName: __ZNSt3__110shared_ptrINS_13__empty_stateIcEEEC1B8ue170006ERKS3_, symObjAddr: 0x266BC, symBinAddr: 0x100026DF4, symSize: 0x34 }
  - { offsetInCU: 0x449B7, offset: 0x449B7, size: 0x8, addend: 0x0, symName: __ZNSt3__110shared_ptrINS_13__empty_stateIcEEEC2B8ue170006ERKS3_, symObjAddr: 0x266F0, symBinAddr: 0x100026E28, symSize: 0x70 }
  - { offsetInCU: 0x449F0, offset: 0x449F0, size: 0x8, addend: 0x0, symName: __ZNSt3__119__shared_weak_count12__add_sharedB8ue170006Ev, symObjAddr: 0x26760, symBinAddr: 0x100026E98, symSize: 0x24 }
  - { offsetInCU: 0x44A16, offset: 0x44A16, size: 0x8, addend: 0x0, symName: __ZNSt3__114__shared_count12__add_sharedB8ue170006Ev, symObjAddr: 0x26784, symBinAddr: 0x100026EBC, symSize: 0x28 }
  - { offsetInCU: 0x44A3C, offset: 0x44A3C, size: 0x8, addend: 0x0, symName: __ZNSt3__111__lookaheadIcNS_12regex_traitsIcEEED2Ev, symObjAddr: 0x267DC, symBinAddr: 0x100026F14, symSize: 0x78 }
  - { offsetInCU: 0x44A69, offset: 0x44A69, size: 0x8, addend: 0x0, symName: __ZNSt3__19allocatorINS_9sub_matchIPKcEEEC1B8ue170006Ev, symObjAddr: 0x26854, symBinAddr: 0x100026F8C, symSize: 0x2C }
  - { offsetInCU: 0x44ACB, offset: 0x44ACB, size: 0x8, addend: 0x0, symName: __ZNSt3__113match_resultsIPKcNS_9allocatorINS_9sub_matchIS2_EEEEEC1ERKS6_, symObjAddr: 0x26880, symBinAddr: 0x100026FB8, symSize: 0x34 }
  - { offsetInCU: 0x44B06, offset: 0x44B06, size: 0x8, addend: 0x0, symName: __ZNSt3__113match_resultsIPKcNS_9allocatorINS_9sub_matchIS2_EEEEE6__initEjS2_S2_b, symObjAddr: 0x268B4, symBinAddr: 0x100026FEC, symSize: 0xB0 }
  - { offsetInCU: 0x44B6A, offset: 0x44B6A, size: 0x8, addend: 0x0, symName: __ZNKSt3__111basic_regexIcNS_12regex_traitsIcEEE10mark_countB8ue170006Ev, symObjAddr: 0x26964, symBinAddr: 0x10002709C, symSize: 0x18 }
  - { offsetInCU: 0x44B96, offset: 0x44B96, size: 0x8, addend: 0x0, symName: __ZNKSt3__111basic_regexIcNS_12regex_traitsIcEEE21__match_at_start_ecmaINS_9allocatorINS_9sub_matchIPKcEEEEEEbS8_S8_RNS_13match_resultsIS8_T_EENS_15regex_constants15match_flag_typeEb, symObjAddr: 0x2697C, symBinAddr: 0x1000270B4, symSize: 0x5AC }
  - { offsetInCU: 0x44CB3, offset: 0x44CB3, size: 0x8, addend: 0x0, symName: __ZNKSt3__113match_resultsIPKcNS_9allocatorINS_9sub_matchIS2_EEEEE4sizeB8ue170006Ev, symObjAddr: 0x26F8C, symBinAddr: 0x1000276C4, symSize: 0x24 }
  - { offsetInCU: 0x44CD9, offset: 0x44CD9, size: 0x8, addend: 0x0, symName: __ZNSt3__16vectorINS_9sub_matchIPKcEENS_9allocatorIS4_EEEixB8ue170006Em, symObjAddr: 0x26FB0, symBinAddr: 0x1000276E8, symSize: 0x2C }
  - { offsetInCU: 0x44D10, offset: 0x44D10, size: 0x8, addend: 0x0, symName: __ZNSt3__19sub_matchIPKcEaSERKS3_, symObjAddr: 0x26FDC, symBinAddr: 0x100027714, symSize: 0x44 }
  - { offsetInCU: 0x44D48, offset: 0x44D48, size: 0x8, addend: 0x0, symName: __ZNSt3__113match_resultsIPKcNS_9allocatorINS_9sub_matchIS2_EEEEED1Ev, symObjAddr: 0x27020, symBinAddr: 0x100027758, symSize: 0x2C }
  - { offsetInCU: 0x44D75, offset: 0x44D75, size: 0x8, addend: 0x0, symName: __ZNSt3__19allocatorINS_9sub_matchIPKcEEEC2B8ue170006Ev, symObjAddr: 0x2704C, symBinAddr: 0x100027784, symSize: 0x2C }
  - { offsetInCU: 0x44D9F, offset: 0x44D9F, size: 0x8, addend: 0x0, symName: __ZNSt3__116__non_trivial_ifILb1ENS_9allocatorINS_9sub_matchIPKcEEEEEC2B8ue170006Ev, symObjAddr: 0x27078, symBinAddr: 0x1000277B0, symSize: 0x14 }
  - { offsetInCU: 0x44DC9, offset: 0x44DC9, size: 0x8, addend: 0x0, symName: __ZNSt3__113match_resultsIPKcNS_9allocatorINS_9sub_matchIS2_EEEEEC2ERKS6_, symObjAddr: 0x2708C, symBinAddr: 0x1000277C4, symSize: 0x98 }
  - { offsetInCU: 0x44E04, offset: 0x44E04, size: 0x8, addend: 0x0, symName: __ZNSt3__16vectorINS_9sub_matchIPKcEENS_9allocatorIS4_EEEC1B8ue170006ERKS6_, symObjAddr: 0x27124, symBinAddr: 0x10002785C, symSize: 0x34 }
  - { offsetInCU: 0x44E3D, offset: 0x44E3D, size: 0x8, addend: 0x0, symName: __ZNSt3__19sub_matchIPKcEC1B8ue170006Ev, symObjAddr: 0x27158, symBinAddr: 0x100027890, symSize: 0x2C }
  - { offsetInCU: 0x44E67, offset: 0x44E67, size: 0x8, addend: 0x0, symName: __ZNSt3__16vectorINS_9sub_matchIPKcEENS_9allocatorIS4_EEED1B8ue170006Ev, symObjAddr: 0x27184, symBinAddr: 0x1000278BC, symSize: 0x2C }
  - { offsetInCU: 0x44E91, offset: 0x44E91, size: 0x8, addend: 0x0, symName: __ZNSt3__16vectorINS_9sub_matchIPKcEENS_9allocatorIS4_EEEC2B8ue170006ERKS6_, symObjAddr: 0x271B0, symBinAddr: 0x1000278E8, symSize: 0x48 }
  - { offsetInCU: 0x44ECA, offset: 0x44ECA, size: 0x8, addend: 0x0, symName: __ZNSt3__117__compressed_pairIPNS_9sub_matchIPKcEENS_9allocatorIS4_EEEC1B8ue170006IDnRKS7_EEOT_OT0_, symObjAddr: 0x271F8, symBinAddr: 0x100027930, symSize: 0x3C }
  - { offsetInCU: 0x44F22, offset: 0x44F22, size: 0x8, addend: 0x0, symName: __ZNSt3__117__compressed_pairIPNS_9sub_matchIPKcEENS_9allocatorIS4_EEEC2B8ue170006IDnRKS7_EEOT_OT0_, symObjAddr: 0x27234, symBinAddr: 0x10002796C, symSize: 0x44 }
  - { offsetInCU: 0x44F7A, offset: 0x44F7A, size: 0x8, addend: 0x0, symName: __ZNSt3__122__compressed_pair_elemIPNS_9sub_matchIPKcEELi0ELb0EEC2B8ue170006IDnvEEOT_, symObjAddr: 0x27278, symBinAddr: 0x1000279B0, symSize: 0x1C }
  - { offsetInCU: 0x44FBC, offset: 0x44FBC, size: 0x8, addend: 0x0, symName: __ZNSt3__122__compressed_pair_elemINS_9allocatorINS_9sub_matchIPKcEEEELi1ELb1EEC2B8ue170006IRKS6_vEEOT_, symObjAddr: 0x27294, symBinAddr: 0x1000279CC, symSize: 0x18 }
  - { offsetInCU: 0x44FFE, offset: 0x44FFE, size: 0x8, addend: 0x0, symName: __ZNSt3__19sub_matchIPKcEC2B8ue170006Ev, symObjAddr: 0x272AC, symBinAddr: 0x1000279E4, symSize: 0x30 }
  - { offsetInCU: 0x45028, offset: 0x45028, size: 0x8, addend: 0x0, symName: __ZNSt3__14pairIPKcS2_EC2B8ue170006Ev, symObjAddr: 0x272DC, symBinAddr: 0x100027A14, symSize: 0x1C }
  - { offsetInCU: 0x45052, offset: 0x45052, size: 0x8, addend: 0x0, symName: __ZNSt3__16vectorINS_9sub_matchIPKcEENS_9allocatorIS4_EEED2B8ue170006Ev, symObjAddr: 0x272F8, symBinAddr: 0x100027A30, symSize: 0x3C }
  - { offsetInCU: 0x4507C, offset: 0x4507C, size: 0x8, addend: 0x0, symName: __ZNSt3__16vectorINS_9sub_matchIPKcEENS_9allocatorIS4_EEE16__destroy_vectorC1B8ue170006ERS7_, symObjAddr: 0x27334, symBinAddr: 0x100027A6C, symSize: 0x34 }
  - { offsetInCU: 0x450B5, offset: 0x450B5, size: 0x8, addend: 0x0, symName: __ZNSt3__16vectorINS_9sub_matchIPKcEENS_9allocatorIS4_EEE16__destroy_vectorclB8ue170006Ev, symObjAddr: 0x27368, symBinAddr: 0x100027AA0, symSize: 0x90 }
  - { offsetInCU: 0x450DB, offset: 0x450DB, size: 0x8, addend: 0x0, symName: __ZNSt3__16vectorINS_9sub_matchIPKcEENS_9allocatorIS4_EEE16__destroy_vectorC2B8ue170006ERS7_, symObjAddr: 0x273F8, symBinAddr: 0x100027B30, symSize: 0x20 }
  - { offsetInCU: 0x45114, offset: 0x45114, size: 0x8, addend: 0x0, symName: __ZNSt3__16vectorINS_9sub_matchIPKcEENS_9allocatorIS4_EEE7__clearB8ue170006Ev, symObjAddr: 0x27418, symBinAddr: 0x100027B50, symSize: 0x28 }
  - { offsetInCU: 0x4513A, offset: 0x4513A, size: 0x8, addend: 0x0, symName: __ZNKSt3__16vectorINS_9sub_matchIPKcEENS_9allocatorIS4_EEE17__annotate_deleteB8ue170006Ev, symObjAddr: 0x27440, symBinAddr: 0x100027B78, symSize: 0xD4 }
  - { offsetInCU: 0x45160, offset: 0x45160, size: 0x8, addend: 0x0, symName: __ZNSt3__116allocator_traitsINS_9allocatorINS_9sub_matchIPKcEEEEE10deallocateB8ue170006ERS6_PS5_m, symObjAddr: 0x27514, symBinAddr: 0x100027C4C, symSize: 0x34 }
  - { offsetInCU: 0x451A2, offset: 0x451A2, size: 0x8, addend: 0x0, symName: __ZNSt3__16vectorINS_9sub_matchIPKcEENS_9allocatorIS4_EEE7__allocB8ue170006Ev, symObjAddr: 0x27548, symBinAddr: 0x100027C80, symSize: 0x28 }
  - { offsetInCU: 0x451C8, offset: 0x451C8, size: 0x8, addend: 0x0, symName: __ZNKSt3__16vectorINS_9sub_matchIPKcEENS_9allocatorIS4_EEE8capacityB8ue170006Ev, symObjAddr: 0x27570, symBinAddr: 0x100027CA8, symSize: 0x40 }
  - { offsetInCU: 0x451EE, offset: 0x451EE, size: 0x8, addend: 0x0, symName: __ZNSt3__16vectorINS_9sub_matchIPKcEENS_9allocatorIS4_EEE22__base_destruct_at_endB8ue170006EPS4_, symObjAddr: 0x275B0, symBinAddr: 0x100027CE8, symSize: 0xA0 }
  - { offsetInCU: 0x45232, offset: 0x45232, size: 0x8, addend: 0x0, symName: __ZNSt3__116allocator_traitsINS_9allocatorINS_9sub_matchIPKcEEEEE7destroyB8ue170006IS5_vEEvRS6_PT_, symObjAddr: 0x27650, symBinAddr: 0x100027D88, symSize: 0x2C }
  - { offsetInCU: 0x4526F, offset: 0x4526F, size: 0x8, addend: 0x0, symName: __ZNSt3__19allocatorINS_9sub_matchIPKcEEE7destroyB8ue170006EPS4_, symObjAddr: 0x27690, symBinAddr: 0x100027DC8, symSize: 0x14 }
  - { offsetInCU: 0x452A3, offset: 0x452A3, size: 0x8, addend: 0x0, symName: __ZNKSt3__16vectorINS_9sub_matchIPKcEENS_9allocatorIS4_EEE31__annotate_contiguous_containerB8ue170006EPKvS9_S9_S9_, symObjAddr: 0x276A4, symBinAddr: 0x100027DDC, symSize: 0x20 }
  - { offsetInCU: 0x452F5, offset: 0x452F5, size: 0x8, addend: 0x0, symName: __ZNKSt3__16vectorINS_9sub_matchIPKcEENS_9allocatorIS4_EEE4dataB8ue170006Ev, symObjAddr: 0x276C4, symBinAddr: 0x100027DFC, symSize: 0x28 }
  - { offsetInCU: 0x4531B, offset: 0x4531B, size: 0x8, addend: 0x0, symName: __ZNKSt3__16vectorINS_9sub_matchIPKcEENS_9allocatorIS4_EEE4sizeB8ue170006Ev, symObjAddr: 0x276EC, symBinAddr: 0x100027E24, symSize: 0x28 }
  - { offsetInCU: 0x45341, offset: 0x45341, size: 0x8, addend: 0x0, symName: __ZNSt3__19allocatorINS_9sub_matchIPKcEEE10deallocateB8ue170006EPS4_m, symObjAddr: 0x27714, symBinAddr: 0x100027E4C, symSize: 0x74 }
  - { offsetInCU: 0x45383, offset: 0x45383, size: 0x8, addend: 0x0, symName: __ZNSt3__117__compressed_pairIPNS_9sub_matchIPKcEENS_9allocatorIS4_EEE6secondB8ue170006Ev, symObjAddr: 0x27788, symBinAddr: 0x100027EC0, symSize: 0x24 }
  - { offsetInCU: 0x453A9, offset: 0x453A9, size: 0x8, addend: 0x0, symName: __ZNSt3__122__compressed_pair_elemINS_9allocatorINS_9sub_matchIPKcEEEELi1ELb1EE5__getB8ue170006Ev, symObjAddr: 0x277AC, symBinAddr: 0x100027EE4, symSize: 0x14 }
  - { offsetInCU: 0x453CF, offset: 0x453CF, size: 0x8, addend: 0x0, symName: __ZNKSt3__16vectorINS_9sub_matchIPKcEENS_9allocatorIS4_EEE9__end_capB8ue170006Ev, symObjAddr: 0x277C0, symBinAddr: 0x100027EF8, symSize: 0x28 }
  - { offsetInCU: 0x453F5, offset: 0x453F5, size: 0x8, addend: 0x0, symName: __ZNKSt3__117__compressed_pairIPNS_9sub_matchIPKcEENS_9allocatorIS4_EEE5firstB8ue170006Ev, symObjAddr: 0x277E8, symBinAddr: 0x100027F20, symSize: 0x24 }
  - { offsetInCU: 0x4541B, offset: 0x4541B, size: 0x8, addend: 0x0, symName: __ZNKSt3__122__compressed_pair_elemIPNS_9sub_matchIPKcEELi0ELb0EE5__getB8ue170006Ev, symObjAddr: 0x2780C, symBinAddr: 0x100027F44, symSize: 0x14 }
  - { offsetInCU: 0x45441, offset: 0x45441, size: 0x8, addend: 0x0, symName: __ZNSt3__16vectorINS_9sub_matchIPKcEENS_9allocatorIS4_EEE6assignEmRKS4_, symObjAddr: 0x27820, symBinAddr: 0x100027F58, symSize: 0x110 }
  - { offsetInCU: 0x454A5, offset: 0x454A5, size: 0x8, addend: 0x0, symName: __ZNSt3__16vectorINS_9sub_matchIPKcEENS_9allocatorIS4_EEE18__construct_at_endEmRKS4_, symObjAddr: 0x27974, symBinAddr: 0x1000280AC, symSize: 0xD8 }
  - { offsetInCU: 0x45527, offset: 0x45527, size: 0x8, addend: 0x0, symName: __ZNSt3__16vectorINS_9sub_matchIPKcEENS_9allocatorIS4_EEE17__destruct_at_endB8ue170006EPS4_, symObjAddr: 0x27A4C, symBinAddr: 0x100028184, symSize: 0x4C }
  - { offsetInCU: 0x4556B, offset: 0x4556B, size: 0x8, addend: 0x0, symName: __ZNSt3__16vectorINS_9sub_matchIPKcEENS_9allocatorIS4_EEE13__vdeallocateEv, symObjAddr: 0x27A98, symBinAddr: 0x1000281D0, symSize: 0x94 }
  - { offsetInCU: 0x45593, offset: 0x45593, size: 0x8, addend: 0x0, symName: __ZNSt3__16vectorINS_9sub_matchIPKcEENS_9allocatorIS4_EEE11__vallocateB8ue170006Em, symObjAddr: 0x27B2C, symBinAddr: 0x100028264, symSize: 0xB4 }
  - { offsetInCU: 0x455D7, offset: 0x455D7, size: 0x8, addend: 0x0, symName: __ZNKSt3__16vectorINS_9sub_matchIPKcEENS_9allocatorIS4_EEE11__recommendB8ue170006Em, symObjAddr: 0x27BE0, symBinAddr: 0x100028318, symSize: 0xB4 }
  - { offsetInCU: 0x45648, offset: 0x45648, size: 0x8, addend: 0x0, symName: __ZNSt3__16vectorINS_9sub_matchIPKcEENS_9allocatorIS4_EEE21_ConstructTransactionC1B8ue170006ERS7_m, symObjAddr: 0x27D14, symBinAddr: 0x10002844C, symSize: 0x3C }
  - { offsetInCU: 0x45690, offset: 0x45690, size: 0x8, addend: 0x0, symName: __ZNSt3__116allocator_traitsINS_9allocatorINS_9sub_matchIPKcEEEEE9constructB8ue170006IS5_JRKS5_EvEEvRS6_PT_DpOT0_, symObjAddr: 0x27D50, symBinAddr: 0x100028488, symSize: 0x34 }
  - { offsetInCU: 0x456E7, offset: 0x456E7, size: 0x8, addend: 0x0, symName: __ZNSt3__16vectorINS_9sub_matchIPKcEENS_9allocatorIS4_EEE21_ConstructTransactionD1B8ue170006Ev, symObjAddr: 0x27D84, symBinAddr: 0x1000284BC, symSize: 0x2C }
  - { offsetInCU: 0x45711, offset: 0x45711, size: 0x8, addend: 0x0, symName: __ZNSt3__16vectorINS_9sub_matchIPKcEENS_9allocatorIS4_EEE21_ConstructTransactionC2B8ue170006ERS7_m, symObjAddr: 0x27DB0, symBinAddr: 0x1000284E8, symSize: 0x4C }
  - { offsetInCU: 0x45759, offset: 0x45759, size: 0x8, addend: 0x0, symName: __ZNSt3__19allocatorINS_9sub_matchIPKcEEE9constructB8ue170006IS4_JRKS4_EEEvPT_DpOT0_, symObjAddr: 0x27DFC, symBinAddr: 0x100028534, symSize: 0x30 }
  - { offsetInCU: 0x457AF, offset: 0x457AF, size: 0x8, addend: 0x0, symName: __ZNSt3__16vectorINS_9sub_matchIPKcEENS_9allocatorIS4_EEE21_ConstructTransactionD2B8ue170006Ev, symObjAddr: 0x27E2C, symBinAddr: 0x100028564, symSize: 0x20 }
  - { offsetInCU: 0x457D9, offset: 0x457D9, size: 0x8, addend: 0x0, symName: __ZNKSt3__16vectorINS_9sub_matchIPKcEENS_9allocatorIS4_EEE17__annotate_shrinkB8ue170006Em, symObjAddr: 0x27E4C, symBinAddr: 0x100028584, symSize: 0xD0 }
  - { offsetInCU: 0x4580E, offset: 0x4580E, size: 0x8, addend: 0x0, symName: __ZNSt3__16vectorINS_9sub_matchIPKcEENS_9allocatorIS4_EEE5clearB8ue170006Ev, symObjAddr: 0x27F1C, symBinAddr: 0x100028654, symSize: 0x44 }
  - { offsetInCU: 0x45843, offset: 0x45843, size: 0x8, addend: 0x0, symName: __ZNSt3__16vectorINS_9sub_matchIPKcEENS_9allocatorIS4_EEE9__end_capB8ue170006Ev, symObjAddr: 0x27F60, symBinAddr: 0x100028698, symSize: 0x28 }
  - { offsetInCU: 0x45869, offset: 0x45869, size: 0x8, addend: 0x0, symName: __ZNSt3__117__compressed_pairIPNS_9sub_matchIPKcEENS_9allocatorIS4_EEE5firstB8ue170006Ev, symObjAddr: 0x27F88, symBinAddr: 0x1000286C0, symSize: 0x24 }
  - { offsetInCU: 0x4588F, offset: 0x4588F, size: 0x8, addend: 0x0, symName: __ZNSt3__122__compressed_pair_elemIPNS_9sub_matchIPKcEELi0ELb0EE5__getB8ue170006Ev, symObjAddr: 0x27FAC, symBinAddr: 0x1000286E4, symSize: 0x14 }
  - { offsetInCU: 0x458B5, offset: 0x458B5, size: 0x8, addend: 0x0, symName: __ZNKSt3__16vectorINS_9sub_matchIPKcEENS_9allocatorIS4_EEE8max_sizeEv, symObjAddr: 0x27FC0, symBinAddr: 0x1000286F8, symSize: 0x74 }
  - { offsetInCU: 0x458DD, offset: 0x458DD, size: 0x8, addend: 0x0, symName: __ZNKSt3__16vectorINS_9sub_matchIPKcEENS_9allocatorIS4_EEE20__throw_length_errorB8ue170006Ev, symObjAddr: 0x28034, symBinAddr: 0x10002876C, symSize: 0x1C }
  - { offsetInCU: 0x45903, offset: 0x45903, size: 0x8, addend: 0x0, symName: __ZNKSt3__16vectorINS_9sub_matchIPKcEENS_9allocatorIS4_EEE14__annotate_newB8ue170006Em, symObjAddr: 0x28090, symBinAddr: 0x1000287C8, symSize: 0xC8 }
  - { offsetInCU: 0x45943, offset: 0x45943, size: 0x8, addend: 0x0, symName: __ZNSt3__116allocator_traitsINS_9allocatorINS_9sub_matchIPKcEEEEE8max_sizeB8ue170006IS6_vEEmRKS6_, symObjAddr: 0x28158, symBinAddr: 0x100028890, symSize: 0x24 }
  - { offsetInCU: 0x45971, offset: 0x45971, size: 0x8, addend: 0x0, symName: __ZNKSt3__16vectorINS_9sub_matchIPKcEENS_9allocatorIS4_EEE7__allocB8ue170006Ev, symObjAddr: 0x2817C, symBinAddr: 0x1000288B4, symSize: 0x28 }
  - { offsetInCU: 0x45997, offset: 0x45997, size: 0x8, addend: 0x0, symName: __ZNKSt3__19allocatorINS_9sub_matchIPKcEEE8max_sizeB8ue170006Ev, symObjAddr: 0x281A4, symBinAddr: 0x1000288DC, symSize: 0x18 }
  - { offsetInCU: 0x459BD, offset: 0x459BD, size: 0x8, addend: 0x0, symName: __ZNKSt3__117__compressed_pairIPNS_9sub_matchIPKcEENS_9allocatorIS4_EEE6secondB8ue170006Ev, symObjAddr: 0x281BC, symBinAddr: 0x1000288F4, symSize: 0x24 }
  - { offsetInCU: 0x459E3, offset: 0x459E3, size: 0x8, addend: 0x0, symName: __ZNKSt3__122__compressed_pair_elemINS_9allocatorINS_9sub_matchIPKcEEEELi1ELb1EE5__getB8ue170006Ev, symObjAddr: 0x281E0, symBinAddr: 0x100028918, symSize: 0x14 }
  - { offsetInCU: 0x45A09, offset: 0x45A09, size: 0x8, addend: 0x0, symName: __ZNSt3__19allocatorINS_9sub_matchIPKcEEE8allocateB8ue170006Em, symObjAddr: 0x281F4, symBinAddr: 0x10002892C, symSize: 0x8C }
  - { offsetInCU: 0x45A3D, offset: 0x45A3D, size: 0x8, addend: 0x0, symName: __ZNSt3__16vectorINS_7__stateIcEENS_9allocatorIS2_EEEC1B8ue170006Ev, symObjAddr: 0x28280, symBinAddr: 0x1000289B8, symSize: 0x2C }
  - { offsetInCU: 0x45A67, offset: 0x45A67, size: 0x8, addend: 0x0, symName: __ZNSt3__16vectorINS_7__stateIcEENS_9allocatorIS2_EEE9push_backB8ue170006EOS2_, symObjAddr: 0x282AC, symBinAddr: 0x1000289E4, symSize: 0x6C }
  - { offsetInCU: 0x45A9E, offset: 0x45A9E, size: 0x8, addend: 0x0, symName: __ZNSt3__17__stateIcEC1B8ue170006Ev, symObjAddr: 0x28318, symBinAddr: 0x100028A50, symSize: 0x2C }
  - { offsetInCU: 0x45AC8, offset: 0x45AC8, size: 0x8, addend: 0x0, symName: __ZNSt3__17__stateIcED1Ev, symObjAddr: 0x28344, symBinAddr: 0x100028A7C, symSize: 0x2C }
  - { offsetInCU: 0x45AF5, offset: 0x45AF5, size: 0x8, addend: 0x0, symName: __ZNSt3__16vectorINS_7__stateIcEENS_9allocatorIS2_EEE4backB8ue170006Ev, symObjAddr: 0x28370, symBinAddr: 0x100028AA8, symSize: 0x1C }
  - { offsetInCU: 0x45B1B, offset: 0x45B1B, size: 0x8, addend: 0x0, symName: __ZNSt3__16vectorINS_9sub_matchIPKcEENS_9allocatorIS4_EEE6resizeEmRKS4_, symObjAddr: 0x2838C, symBinAddr: 0x100028AC4, symSize: 0xA4 }
  - { offsetInCU: 0x45B70, offset: 0x45B70, size: 0x8, addend: 0x0, symName: __ZNSt3__16vectorINS_4pairImPKcEENS_9allocatorIS4_EEE6resizeEm, symObjAddr: 0x28430, symBinAddr: 0x100028B68, symSize: 0x94 }
  - { offsetInCU: 0x45BB6, offset: 0x45BB6, size: 0x8, addend: 0x0, symName: __ZNKSt3__111basic_regexIcNS_12regex_traitsIcEEE12__loop_countB8ue170006Ev, symObjAddr: 0x284C4, symBinAddr: 0x100028BFC, symSize: 0x18 }
  - { offsetInCU: 0x45BDC, offset: 0x45BDC, size: 0x8, addend: 0x0, symName: __ZNSt3__16vectorINS_7__stateIcEENS_9allocatorIS2_EEE8pop_backEv, symObjAddr: 0x2853C, symBinAddr: 0x100028C74, symSize: 0x2C }
  - { offsetInCU: 0x45C04, offset: 0x45C04, size: 0x8, addend: 0x0, symName: __ZNSt3__17__stateIcEC1ERKS1_, symObjAddr: 0x28568, symBinAddr: 0x100028CA0, symSize: 0x34 }
  - { offsetInCU: 0x45C3A, offset: 0x45C3A, size: 0x8, addend: 0x0, symName: __ZNKSt3__16vectorINS_7__stateIcEENS_9allocatorIS2_EEE5emptyB8ue170006Ev, symObjAddr: 0x285FC, symBinAddr: 0x100028D34, symSize: 0x28 }
  - { offsetInCU: 0x45C60, offset: 0x45C60, size: 0x8, addend: 0x0, symName: __ZNSt3__16vectorINS_7__stateIcEENS_9allocatorIS2_EEED1B8ue170006Ev, symObjAddr: 0x28624, symBinAddr: 0x100028D5C, symSize: 0x2C }
  - { offsetInCU: 0x45C8A, offset: 0x45C8A, size: 0x8, addend: 0x0, symName: __ZNSt3__16vectorINS_7__stateIcEENS_9allocatorIS2_EEEC2B8ue170006Ev, symObjAddr: 0x28650, symBinAddr: 0x100028D88, symSize: 0x44 }
  - { offsetInCU: 0x45CB4, offset: 0x45CB4, size: 0x8, addend: 0x0, symName: __ZNSt3__117__compressed_pairIPNS_7__stateIcEENS_9allocatorIS2_EEEC1B8ue170006IDnNS_18__default_init_tagEEEOT_OT0_, symObjAddr: 0x28694, symBinAddr: 0x100028DCC, symSize: 0x3C }
  - { offsetInCU: 0x45D0C, offset: 0x45D0C, size: 0x8, addend: 0x0, symName: __ZNSt3__117__compressed_pairIPNS_7__stateIcEENS_9allocatorIS2_EEEC2B8ue170006IDnNS_18__default_init_tagEEEOT_OT0_, symObjAddr: 0x286D0, symBinAddr: 0x100028E08, symSize: 0x40 }
  - { offsetInCU: 0x45D64, offset: 0x45D64, size: 0x8, addend: 0x0, symName: __ZNSt3__122__compressed_pair_elemIPNS_7__stateIcEELi0ELb0EEC2B8ue170006IDnvEEOT_, symObjAddr: 0x28710, symBinAddr: 0x100028E48, symSize: 0x1C }
  - { offsetInCU: 0x45DA6, offset: 0x45DA6, size: 0x8, addend: 0x0, symName: __ZNSt3__122__compressed_pair_elemINS_9allocatorINS_7__stateIcEEEELi1ELb1EEC2B8ue170006ENS_18__default_init_tagE, symObjAddr: 0x2872C, symBinAddr: 0x100028E64, symSize: 0x2C }
  - { offsetInCU: 0x45DDA, offset: 0x45DDA, size: 0x8, addend: 0x0, symName: __ZNSt3__19allocatorINS_7__stateIcEEEC2B8ue170006Ev, symObjAddr: 0x28758, symBinAddr: 0x100028E90, symSize: 0x2C }
  - { offsetInCU: 0x45E04, offset: 0x45E04, size: 0x8, addend: 0x0, symName: __ZNSt3__116__non_trivial_ifILb1ENS_9allocatorINS_7__stateIcEEEEEC2B8ue170006Ev, symObjAddr: 0x28784, symBinAddr: 0x100028EBC, symSize: 0x14 }
  - { offsetInCU: 0x45E2E, offset: 0x45E2E, size: 0x8, addend: 0x0, symName: __ZNSt3__16vectorINS_7__stateIcEENS_9allocatorIS2_EEE9__end_capB8ue170006Ev, symObjAddr: 0x28798, symBinAddr: 0x100028ED0, symSize: 0x28 }
  - { offsetInCU: 0x45E5A, offset: 0x45E5A, size: 0x8, addend: 0x0, symName: __ZNSt3__16vectorINS_7__stateIcEENS_9allocatorIS2_EEE22__construct_one_at_endB8ue170006IJS2_EEEvDpOT_, symObjAddr: 0x287C0, symBinAddr: 0x100028EF8, symSize: 0x98 }
  - { offsetInCU: 0x45EA9, offset: 0x45EA9, size: 0x8, addend: 0x0, symName: __ZNSt3__16vectorINS_7__stateIcEENS_9allocatorIS2_EEE21__push_back_slow_pathIS2_EEvOT_, symObjAddr: 0x28858, symBinAddr: 0x100028F90, symSize: 0xE0 }
  - { offsetInCU: 0x45F07, offset: 0x45F07, size: 0x8, addend: 0x0, symName: __ZNSt3__117__compressed_pairIPNS_7__stateIcEENS_9allocatorIS2_EEE5firstB8ue170006Ev, symObjAddr: 0x28938, symBinAddr: 0x100029070, symSize: 0x24 }
  - { offsetInCU: 0x45F2D, offset: 0x45F2D, size: 0x8, addend: 0x0, symName: __ZNSt3__122__compressed_pair_elemIPNS_7__stateIcEELi0ELb0EE5__getB8ue170006Ev, symObjAddr: 0x2895C, symBinAddr: 0x100029094, symSize: 0x14 }
  - { offsetInCU: 0x45F6F, offset: 0x45F6F, size: 0x8, addend: 0x0, symName: __ZNSt3__16vectorINS_7__stateIcEENS_9allocatorIS2_EEE21_ConstructTransactionC1B8ue170006ERS5_m, symObjAddr: 0x28970, symBinAddr: 0x1000290A8, symSize: 0x3C }
  - { offsetInCU: 0x45FB7, offset: 0x45FB7, size: 0x8, addend: 0x0, symName: __ZNSt3__116allocator_traitsINS_9allocatorINS_7__stateIcEEEEE9constructB8ue170006IS3_JS3_EvEEvRS4_PT_DpOT0_, symObjAddr: 0x289AC, symBinAddr: 0x1000290E4, symSize: 0x34 }
  - { offsetInCU: 0x4600E, offset: 0x4600E, size: 0x8, addend: 0x0, symName: __ZNSt3__16vectorINS_7__stateIcEENS_9allocatorIS2_EEE7__allocB8ue170006Ev, symObjAddr: 0x289E0, symBinAddr: 0x100029118, symSize: 0x28 }
  - { offsetInCU: 0x46034, offset: 0x46034, size: 0x8, addend: 0x0, symName: __ZNSt3__16vectorINS_7__stateIcEENS_9allocatorIS2_EEE21_ConstructTransactionD1B8ue170006Ev, symObjAddr: 0x28A1C, symBinAddr: 0x100029154, symSize: 0x2C }
  - { offsetInCU: 0x4605E, offset: 0x4605E, size: 0x8, addend: 0x0, symName: __ZNSt3__16vectorINS_7__stateIcEENS_9allocatorIS2_EEE21_ConstructTransactionC2B8ue170006ERS5_m, symObjAddr: 0x28A48, symBinAddr: 0x100029180, symSize: 0x4C }
  - { offsetInCU: 0x460A6, offset: 0x460A6, size: 0x8, addend: 0x0, symName: __ZNSt3__19allocatorINS_7__stateIcEEE9constructB8ue170006IS2_JS2_EEEvPT_DpOT0_, symObjAddr: 0x28A94, symBinAddr: 0x1000291CC, symSize: 0x30 }
  - { offsetInCU: 0x460FC, offset: 0x460FC, size: 0x8, addend: 0x0, symName: __ZNSt3__117__compressed_pairIPNS_7__stateIcEENS_9allocatorIS2_EEE6secondB8ue170006Ev, symObjAddr: 0x28AC4, symBinAddr: 0x1000291FC, symSize: 0x24 }
  - { offsetInCU: 0x46122, offset: 0x46122, size: 0x8, addend: 0x0, symName: __ZNSt3__122__compressed_pair_elemINS_9allocatorINS_7__stateIcEEEELi1ELb1EE5__getB8ue170006Ev, symObjAddr: 0x28AE8, symBinAddr: 0x100029220, symSize: 0x14 }
  - { offsetInCU: 0x46148, offset: 0x46148, size: 0x8, addend: 0x0, symName: __ZNSt3__16vectorINS_7__stateIcEENS_9allocatorIS2_EEE21_ConstructTransactionD2B8ue170006Ev, symObjAddr: 0x28AFC, symBinAddr: 0x100029234, symSize: 0x20 }
  - { offsetInCU: 0x46172, offset: 0x46172, size: 0x8, addend: 0x0, symName: __ZNKSt3__16vectorINS_7__stateIcEENS_9allocatorIS2_EEE11__recommendB8ue170006Em, symObjAddr: 0x28B1C, symBinAddr: 0x100029254, symSize: 0xB4 }
  - { offsetInCU: 0x461C7, offset: 0x461C7, size: 0x8, addend: 0x0, symName: __ZNKSt3__16vectorINS_7__stateIcEENS_9allocatorIS2_EEE4sizeB8ue170006Ev, symObjAddr: 0x28BD0, symBinAddr: 0x100029308, symSize: 0x28 }
  - { offsetInCU: 0x461ED, offset: 0x461ED, size: 0x8, addend: 0x0, symName: __ZNSt3__114__split_bufferINS_7__stateIcEERNS_9allocatorIS2_EEEC1EmmS5_, symObjAddr: 0x28BF8, symBinAddr: 0x100029330, symSize: 0x44 }
  - { offsetInCU: 0x46243, offset: 0x46243, size: 0x8, addend: 0x0, symName: __ZNSt3__114__split_bufferINS_7__stateIcEERNS_9allocatorIS2_EEED1Ev, symObjAddr: 0x28D4C, symBinAddr: 0x100029484, symSize: 0x2C }
  - { offsetInCU: 0x4626F, offset: 0x4626F, size: 0x8, addend: 0x0, symName: __ZNKSt3__16vectorINS_7__stateIcEENS_9allocatorIS2_EEE8max_sizeEv, symObjAddr: 0x28D78, symBinAddr: 0x1000294B0, symSize: 0x74 }
  - { offsetInCU: 0x46297, offset: 0x46297, size: 0x8, addend: 0x0, symName: __ZNKSt3__16vectorINS_7__stateIcEENS_9allocatorIS2_EEE20__throw_length_errorB8ue170006Ev, symObjAddr: 0x28DEC, symBinAddr: 0x100029524, symSize: 0x1C }
  - { offsetInCU: 0x462BD, offset: 0x462BD, size: 0x8, addend: 0x0, symName: __ZNKSt3__16vectorINS_7__stateIcEENS_9allocatorIS2_EEE8capacityB8ue170006Ev, symObjAddr: 0x28E08, symBinAddr: 0x100029540, symSize: 0x40 }
  - { offsetInCU: 0x462EE, offset: 0x462EE, size: 0x8, addend: 0x0, symName: __ZNSt3__116allocator_traitsINS_9allocatorINS_7__stateIcEEEEE8max_sizeB8ue170006IS4_vEEmRKS4_, symObjAddr: 0x28E48, symBinAddr: 0x100029580, symSize: 0x24 }
  - { offsetInCU: 0x4631C, offset: 0x4631C, size: 0x8, addend: 0x0, symName: __ZNKSt3__16vectorINS_7__stateIcEENS_9allocatorIS2_EEE7__allocB8ue170006Ev, symObjAddr: 0x28E6C, symBinAddr: 0x1000295A4, symSize: 0x28 }
  - { offsetInCU: 0x46342, offset: 0x46342, size: 0x8, addend: 0x0, symName: __ZNKSt3__19allocatorINS_7__stateIcEEE8max_sizeB8ue170006Ev, symObjAddr: 0x28E94, symBinAddr: 0x1000295CC, symSize: 0x18 }
  - { offsetInCU: 0x46368, offset: 0x46368, size: 0x8, addend: 0x0, symName: __ZNKSt3__117__compressed_pairIPNS_7__stateIcEENS_9allocatorIS2_EEE6secondB8ue170006Ev, symObjAddr: 0x28EAC, symBinAddr: 0x1000295E4, symSize: 0x24 }
  - { offsetInCU: 0x4638E, offset: 0x4638E, size: 0x8, addend: 0x0, symName: __ZNKSt3__122__compressed_pair_elemINS_9allocatorINS_7__stateIcEEEELi1ELb1EE5__getB8ue170006Ev, symObjAddr: 0x28ED0, symBinAddr: 0x100029608, symSize: 0x14 }
  - { offsetInCU: 0x463B4, offset: 0x463B4, size: 0x8, addend: 0x0, symName: __ZNKSt3__16vectorINS_7__stateIcEENS_9allocatorIS2_EEE9__end_capB8ue170006Ev, symObjAddr: 0x28EE4, symBinAddr: 0x10002961C, symSize: 0x28 }
  - { offsetInCU: 0x463DA, offset: 0x463DA, size: 0x8, addend: 0x0, symName: __ZNKSt3__117__compressed_pairIPNS_7__stateIcEENS_9allocatorIS2_EEE5firstB8ue170006Ev, symObjAddr: 0x28F0C, symBinAddr: 0x100029644, symSize: 0x24 }
  - { offsetInCU: 0x46400, offset: 0x46400, size: 0x8, addend: 0x0, symName: __ZNKSt3__122__compressed_pair_elemIPNS_7__stateIcEELi0ELb0EE5__getB8ue170006Ev, symObjAddr: 0x28F30, symBinAddr: 0x100029668, symSize: 0x14 }
  - { offsetInCU: 0x46426, offset: 0x46426, size: 0x8, addend: 0x0, symName: __ZNSt3__114__split_bufferINS_7__stateIcEERNS_9allocatorIS2_EEEC2EmmS5_, symObjAddr: 0x28F44, symBinAddr: 0x10002967C, symSize: 0xE0 }
  - { offsetInCU: 0x4649A, offset: 0x4649A, size: 0x8, addend: 0x0, symName: __ZNSt3__117__compressed_pairIPNS_7__stateIcEERNS_9allocatorIS2_EEEC1B8ue170006IDnS6_EEOT_OT0_, symObjAddr: 0x29024, symBinAddr: 0x10002975C, symSize: 0x3C }
  - { offsetInCU: 0x464F2, offset: 0x464F2, size: 0x8, addend: 0x0, symName: __ZNSt3__114__split_bufferINS_7__stateIcEERNS_9allocatorIS2_EEE7__allocB8ue170006Ev, symObjAddr: 0x290A0, symBinAddr: 0x1000297D8, symSize: 0x28 }
  - { offsetInCU: 0x46518, offset: 0x46518, size: 0x8, addend: 0x0, symName: __ZNSt3__114__split_bufferINS_7__stateIcEERNS_9allocatorIS2_EEE9__end_capB8ue170006Ev, symObjAddr: 0x290C8, symBinAddr: 0x100029800, symSize: 0x28 }
  - { offsetInCU: 0x4653E, offset: 0x4653E, size: 0x8, addend: 0x0, symName: __ZNSt3__117__compressed_pairIPNS_7__stateIcEERNS_9allocatorIS2_EEEC2B8ue170006IDnS6_EEOT_OT0_, symObjAddr: 0x290F0, symBinAddr: 0x100029828, symSize: 0x48 }
  - { offsetInCU: 0x46596, offset: 0x46596, size: 0x8, addend: 0x0, symName: __ZNSt3__122__compressed_pair_elemIRNS_9allocatorINS_7__stateIcEEEELi1ELb0EEC2B8ue170006IS5_vEEOT_, symObjAddr: 0x29138, symBinAddr: 0x100029870, symSize: 0x20 }
  - { offsetInCU: 0x465D8, offset: 0x465D8, size: 0x8, addend: 0x0, symName: __ZNSt3__19allocatorINS_7__stateIcEEE8allocateB8ue170006Em, symObjAddr: 0x29158, symBinAddr: 0x100029890, symSize: 0x8C }
  - { offsetInCU: 0x4660C, offset: 0x4660C, size: 0x8, addend: 0x0, symName: __ZNSt3__117__compressed_pairIPNS_7__stateIcEERNS_9allocatorIS2_EEE6secondB8ue170006Ev, symObjAddr: 0x291E4, symBinAddr: 0x10002991C, symSize: 0x28 }
  - { offsetInCU: 0x46632, offset: 0x46632, size: 0x8, addend: 0x0, symName: __ZNSt3__122__compressed_pair_elemIRNS_9allocatorINS_7__stateIcEEEELi1ELb0EE5__getB8ue170006Ev, symObjAddr: 0x2920C, symBinAddr: 0x100029944, symSize: 0x18 }
  - { offsetInCU: 0x46658, offset: 0x46658, size: 0x8, addend: 0x0, symName: __ZNSt3__117__compressed_pairIPNS_7__stateIcEERNS_9allocatorIS2_EEE5firstB8ue170006Ev, symObjAddr: 0x29224, symBinAddr: 0x10002995C, symSize: 0x24 }
  - { offsetInCU: 0x4667E, offset: 0x4667E, size: 0x8, addend: 0x0, symName: __ZNKSt3__16vectorINS_7__stateIcEENS_9allocatorIS2_EEE17__annotate_deleteB8ue170006Ev, symObjAddr: 0x29248, symBinAddr: 0x100029980, symSize: 0xD4 }
  - { offsetInCU: 0x466A4, offset: 0x466A4, size: 0x8, addend: 0x0, symName: __ZNSt3__116reverse_iteratorIPNS_7__stateIcEEEC1B8ue170006ES3_, symObjAddr: 0x29450, symBinAddr: 0x100029B88, symSize: 0x34 }
  - { offsetInCU: 0x466DC, offset: 0x466DC, size: 0x8, addend: 0x0, symName: __ZNKSt3__116reverse_iteratorIPNS_7__stateIcEEE4baseB8ue170006Ev, symObjAddr: 0x29484, symBinAddr: 0x100029BBC, symSize: 0x18 }
  - { offsetInCU: 0x46702, offset: 0x46702, size: 0x8, addend: 0x0, symName: __ZNKSt3__16vectorINS_7__stateIcEENS_9allocatorIS2_EEE14__annotate_newB8ue170006Em, symObjAddr: 0x294D8, symBinAddr: 0x100029C10, symSize: 0xC8 }
  - { offsetInCU: 0x46737, offset: 0x46737, size: 0x8, addend: 0x0, symName: __ZNKSt3__16vectorINS_7__stateIcEENS_9allocatorIS2_EEE31__annotate_contiguous_containerB8ue170006EPKvS7_S7_S7_, symObjAddr: 0x295A0, symBinAddr: 0x100029CD8, symSize: 0x20 }
  - { offsetInCU: 0x46789, offset: 0x46789, size: 0x8, addend: 0x0, symName: __ZNKSt3__16vectorINS_7__stateIcEENS_9allocatorIS2_EEE4dataB8ue170006Ev, symObjAddr: 0x295C0, symBinAddr: 0x100029CF8, symSize: 0x28 }
  - { offsetInCU: 0x467AF, offset: 0x467AF, size: 0x8, addend: 0x0, symName: __ZNSt3__129_AllocatorDestroyRangeReverseINS_9allocatorINS_7__stateIcEEEENS_16reverse_iteratorIPS3_EEEC1B8ue170006ERS4_RS7_SA_, symObjAddr: 0x29634, symBinAddr: 0x100029D6C, symSize: 0x44 }
  - { offsetInCU: 0x46806, offset: 0x46806, size: 0x8, addend: 0x0, symName: __ZNSt3__116allocator_traitsINS_9allocatorINS_7__stateIcEEEEE9constructB8ue170006IS3_JRKS3_EvEEvRS4_PT_DpOT0_, symObjAddr: 0x296C0, symBinAddr: 0x100029DF8, symSize: 0x34 }
  - { offsetInCU: 0x4685D, offset: 0x4685D, size: 0x8, addend: 0x0, symName: __ZNKSt3__116reverse_iteratorIPNS_7__stateIcEEEdeB8ue170006Ev, symObjAddr: 0x29718, symBinAddr: 0x100029E50, symSize: 0x28 }
  - { offsetInCU: 0x46891, offset: 0x46891, size: 0x8, addend: 0x0, symName: __ZNSt3__116reverse_iteratorIPNS_7__stateIcEEEppB8ue170006Ev, symObjAddr: 0x29740, symBinAddr: 0x100029E78, symSize: 0x20 }
  - { offsetInCU: 0x468B7, offset: 0x468B7, size: 0x8, addend: 0x0, symName: __ZNSt3__128__exception_guard_exceptionsINS_29_AllocatorDestroyRangeReverseINS_9allocatorINS_7__stateIcEEEENS_16reverse_iteratorIPS4_EEEEE10__completeB8ue170006Ev, symObjAddr: 0x29760, symBinAddr: 0x100029E98, symSize: 0x1C }
  - { offsetInCU: 0x468DD, offset: 0x468DD, size: 0x8, addend: 0x0, symName: __ZNSt3__128__exception_guard_exceptionsINS_29_AllocatorDestroyRangeReverseINS_9allocatorINS_7__stateIcEEEENS_16reverse_iteratorIPS4_EEEEED1B8ue170006Ev, symObjAddr: 0x2977C, symBinAddr: 0x100029EB4, symSize: 0x2C }
  - { offsetInCU: 0x46907, offset: 0x46907, size: 0x8, addend: 0x0, symName: __ZNSt3__128__exception_guard_exceptionsINS_29_AllocatorDestroyRangeReverseINS_9allocatorINS_7__stateIcEEEENS_16reverse_iteratorIPS4_EEEEEC1B8ue170006ES9_, symObjAddr: 0x297A8, symBinAddr: 0x100029EE0, symSize: 0x34 }
  - { offsetInCU: 0x46940, offset: 0x46940, size: 0x8, addend: 0x0, symName: __ZNSt3__128__exception_guard_exceptionsINS_29_AllocatorDestroyRangeReverseINS_9allocatorINS_7__stateIcEEEENS_16reverse_iteratorIPS4_EEEEEC2B8ue170006ES9_, symObjAddr: 0x297DC, symBinAddr: 0x100029F14, symSize: 0x30 }
  - { offsetInCU: 0x46979, offset: 0x46979, size: 0x8, addend: 0x0, symName: __ZNSt3__129_AllocatorDestroyRangeReverseINS_9allocatorINS_7__stateIcEEEENS_16reverse_iteratorIPS3_EEEC2B8ue170006ERS4_RS7_SA_, symObjAddr: 0x2980C, symBinAddr: 0x100029F44, symSize: 0x38 }
  - { offsetInCU: 0x469D0, offset: 0x469D0, size: 0x8, addend: 0x0, symName: __ZNSt3__19allocatorINS_7__stateIcEEE9constructB8ue170006IS2_JRKS2_EEEvPT_DpOT0_, symObjAddr: 0x29844, symBinAddr: 0x100029F7C, symSize: 0x30 }
  - { offsetInCU: 0x46A2C, offset: 0x46A2C, size: 0x8, addend: 0x0, symName: __ZNSt3__119__to_address_helperINS_16reverse_iteratorIPNS_7__stateIcEEEEvE6__callB8ue170006ERKS5_, symObjAddr: 0x29874, symBinAddr: 0x100029FAC, symSize: 0x4C }
  - { offsetInCU: 0x46A4F, offset: 0x46A4F, size: 0x8, addend: 0x0, symName: __ZNKSt3__116reverse_iteratorIPNS_7__stateIcEEEptB8ue170006Ev, symObjAddr: 0x298C0, symBinAddr: 0x100029FF8, symSize: 0x24 }
  - { offsetInCU: 0x46A75, offset: 0x46A75, size: 0x8, addend: 0x0, symName: __ZNSt3__128__exception_guard_exceptionsINS_29_AllocatorDestroyRangeReverseINS_9allocatorINS_7__stateIcEEEENS_16reverse_iteratorIPS4_EEEEED2B8ue170006Ev, symObjAddr: 0x298E4, symBinAddr: 0x10002A01C, symSize: 0x48 }
  - { offsetInCU: 0x46A9F, offset: 0x46A9F, size: 0x8, addend: 0x0, symName: __ZNKSt3__129_AllocatorDestroyRangeReverseINS_9allocatorINS_7__stateIcEEEENS_16reverse_iteratorIPS3_EEEclB8ue170006Ev, symObjAddr: 0x2992C, symBinAddr: 0x10002A064, symSize: 0xB4 }
  - { offsetInCU: 0x46AC6, offset: 0x46AC6, size: 0x8, addend: 0x0, symName: __ZNSt3__116reverse_iteratorINS0_IPNS_7__stateIcEEEEEC1B8ue170006ES4_, symObjAddr: 0x29A50, symBinAddr: 0x10002A188, symSize: 0x3C }
  - { offsetInCU: 0x46AFE, offset: 0x46AFE, size: 0x8, addend: 0x0, symName: __ZNSt3__116allocator_traitsINS_9allocatorINS_7__stateIcEEEEE7destroyB8ue170006IS3_vEEvRS4_PT_, symObjAddr: 0x29AEC, symBinAddr: 0x10002A224, symSize: 0x2C }
  - { offsetInCU: 0x46B3B, offset: 0x46B3B, size: 0x8, addend: 0x0, symName: __ZNSt3__116reverse_iteratorINS0_IPNS_7__stateIcEEEEEppB8ue170006Ev, symObjAddr: 0x29B3C, symBinAddr: 0x10002A274, symSize: 0x30 }
  - { offsetInCU: 0x46B61, offset: 0x46B61, size: 0x8, addend: 0x0, symName: __ZNKSt3__116reverse_iteratorINS0_IPNS_7__stateIcEEEEE4baseB8ue170006Ev, symObjAddr: 0x29B6C, symBinAddr: 0x10002A2A4, symSize: 0x24 }
  - { offsetInCU: 0x46B87, offset: 0x46B87, size: 0x8, addend: 0x0, symName: __ZNSt3__19allocatorINS_7__stateIcEEE7destroyB8ue170006EPS2_, symObjAddr: 0x29B90, symBinAddr: 0x10002A2C8, symSize: 0x28 }
  - { offsetInCU: 0x46BC1, offset: 0x46BC1, size: 0x8, addend: 0x0, symName: __ZNSt3__119__to_address_helperINS_16reverse_iteratorINS1_IPNS_7__stateIcEEEEEEvE6__callB8ue170006ERKS6_, symObjAddr: 0x29BB8, symBinAddr: 0x10002A2F0, symSize: 0x4C }
  - { offsetInCU: 0x46BE4, offset: 0x46BE4, size: 0x8, addend: 0x0, symName: __ZNKSt3__116reverse_iteratorINS0_IPNS_7__stateIcEEEEEptB8ue170006Ev, symObjAddr: 0x29C04, symBinAddr: 0x10002A33C, symSize: 0x24 }
  - { offsetInCU: 0x46C0A, offset: 0x46C0A, size: 0x8, addend: 0x0, symName: __ZNKSt3__116reverse_iteratorINS0_IPNS_7__stateIcEEEEEdeB8ue170006Ev, symObjAddr: 0x29C28, symBinAddr: 0x10002A360, symSize: 0x34 }
  - { offsetInCU: 0x46C3E, offset: 0x46C3E, size: 0x8, addend: 0x0, symName: __ZNSt3__116reverse_iteratorIPNS_7__stateIcEEEmmB8ue170006Ev, symObjAddr: 0x29C5C, symBinAddr: 0x10002A394, symSize: 0x20 }
  - { offsetInCU: 0x46C64, offset: 0x46C64, size: 0x8, addend: 0x0, symName: __ZNSt3__116reverse_iteratorINS0_IPNS_7__stateIcEEEEEC2B8ue170006ES4_, symObjAddr: 0x29C7C, symBinAddr: 0x10002A3B4, symSize: 0x2C }
  - { offsetInCU: 0x46C9C, offset: 0x46C9C, size: 0x8, addend: 0x0, symName: __ZNSt3__116reverse_iteratorIPNS_7__stateIcEEEC2B8ue170006ES3_, symObjAddr: 0x29CA8, symBinAddr: 0x10002A3E0, symSize: 0x28 }
  - { offsetInCU: 0x46CD4, offset: 0x46CD4, size: 0x8, addend: 0x0, symName: __ZNSt3__114__split_bufferINS_7__stateIcEERNS_9allocatorIS2_EEED2Ev, symObjAddr: 0x29CD0, symBinAddr: 0x10002A408, symSize: 0x80 }
  - { offsetInCU: 0x46D00, offset: 0x46D00, size: 0x8, addend: 0x0, symName: __ZNSt3__114__split_bufferINS_7__stateIcEERNS_9allocatorIS2_EEE5clearB8ue170006Ev, symObjAddr: 0x29D50, symBinAddr: 0x10002A488, symSize: 0x28 }
  - { offsetInCU: 0x46D26, offset: 0x46D26, size: 0x8, addend: 0x0, symName: __ZNSt3__116allocator_traitsINS_9allocatorINS_7__stateIcEEEEE10deallocateB8ue170006ERS4_PS3_m, symObjAddr: 0x29D78, symBinAddr: 0x10002A4B0, symSize: 0x34 }
  - { offsetInCU: 0x46D68, offset: 0x46D68, size: 0x8, addend: 0x0, symName: __ZNKSt3__114__split_bufferINS_7__stateIcEERNS_9allocatorIS2_EEE8capacityB8ue170006Ev, symObjAddr: 0x29DAC, symBinAddr: 0x10002A4E4, symSize: 0x40 }
  - { offsetInCU: 0x46D8E, offset: 0x46D8E, size: 0x8, addend: 0x0, symName: __ZNSt3__114__split_bufferINS_7__stateIcEERNS_9allocatorIS2_EEE17__destruct_at_endB8ue170006EPS2_, symObjAddr: 0x29DEC, symBinAddr: 0x10002A524, symSize: 0x2C }
  - { offsetInCU: 0x46DC2, offset: 0x46DC2, size: 0x8, addend: 0x0, symName: __ZNSt3__114__split_bufferINS_7__stateIcEERNS_9allocatorIS2_EEE17__destruct_at_endB8ue170006EPS2_NS_17integral_constantIbLb0EEE, symObjAddr: 0x29E18, symBinAddr: 0x10002A550, symSize: 0x94 }
  - { offsetInCU: 0x46E02, offset: 0x46E02, size: 0x8, addend: 0x0, symName: __ZNSt3__19allocatorINS_7__stateIcEEE10deallocateB8ue170006EPS2_m, symObjAddr: 0x29EAC, symBinAddr: 0x10002A5E4, symSize: 0x74 }
  - { offsetInCU: 0x46E44, offset: 0x46E44, size: 0x8, addend: 0x0, symName: __ZNKSt3__114__split_bufferINS_7__stateIcEERNS_9allocatorIS2_EEE9__end_capB8ue170006Ev, symObjAddr: 0x29F20, symBinAddr: 0x10002A658, symSize: 0x28 }
  - { offsetInCU: 0x46E6A, offset: 0x46E6A, size: 0x8, addend: 0x0, symName: __ZNKSt3__117__compressed_pairIPNS_7__stateIcEERNS_9allocatorIS2_EEE5firstB8ue170006Ev, symObjAddr: 0x29F48, symBinAddr: 0x10002A680, symSize: 0x24 }
  - { offsetInCU: 0x46E90, offset: 0x46E90, size: 0x8, addend: 0x0, symName: __ZNSt3__17__stateIcEC2B8ue170006Ev, symObjAddr: 0x29F6C, symBinAddr: 0x10002A6A4, symSize: 0x88 }
  - { offsetInCU: 0x46EBA, offset: 0x46EBA, size: 0x8, addend: 0x0, symName: __ZNSt3__16vectorINS_9sub_matchIPKcEENS_9allocatorIS4_EEEC1B8ue170006Ev, symObjAddr: 0x29FF4, symBinAddr: 0x10002A72C, symSize: 0x2C }
  - { offsetInCU: 0x46EE4, offset: 0x46EE4, size: 0x8, addend: 0x0, symName: __ZNSt3__16vectorINS_4pairImPKcEENS_9allocatorIS4_EEEC1B8ue170006Ev, symObjAddr: 0x2A020, symBinAddr: 0x10002A758, symSize: 0x2C }
  - { offsetInCU: 0x46F0E, offset: 0x46F0E, size: 0x8, addend: 0x0, symName: __ZNSt3__16vectorINS_9sub_matchIPKcEENS_9allocatorIS4_EEEC2B8ue170006Ev, symObjAddr: 0x2A04C, symBinAddr: 0x10002A784, symSize: 0x44 }
  - { offsetInCU: 0x46F38, offset: 0x46F38, size: 0x8, addend: 0x0, symName: __ZNSt3__117__compressed_pairIPNS_9sub_matchIPKcEENS_9allocatorIS4_EEEC1B8ue170006IDnNS_18__default_init_tagEEEOT_OT0_, symObjAddr: 0x2A090, symBinAddr: 0x10002A7C8, symSize: 0x3C }
  - { offsetInCU: 0x46F90, offset: 0x46F90, size: 0x8, addend: 0x0, symName: __ZNSt3__117__compressed_pairIPNS_9sub_matchIPKcEENS_9allocatorIS4_EEEC2B8ue170006IDnNS_18__default_init_tagEEEOT_OT0_, symObjAddr: 0x2A0CC, symBinAddr: 0x10002A804, symSize: 0x40 }
  - { offsetInCU: 0x46FE8, offset: 0x46FE8, size: 0x8, addend: 0x0, symName: __ZNSt3__122__compressed_pair_elemINS_9allocatorINS_9sub_matchIPKcEEEELi1ELb1EEC2B8ue170006ENS_18__default_init_tagE, symObjAddr: 0x2A10C, symBinAddr: 0x10002A844, symSize: 0x2C }
  - { offsetInCU: 0x4701C, offset: 0x4701C, size: 0x8, addend: 0x0, symName: __ZNSt3__16vectorINS_4pairImPKcEENS_9allocatorIS4_EEEC2B8ue170006Ev, symObjAddr: 0x2A138, symBinAddr: 0x10002A870, symSize: 0x44 }
  - { offsetInCU: 0x47046, offset: 0x47046, size: 0x8, addend: 0x0, symName: __ZNSt3__117__compressed_pairIPNS_4pairImPKcEENS_9allocatorIS4_EEEC1B8ue170006IDnNS_18__default_init_tagEEEOT_OT0_, symObjAddr: 0x2A17C, symBinAddr: 0x10002A8B4, symSize: 0x3C }
  - { offsetInCU: 0x4709E, offset: 0x4709E, size: 0x8, addend: 0x0, symName: __ZNSt3__117__compressed_pairIPNS_4pairImPKcEENS_9allocatorIS4_EEEC2B8ue170006IDnNS_18__default_init_tagEEEOT_OT0_, symObjAddr: 0x2A1B8, symBinAddr: 0x10002A8F0, symSize: 0x40 }
  - { offsetInCU: 0x470F6, offset: 0x470F6, size: 0x8, addend: 0x0, symName: __ZNSt3__122__compressed_pair_elemIPNS_4pairImPKcEELi0ELb0EEC2B8ue170006IDnvEEOT_, symObjAddr: 0x2A1F8, symBinAddr: 0x10002A930, symSize: 0x1C }
  - { offsetInCU: 0x47138, offset: 0x47138, size: 0x8, addend: 0x0, symName: __ZNSt3__122__compressed_pair_elemINS_9allocatorINS_4pairImPKcEEEELi1ELb1EEC2B8ue170006ENS_18__default_init_tagE, symObjAddr: 0x2A214, symBinAddr: 0x10002A94C, symSize: 0x2C }
  - { offsetInCU: 0x4716C, offset: 0x4716C, size: 0x8, addend: 0x0, symName: __ZNSt3__19allocatorINS_4pairImPKcEEEC2B8ue170006Ev, symObjAddr: 0x2A240, symBinAddr: 0x10002A978, symSize: 0x2C }
  - { offsetInCU: 0x47196, offset: 0x47196, size: 0x8, addend: 0x0, symName: __ZNSt3__116__non_trivial_ifILb1ENS_9allocatorINS_4pairImPKcEEEEEC2B8ue170006Ev, symObjAddr: 0x2A26C, symBinAddr: 0x10002A9A4, symSize: 0x14 }
  - { offsetInCU: 0x471C0, offset: 0x471C0, size: 0x8, addend: 0x0, symName: __ZNSt3__17__stateIcED2Ev, symObjAddr: 0x2A280, symBinAddr: 0x10002A9B8, symSize: 0x6C }
  - { offsetInCU: 0x471ED, offset: 0x471ED, size: 0x8, addend: 0x0, symName: __ZNSt3__16vectorINS_4pairImPKcEENS_9allocatorIS4_EEED1B8ue170006Ev, symObjAddr: 0x2A2EC, symBinAddr: 0x10002AA24, symSize: 0x2C }
  - { offsetInCU: 0x47217, offset: 0x47217, size: 0x8, addend: 0x0, symName: __ZNSt3__16vectorINS_4pairImPKcEENS_9allocatorIS4_EEED2B8ue170006Ev, symObjAddr: 0x2A318, symBinAddr: 0x10002AA50, symSize: 0x3C }
  - { offsetInCU: 0x47241, offset: 0x47241, size: 0x8, addend: 0x0, symName: __ZNSt3__16vectorINS_4pairImPKcEENS_9allocatorIS4_EEE16__destroy_vectorC1B8ue170006ERS7_, symObjAddr: 0x2A354, symBinAddr: 0x10002AA8C, symSize: 0x34 }
  - { offsetInCU: 0x4727A, offset: 0x4727A, size: 0x8, addend: 0x0, symName: __ZNSt3__16vectorINS_4pairImPKcEENS_9allocatorIS4_EEE16__destroy_vectorclB8ue170006Ev, symObjAddr: 0x2A388, symBinAddr: 0x10002AAC0, symSize: 0x90 }
  - { offsetInCU: 0x472A0, offset: 0x472A0, size: 0x8, addend: 0x0, symName: __ZNSt3__16vectorINS_4pairImPKcEENS_9allocatorIS4_EEE16__destroy_vectorC2B8ue170006ERS7_, symObjAddr: 0x2A418, symBinAddr: 0x10002AB50, symSize: 0x20 }
  - { offsetInCU: 0x472D9, offset: 0x472D9, size: 0x8, addend: 0x0, symName: __ZNSt3__16vectorINS_4pairImPKcEENS_9allocatorIS4_EEE7__clearB8ue170006Ev, symObjAddr: 0x2A438, symBinAddr: 0x10002AB70, symSize: 0x28 }
  - { offsetInCU: 0x472FF, offset: 0x472FF, size: 0x8, addend: 0x0, symName: __ZNKSt3__16vectorINS_4pairImPKcEENS_9allocatorIS4_EEE17__annotate_deleteB8ue170006Ev, symObjAddr: 0x2A460, symBinAddr: 0x10002AB98, symSize: 0xB8 }
  - { offsetInCU: 0x47325, offset: 0x47325, size: 0x8, addend: 0x0, symName: __ZNSt3__116allocator_traitsINS_9allocatorINS_4pairImPKcEEEEE10deallocateB8ue170006ERS6_PS5_m, symObjAddr: 0x2A518, symBinAddr: 0x10002AC50, symSize: 0x34 }
  - { offsetInCU: 0x47367, offset: 0x47367, size: 0x8, addend: 0x0, symName: __ZNSt3__16vectorINS_4pairImPKcEENS_9allocatorIS4_EEE7__allocB8ue170006Ev, symObjAddr: 0x2A54C, symBinAddr: 0x10002AC84, symSize: 0x28 }
  - { offsetInCU: 0x4738D, offset: 0x4738D, size: 0x8, addend: 0x0, symName: __ZNKSt3__16vectorINS_4pairImPKcEENS_9allocatorIS4_EEE8capacityB8ue170006Ev, symObjAddr: 0x2A574, symBinAddr: 0x10002ACAC, symSize: 0x40 }
  - { offsetInCU: 0x473B3, offset: 0x473B3, size: 0x8, addend: 0x0, symName: __ZNSt3__16vectorINS_4pairImPKcEENS_9allocatorIS4_EEE22__base_destruct_at_endB8ue170006EPS4_, symObjAddr: 0x2A5B4, symBinAddr: 0x10002ACEC, symSize: 0xA0 }
  - { offsetInCU: 0x473F7, offset: 0x473F7, size: 0x8, addend: 0x0, symName: __ZNSt3__116allocator_traitsINS_9allocatorINS_4pairImPKcEEEEE7destroyB8ue170006IS5_vEEvRS6_PT_, symObjAddr: 0x2A654, symBinAddr: 0x10002AD8C, symSize: 0x2C }
  - { offsetInCU: 0x47434, offset: 0x47434, size: 0x8, addend: 0x0, symName: __ZNSt3__19allocatorINS_4pairImPKcEEE7destroyB8ue170006EPS4_, symObjAddr: 0x2A694, symBinAddr: 0x10002ADCC, symSize: 0x14 }
  - { offsetInCU: 0x47468, offset: 0x47468, size: 0x8, addend: 0x0, symName: __ZNKSt3__16vectorINS_4pairImPKcEENS_9allocatorIS4_EEE31__annotate_contiguous_containerB8ue170006EPKvS9_S9_S9_, symObjAddr: 0x2A6A8, symBinAddr: 0x10002ADE0, symSize: 0x20 }
  - { offsetInCU: 0x474BA, offset: 0x474BA, size: 0x8, addend: 0x0, symName: __ZNKSt3__16vectorINS_4pairImPKcEENS_9allocatorIS4_EEE4dataB8ue170006Ev, symObjAddr: 0x2A6C8, symBinAddr: 0x10002AE00, symSize: 0x28 }
  - { offsetInCU: 0x474E0, offset: 0x474E0, size: 0x8, addend: 0x0, symName: __ZNKSt3__16vectorINS_4pairImPKcEENS_9allocatorIS4_EEE4sizeB8ue170006Ev, symObjAddr: 0x2A6F0, symBinAddr: 0x10002AE28, symSize: 0x28 }
  - { offsetInCU: 0x47506, offset: 0x47506, size: 0x8, addend: 0x0, symName: __ZNSt3__19allocatorINS_4pairImPKcEEE10deallocateB8ue170006EPS4_m, symObjAddr: 0x2A718, symBinAddr: 0x10002AE50, symSize: 0x70 }
  - { offsetInCU: 0x47548, offset: 0x47548, size: 0x8, addend: 0x0, symName: __ZNSt3__117__compressed_pairIPNS_4pairImPKcEENS_9allocatorIS4_EEE6secondB8ue170006Ev, symObjAddr: 0x2A788, symBinAddr: 0x10002AEC0, symSize: 0x24 }
  - { offsetInCU: 0x4756E, offset: 0x4756E, size: 0x8, addend: 0x0, symName: __ZNSt3__122__compressed_pair_elemINS_9allocatorINS_4pairImPKcEEEELi1ELb1EE5__getB8ue170006Ev, symObjAddr: 0x2A7AC, symBinAddr: 0x10002AEE4, symSize: 0x14 }
  - { offsetInCU: 0x47594, offset: 0x47594, size: 0x8, addend: 0x0, symName: __ZNKSt3__16vectorINS_4pairImPKcEENS_9allocatorIS4_EEE9__end_capB8ue170006Ev, symObjAddr: 0x2A7C0, symBinAddr: 0x10002AEF8, symSize: 0x28 }
  - { offsetInCU: 0x475BA, offset: 0x475BA, size: 0x8, addend: 0x0, symName: __ZNKSt3__117__compressed_pairIPNS_4pairImPKcEENS_9allocatorIS4_EEE5firstB8ue170006Ev, symObjAddr: 0x2A7E8, symBinAddr: 0x10002AF20, symSize: 0x24 }
  - { offsetInCU: 0x475E0, offset: 0x475E0, size: 0x8, addend: 0x0, symName: __ZNKSt3__122__compressed_pair_elemIPNS_4pairImPKcEELi0ELb0EE5__getB8ue170006Ev, symObjAddr: 0x2A80C, symBinAddr: 0x10002AF44, symSize: 0x14 }
  - { offsetInCU: 0x47606, offset: 0x47606, size: 0x8, addend: 0x0, symName: __ZNSt3__16vectorINS_9sub_matchIPKcEENS_9allocatorIS4_EEE8__appendEmRKS4_, symObjAddr: 0x2A820, symBinAddr: 0x10002AF58, symSize: 0x11C }
  - { offsetInCU: 0x47670, offset: 0x47670, size: 0x8, addend: 0x0, symName: __ZNSt3__114__split_bufferINS_9sub_matchIPKcEERNS_9allocatorIS4_EEEC1EmmS7_, symObjAddr: 0x2A93C, symBinAddr: 0x10002B074, symSize: 0x44 }
  - { offsetInCU: 0x476C6, offset: 0x476C6, size: 0x8, addend: 0x0, symName: __ZNSt3__114__split_bufferINS_9sub_matchIPKcEERNS_9allocatorIS4_EEE18__construct_at_endEmRKS4_, symObjAddr: 0x2A980, symBinAddr: 0x10002B0B8, symSize: 0xC4 }
  - { offsetInCU: 0x47719, offset: 0x47719, size: 0x8, addend: 0x0, symName: __ZNSt3__114__split_bufferINS_9sub_matchIPKcEERNS_9allocatorIS4_EEED1Ev, symObjAddr: 0x2AB54, symBinAddr: 0x10002B28C, symSize: 0x2C }
  - { offsetInCU: 0x47745, offset: 0x47745, size: 0x8, addend: 0x0, symName: __ZNSt3__114__split_bufferINS_9sub_matchIPKcEERNS_9allocatorIS4_EEEC2EmmS7_, symObjAddr: 0x2AB80, symBinAddr: 0x10002B2B8, symSize: 0xE0 }
  - { offsetInCU: 0x477B9, offset: 0x477B9, size: 0x8, addend: 0x0, symName: __ZNSt3__117__compressed_pairIPNS_9sub_matchIPKcEERNS_9allocatorIS4_EEEC1B8ue170006IDnS8_EEOT_OT0_, symObjAddr: 0x2AC60, symBinAddr: 0x10002B398, symSize: 0x3C }
  - { offsetInCU: 0x47811, offset: 0x47811, size: 0x8, addend: 0x0, symName: __ZNSt3__114__split_bufferINS_9sub_matchIPKcEERNS_9allocatorIS4_EEE7__allocB8ue170006Ev, symObjAddr: 0x2AC9C, symBinAddr: 0x10002B3D4, symSize: 0x28 }
  - { offsetInCU: 0x47837, offset: 0x47837, size: 0x8, addend: 0x0, symName: __ZNSt3__114__split_bufferINS_9sub_matchIPKcEERNS_9allocatorIS4_EEE9__end_capB8ue170006Ev, symObjAddr: 0x2ACC4, symBinAddr: 0x10002B3FC, symSize: 0x28 }
  - { offsetInCU: 0x4785D, offset: 0x4785D, size: 0x8, addend: 0x0, symName: __ZNSt3__117__compressed_pairIPNS_9sub_matchIPKcEERNS_9allocatorIS4_EEEC2B8ue170006IDnS8_EEOT_OT0_, symObjAddr: 0x2ACEC, symBinAddr: 0x10002B424, symSize: 0x48 }
  - { offsetInCU: 0x478B5, offset: 0x478B5, size: 0x8, addend: 0x0, symName: __ZNSt3__122__compressed_pair_elemIRNS_9allocatorINS_9sub_matchIPKcEEEELi1ELb0EEC2B8ue170006IS7_vEEOT_, symObjAddr: 0x2AD34, symBinAddr: 0x10002B46C, symSize: 0x20 }
  - { offsetInCU: 0x478F7, offset: 0x478F7, size: 0x8, addend: 0x0, symName: __ZNSt3__117__compressed_pairIPNS_9sub_matchIPKcEERNS_9allocatorIS4_EEE6secondB8ue170006Ev, symObjAddr: 0x2AD54, symBinAddr: 0x10002B48C, symSize: 0x28 }
  - { offsetInCU: 0x4791D, offset: 0x4791D, size: 0x8, addend: 0x0, symName: __ZNSt3__122__compressed_pair_elemIRNS_9allocatorINS_9sub_matchIPKcEEEELi1ELb0EE5__getB8ue170006Ev, symObjAddr: 0x2AD7C, symBinAddr: 0x10002B4B4, symSize: 0x18 }
  - { offsetInCU: 0x47943, offset: 0x47943, size: 0x8, addend: 0x0, symName: __ZNSt3__117__compressed_pairIPNS_9sub_matchIPKcEERNS_9allocatorIS4_EEE5firstB8ue170006Ev, symObjAddr: 0x2AD94, symBinAddr: 0x10002B4CC, symSize: 0x24 }
  - { offsetInCU: 0x47975, offset: 0x47975, size: 0x8, addend: 0x0, symName: __ZNSt3__114__split_bufferINS_9sub_matchIPKcEERNS_9allocatorIS4_EEE21_ConstructTransactionC1B8ue170006EPPS4_m, symObjAddr: 0x2ADB8, symBinAddr: 0x10002B4F0, symSize: 0x3C }
  - { offsetInCU: 0x479BB, offset: 0x479BB, size: 0x8, addend: 0x0, symName: __ZNSt3__114__split_bufferINS_9sub_matchIPKcEERNS_9allocatorIS4_EEE21_ConstructTransactionD1B8ue170006Ev, symObjAddr: 0x2ADF4, symBinAddr: 0x10002B52C, symSize: 0x2C }
  - { offsetInCU: 0x479E5, offset: 0x479E5, size: 0x8, addend: 0x0, symName: __ZNSt3__114__split_bufferINS_9sub_matchIPKcEERNS_9allocatorIS4_EEE21_ConstructTransactionC2B8ue170006EPPS4_m, symObjAddr: 0x2AE20, symBinAddr: 0x10002B558, symSize: 0x4C }
  - { offsetInCU: 0x47A2B, offset: 0x47A2B, size: 0x8, addend: 0x0, symName: __ZNSt3__114__split_bufferINS_9sub_matchIPKcEERNS_9allocatorIS4_EEE21_ConstructTransactionD2B8ue170006Ev, symObjAddr: 0x2AE6C, symBinAddr: 0x10002B5A4, symSize: 0x20 }
  - { offsetInCU: 0x47A55, offset: 0x47A55, size: 0x8, addend: 0x0, symName: __ZNSt3__116reverse_iteratorIPNS_9sub_matchIPKcEEEC1B8ue170006ES5_, symObjAddr: 0x2AFC0, symBinAddr: 0x10002B6F8, symSize: 0x34 }
  - { offsetInCU: 0x47A8D, offset: 0x47A8D, size: 0x8, addend: 0x0, symName: __ZNKSt3__116reverse_iteratorIPNS_9sub_matchIPKcEEE4baseB8ue170006Ev, symObjAddr: 0x2AFF4, symBinAddr: 0x10002B72C, symSize: 0x18 }
  - { offsetInCU: 0x47AB3, offset: 0x47AB3, size: 0x8, addend: 0x0, symName: __ZNSt3__129_AllocatorDestroyRangeReverseINS_9allocatorINS_9sub_matchIPKcEEEENS_16reverse_iteratorIPS5_EEEC1B8ue170006ERS6_RS9_SC_, symObjAddr: 0x2B094, symBinAddr: 0x10002B7CC, symSize: 0x44 }
  - { offsetInCU: 0x47B10, offset: 0x47B10, size: 0x8, addend: 0x0, symName: __ZNSt3__116allocator_traitsINS_9allocatorINS_9sub_matchIPKcEEEEE9constructB8ue170006IS5_JS5_EvEEvRS6_PT_DpOT0_, symObjAddr: 0x2B120, symBinAddr: 0x10002B858, symSize: 0x34 }
  - { offsetInCU: 0x47B67, offset: 0x47B67, size: 0x8, addend: 0x0, symName: __ZNKSt3__116reverse_iteratorIPNS_9sub_matchIPKcEEEdeB8ue170006Ev, symObjAddr: 0x2B178, symBinAddr: 0x10002B8B0, symSize: 0x28 }
  - { offsetInCU: 0x47B9B, offset: 0x47B9B, size: 0x8, addend: 0x0, symName: __ZNSt3__116reverse_iteratorIPNS_9sub_matchIPKcEEEppB8ue170006Ev, symObjAddr: 0x2B1A0, symBinAddr: 0x10002B8D8, symSize: 0x20 }
  - { offsetInCU: 0x47BC1, offset: 0x47BC1, size: 0x8, addend: 0x0, symName: __ZNSt3__128__exception_guard_exceptionsINS_29_AllocatorDestroyRangeReverseINS_9allocatorINS_9sub_matchIPKcEEEENS_16reverse_iteratorIPS6_EEEEE10__completeB8ue170006Ev, symObjAddr: 0x2B1C0, symBinAddr: 0x10002B8F8, symSize: 0x1C }
  - { offsetInCU: 0x47BE7, offset: 0x47BE7, size: 0x8, addend: 0x0, symName: __ZNSt3__128__exception_guard_exceptionsINS_29_AllocatorDestroyRangeReverseINS_9allocatorINS_9sub_matchIPKcEEEENS_16reverse_iteratorIPS6_EEEEED1B8ue170006Ev, symObjAddr: 0x2B1DC, symBinAddr: 0x10002B914, symSize: 0x2C }
  - { offsetInCU: 0x47C11, offset: 0x47C11, size: 0x8, addend: 0x0, symName: __ZNSt3__128__exception_guard_exceptionsINS_29_AllocatorDestroyRangeReverseINS_9allocatorINS_9sub_matchIPKcEEEENS_16reverse_iteratorIPS6_EEEEEC1B8ue170006ESB_, symObjAddr: 0x2B208, symBinAddr: 0x10002B940, symSize: 0x34 }
  - { offsetInCU: 0x47C4A, offset: 0x47C4A, size: 0x8, addend: 0x0, symName: __ZNSt3__128__exception_guard_exceptionsINS_29_AllocatorDestroyRangeReverseINS_9allocatorINS_9sub_matchIPKcEEEENS_16reverse_iteratorIPS6_EEEEEC2B8ue170006ESB_, symObjAddr: 0x2B23C, symBinAddr: 0x10002B974, symSize: 0x30 }
  - { offsetInCU: 0x47C83, offset: 0x47C83, size: 0x8, addend: 0x0, symName: __ZNSt3__129_AllocatorDestroyRangeReverseINS_9allocatorINS_9sub_matchIPKcEEEENS_16reverse_iteratorIPS5_EEEC2B8ue170006ERS6_RS9_SC_, symObjAddr: 0x2B26C, symBinAddr: 0x10002B9A4, symSize: 0x38 }
  - { offsetInCU: 0x47CDA, offset: 0x47CDA, size: 0x8, addend: 0x0, symName: __ZNSt3__19allocatorINS_9sub_matchIPKcEEE9constructB8ue170006IS4_JS4_EEEvPT_DpOT0_, symObjAddr: 0x2B2A4, symBinAddr: 0x10002B9DC, symSize: 0x30 }
  - { offsetInCU: 0x47D36, offset: 0x47D36, size: 0x8, addend: 0x0, symName: __ZNSt3__119__to_address_helperINS_16reverse_iteratorIPNS_9sub_matchIPKcEEEEvE6__callB8ue170006ERKS7_, symObjAddr: 0x2B2D4, symBinAddr: 0x10002BA0C, symSize: 0x4C }
  - { offsetInCU: 0x47D59, offset: 0x47D59, size: 0x8, addend: 0x0, symName: __ZNKSt3__116reverse_iteratorIPNS_9sub_matchIPKcEEEptB8ue170006Ev, symObjAddr: 0x2B320, symBinAddr: 0x10002BA58, symSize: 0x24 }
  - { offsetInCU: 0x47D7F, offset: 0x47D7F, size: 0x8, addend: 0x0, symName: __ZNSt3__128__exception_guard_exceptionsINS_29_AllocatorDestroyRangeReverseINS_9allocatorINS_9sub_matchIPKcEEEENS_16reverse_iteratorIPS6_EEEEED2B8ue170006Ev, symObjAddr: 0x2B344, symBinAddr: 0x10002BA7C, symSize: 0x48 }
  - { offsetInCU: 0x47DA9, offset: 0x47DA9, size: 0x8, addend: 0x0, symName: __ZNKSt3__129_AllocatorDestroyRangeReverseINS_9allocatorINS_9sub_matchIPKcEEEENS_16reverse_iteratorIPS5_EEEclB8ue170006Ev, symObjAddr: 0x2B38C, symBinAddr: 0x10002BAC4, symSize: 0xB4 }
  - { offsetInCU: 0x47DD0, offset: 0x47DD0, size: 0x8, addend: 0x0, symName: __ZNSt3__116reverse_iteratorINS0_IPNS_9sub_matchIPKcEEEEEC1B8ue170006ES6_, symObjAddr: 0x2B4B0, symBinAddr: 0x10002BBE8, symSize: 0x3C }
  - { offsetInCU: 0x47E08, offset: 0x47E08, size: 0x8, addend: 0x0, symName: __ZNSt3__116reverse_iteratorINS0_IPNS_9sub_matchIPKcEEEEEppB8ue170006Ev, symObjAddr: 0x2B570, symBinAddr: 0x10002BCA8, symSize: 0x30 }
  - { offsetInCU: 0x47E2E, offset: 0x47E2E, size: 0x8, addend: 0x0, symName: __ZNKSt3__116reverse_iteratorINS0_IPNS_9sub_matchIPKcEEEEE4baseB8ue170006Ev, symObjAddr: 0x2B5A0, symBinAddr: 0x10002BCD8, symSize: 0x24 }
  - { offsetInCU: 0x47E5A, offset: 0x47E5A, size: 0x8, addend: 0x0, symName: __ZNSt3__119__to_address_helperINS_16reverse_iteratorINS1_IPNS_9sub_matchIPKcEEEEEEvE6__callB8ue170006ERKS8_, symObjAddr: 0x2B5C4, symBinAddr: 0x10002BCFC, symSize: 0x4C }
  - { offsetInCU: 0x47E7D, offset: 0x47E7D, size: 0x8, addend: 0x0, symName: __ZNKSt3__116reverse_iteratorINS0_IPNS_9sub_matchIPKcEEEEEptB8ue170006Ev, symObjAddr: 0x2B610, symBinAddr: 0x10002BD48, symSize: 0x24 }
  - { offsetInCU: 0x47EA3, offset: 0x47EA3, size: 0x8, addend: 0x0, symName: __ZNKSt3__116reverse_iteratorINS0_IPNS_9sub_matchIPKcEEEEEdeB8ue170006Ev, symObjAddr: 0x2B634, symBinAddr: 0x10002BD6C, symSize: 0x34 }
  - { offsetInCU: 0x47ED7, offset: 0x47ED7, size: 0x8, addend: 0x0, symName: __ZNSt3__116reverse_iteratorIPNS_9sub_matchIPKcEEEmmB8ue170006Ev, symObjAddr: 0x2B668, symBinAddr: 0x10002BDA0, symSize: 0x20 }
  - { offsetInCU: 0x47EFD, offset: 0x47EFD, size: 0x8, addend: 0x0, symName: __ZNSt3__116reverse_iteratorINS0_IPNS_9sub_matchIPKcEEEEEC2B8ue170006ES6_, symObjAddr: 0x2B688, symBinAddr: 0x10002BDC0, symSize: 0x2C }
  - { offsetInCU: 0x47F35, offset: 0x47F35, size: 0x8, addend: 0x0, symName: __ZNSt3__116reverse_iteratorIPNS_9sub_matchIPKcEEEC2B8ue170006ES5_, symObjAddr: 0x2B6B4, symBinAddr: 0x10002BDEC, symSize: 0x28 }
  - { offsetInCU: 0x47F6D, offset: 0x47F6D, size: 0x8, addend: 0x0, symName: __ZNSt3__114__split_bufferINS_9sub_matchIPKcEERNS_9allocatorIS4_EEED2Ev, symObjAddr: 0x2B6DC, symBinAddr: 0x10002BE14, symSize: 0x80 }
  - { offsetInCU: 0x47F99, offset: 0x47F99, size: 0x8, addend: 0x0, symName: __ZNSt3__114__split_bufferINS_9sub_matchIPKcEERNS_9allocatorIS4_EEE5clearB8ue170006Ev, symObjAddr: 0x2B75C, symBinAddr: 0x10002BE94, symSize: 0x28 }
  - { offsetInCU: 0x47FBF, offset: 0x47FBF, size: 0x8, addend: 0x0, symName: __ZNKSt3__114__split_bufferINS_9sub_matchIPKcEERNS_9allocatorIS4_EEE8capacityB8ue170006Ev, symObjAddr: 0x2B784, symBinAddr: 0x10002BEBC, symSize: 0x40 }
  - { offsetInCU: 0x47FE5, offset: 0x47FE5, size: 0x8, addend: 0x0, symName: __ZNSt3__114__split_bufferINS_9sub_matchIPKcEERNS_9allocatorIS4_EEE17__destruct_at_endB8ue170006EPS4_, symObjAddr: 0x2B7C4, symBinAddr: 0x10002BEFC, symSize: 0x2C }
  - { offsetInCU: 0x48019, offset: 0x48019, size: 0x8, addend: 0x0, symName: __ZNSt3__114__split_bufferINS_9sub_matchIPKcEERNS_9allocatorIS4_EEE17__destruct_at_endB8ue170006EPS4_NS_17integral_constantIbLb0EEE, symObjAddr: 0x2B7F0, symBinAddr: 0x10002BF28, symSize: 0x94 }
  - { offsetInCU: 0x48059, offset: 0x48059, size: 0x8, addend: 0x0, symName: __ZNKSt3__114__split_bufferINS_9sub_matchIPKcEERNS_9allocatorIS4_EEE9__end_capB8ue170006Ev, symObjAddr: 0x2B884, symBinAddr: 0x10002BFBC, symSize: 0x28 }
  - { offsetInCU: 0x4807F, offset: 0x4807F, size: 0x8, addend: 0x0, symName: __ZNKSt3__117__compressed_pairIPNS_9sub_matchIPKcEERNS_9allocatorIS4_EEE5firstB8ue170006Ev, symObjAddr: 0x2B8AC, symBinAddr: 0x10002BFE4, symSize: 0x24 }
  - { offsetInCU: 0x480A5, offset: 0x480A5, size: 0x8, addend: 0x0, symName: __ZNSt3__16vectorINS_4pairImPKcEENS_9allocatorIS4_EEE8__appendEm, symObjAddr: 0x2B8D0, symBinAddr: 0x10002C008, symSize: 0x110 }
  - { offsetInCU: 0x48100, offset: 0x48100, size: 0x8, addend: 0x0, symName: __ZNSt3__16vectorINS_4pairImPKcEENS_9allocatorIS4_EEE17__destruct_at_endB8ue170006EPS4_, symObjAddr: 0x2B9E0, symBinAddr: 0x10002C118, symSize: 0x4C }
  - { offsetInCU: 0x48144, offset: 0x48144, size: 0x8, addend: 0x0, symName: __ZNSt3__16vectorINS_4pairImPKcEENS_9allocatorIS4_EEE9__end_capB8ue170006Ev, symObjAddr: 0x2BA2C, symBinAddr: 0x10002C164, symSize: 0x28 }
  - { offsetInCU: 0x4816A, offset: 0x4816A, size: 0x8, addend: 0x0, symName: __ZNSt3__16vectorINS_4pairImPKcEENS_9allocatorIS4_EEE18__construct_at_endEm, symObjAddr: 0x2BA54, symBinAddr: 0x10002C18C, symSize: 0xD0 }
  - { offsetInCU: 0x481DD, offset: 0x481DD, size: 0x8, addend: 0x0, symName: __ZNKSt3__16vectorINS_4pairImPKcEENS_9allocatorIS4_EEE11__recommendB8ue170006Em, symObjAddr: 0x2BB24, symBinAddr: 0x10002C25C, symSize: 0xB4 }
  - { offsetInCU: 0x48232, offset: 0x48232, size: 0x8, addend: 0x0, symName: __ZNSt3__114__split_bufferINS_4pairImPKcEERNS_9allocatorIS4_EEEC1EmmS7_, symObjAddr: 0x2BBD8, symBinAddr: 0x10002C310, symSize: 0x44 }
  - { offsetInCU: 0x48288, offset: 0x48288, size: 0x8, addend: 0x0, symName: __ZNSt3__114__split_bufferINS_4pairImPKcEERNS_9allocatorIS4_EEE18__construct_at_endEm, symObjAddr: 0x2BC1C, symBinAddr: 0x10002C354, symSize: 0xBC }
  - { offsetInCU: 0x482CD, offset: 0x482CD, size: 0x8, addend: 0x0, symName: __ZNSt3__114__split_bufferINS_4pairImPKcEERNS_9allocatorIS4_EEED1Ev, symObjAddr: 0x2BDE8, symBinAddr: 0x10002C520, symSize: 0x2C }
  - { offsetInCU: 0x482F9, offset: 0x482F9, size: 0x8, addend: 0x0, symName: __ZNSt3__117__compressed_pairIPNS_4pairImPKcEENS_9allocatorIS4_EEE5firstB8ue170006Ev, symObjAddr: 0x2BE14, symBinAddr: 0x10002C54C, symSize: 0x24 }
  - { offsetInCU: 0x4831F, offset: 0x4831F, size: 0x8, addend: 0x0, symName: __ZNSt3__122__compressed_pair_elemIPNS_4pairImPKcEELi0ELb0EE5__getB8ue170006Ev, symObjAddr: 0x2BE38, symBinAddr: 0x10002C570, symSize: 0x14 }
  - { offsetInCU: 0x48361, offset: 0x48361, size: 0x8, addend: 0x0, symName: __ZNSt3__16vectorINS_4pairImPKcEENS_9allocatorIS4_EEE21_ConstructTransactionC1B8ue170006ERS7_m, symObjAddr: 0x2BE4C, symBinAddr: 0x10002C584, symSize: 0x3C }
  - { offsetInCU: 0x483A9, offset: 0x483A9, size: 0x8, addend: 0x0, symName: __ZNSt3__116allocator_traitsINS_9allocatorINS_4pairImPKcEEEEE9constructB8ue170006IS5_JEvEEvRS6_PT_DpOT0_, symObjAddr: 0x2BE88, symBinAddr: 0x10002C5C0, symSize: 0x2C }
  - { offsetInCU: 0x483EB, offset: 0x483EB, size: 0x8, addend: 0x0, symName: __ZNSt3__16vectorINS_4pairImPKcEENS_9allocatorIS4_EEE21_ConstructTransactionD1B8ue170006Ev, symObjAddr: 0x2BEB4, symBinAddr: 0x10002C5EC, symSize: 0x2C }
  - { offsetInCU: 0x48415, offset: 0x48415, size: 0x8, addend: 0x0, symName: __ZNSt3__16vectorINS_4pairImPKcEENS_9allocatorIS4_EEE21_ConstructTransactionC2B8ue170006ERS7_m, symObjAddr: 0x2BEE0, symBinAddr: 0x10002C618, symSize: 0x44 }
  - { offsetInCU: 0x4845D, offset: 0x4845D, size: 0x8, addend: 0x0, symName: __ZNSt3__19allocatorINS_4pairImPKcEEE9constructB8ue170006IS4_JEEEvPT_DpOT0_, symObjAddr: 0x2BF24, symBinAddr: 0x10002C65C, symSize: 0x28 }
  - { offsetInCU: 0x4849F, offset: 0x4849F, size: 0x8, addend: 0x0, symName: __ZNSt3__14pairImPKcEC1B8ue170006Ev, symObjAddr: 0x2BF4C, symBinAddr: 0x10002C684, symSize: 0x2C }
  - { offsetInCU: 0x484C9, offset: 0x484C9, size: 0x8, addend: 0x0, symName: __ZNSt3__14pairImPKcEC2B8ue170006Ev, symObjAddr: 0x2BF78, symBinAddr: 0x10002C6B0, symSize: 0x1C }
  - { offsetInCU: 0x484F3, offset: 0x484F3, size: 0x8, addend: 0x0, symName: __ZNSt3__16vectorINS_4pairImPKcEENS_9allocatorIS4_EEE21_ConstructTransactionD2B8ue170006Ev, symObjAddr: 0x2BF94, symBinAddr: 0x10002C6CC, symSize: 0x20 }
  - { offsetInCU: 0x4851D, offset: 0x4851D, size: 0x8, addend: 0x0, symName: __ZNKSt3__16vectorINS_4pairImPKcEENS_9allocatorIS4_EEE8max_sizeEv, symObjAddr: 0x2BFB4, symBinAddr: 0x10002C6EC, symSize: 0x74 }
  - { offsetInCU: 0x48545, offset: 0x48545, size: 0x8, addend: 0x0, symName: __ZNKSt3__16vectorINS_4pairImPKcEENS_9allocatorIS4_EEE20__throw_length_errorB8ue170006Ev, symObjAddr: 0x2C028, symBinAddr: 0x10002C760, symSize: 0x1C }
  - { offsetInCU: 0x48576, offset: 0x48576, size: 0x8, addend: 0x0, symName: __ZNSt3__116allocator_traitsINS_9allocatorINS_4pairImPKcEEEEE8max_sizeB8ue170006IS6_vEEmRKS6_, symObjAddr: 0x2C044, symBinAddr: 0x10002C77C, symSize: 0x24 }
  - { offsetInCU: 0x485A4, offset: 0x485A4, size: 0x8, addend: 0x0, symName: __ZNKSt3__16vectorINS_4pairImPKcEENS_9allocatorIS4_EEE7__allocB8ue170006Ev, symObjAddr: 0x2C068, symBinAddr: 0x10002C7A0, symSize: 0x28 }
  - { offsetInCU: 0x485CA, offset: 0x485CA, size: 0x8, addend: 0x0, symName: __ZNKSt3__19allocatorINS_4pairImPKcEEE8max_sizeB8ue170006Ev, symObjAddr: 0x2C090, symBinAddr: 0x10002C7C8, symSize: 0x14 }
  - { offsetInCU: 0x485F0, offset: 0x485F0, size: 0x8, addend: 0x0, symName: __ZNKSt3__117__compressed_pairIPNS_4pairImPKcEENS_9allocatorIS4_EEE6secondB8ue170006Ev, symObjAddr: 0x2C0A4, symBinAddr: 0x10002C7DC, symSize: 0x24 }
  - { offsetInCU: 0x48616, offset: 0x48616, size: 0x8, addend: 0x0, symName: __ZNKSt3__122__compressed_pair_elemINS_9allocatorINS_4pairImPKcEEEELi1ELb1EE5__getB8ue170006Ev, symObjAddr: 0x2C0C8, symBinAddr: 0x10002C800, symSize: 0x14 }
  - { offsetInCU: 0x4863C, offset: 0x4863C, size: 0x8, addend: 0x0, symName: __ZNSt3__114__split_bufferINS_4pairImPKcEERNS_9allocatorIS4_EEEC2EmmS7_, symObjAddr: 0x2C0DC, symBinAddr: 0x10002C814, symSize: 0xD4 }
  - { offsetInCU: 0x486B0, offset: 0x486B0, size: 0x8, addend: 0x0, symName: __ZNSt3__117__compressed_pairIPNS_4pairImPKcEERNS_9allocatorIS4_EEEC1B8ue170006IDnS8_EEOT_OT0_, symObjAddr: 0x2C1B0, symBinAddr: 0x10002C8E8, symSize: 0x3C }
  - { offsetInCU: 0x48708, offset: 0x48708, size: 0x8, addend: 0x0, symName: __ZNSt3__114__split_bufferINS_4pairImPKcEERNS_9allocatorIS4_EEE7__allocB8ue170006Ev, symObjAddr: 0x2C22C, symBinAddr: 0x10002C964, symSize: 0x28 }
  - { offsetInCU: 0x4872E, offset: 0x4872E, size: 0x8, addend: 0x0, symName: __ZNSt3__114__split_bufferINS_4pairImPKcEERNS_9allocatorIS4_EEE9__end_capB8ue170006Ev, symObjAddr: 0x2C254, symBinAddr: 0x10002C98C, symSize: 0x28 }
  - { offsetInCU: 0x48754, offset: 0x48754, size: 0x8, addend: 0x0, symName: __ZNSt3__117__compressed_pairIPNS_4pairImPKcEERNS_9allocatorIS4_EEEC2B8ue170006IDnS8_EEOT_OT0_, symObjAddr: 0x2C27C, symBinAddr: 0x10002C9B4, symSize: 0x48 }
  - { offsetInCU: 0x487AC, offset: 0x487AC, size: 0x8, addend: 0x0, symName: __ZNSt3__122__compressed_pair_elemIRNS_9allocatorINS_4pairImPKcEEEELi1ELb0EEC2B8ue170006IS7_vEEOT_, symObjAddr: 0x2C2C4, symBinAddr: 0x10002C9FC, symSize: 0x20 }
  - { offsetInCU: 0x487EE, offset: 0x487EE, size: 0x8, addend: 0x0, symName: __ZNSt3__19allocatorINS_4pairImPKcEEE8allocateB8ue170006Em, symObjAddr: 0x2C2E4, symBinAddr: 0x10002CA1C, symSize: 0x84 }
  - { offsetInCU: 0x48822, offset: 0x48822, size: 0x8, addend: 0x0, symName: __ZNSt3__117__compressed_pairIPNS_4pairImPKcEERNS_9allocatorIS4_EEE6secondB8ue170006Ev, symObjAddr: 0x2C368, symBinAddr: 0x10002CAA0, symSize: 0x28 }
  - { offsetInCU: 0x48848, offset: 0x48848, size: 0x8, addend: 0x0, symName: __ZNSt3__122__compressed_pair_elemIRNS_9allocatorINS_4pairImPKcEEEELi1ELb0EE5__getB8ue170006Ev, symObjAddr: 0x2C390, symBinAddr: 0x10002CAC8, symSize: 0x18 }
  - { offsetInCU: 0x4886E, offset: 0x4886E, size: 0x8, addend: 0x0, symName: __ZNSt3__117__compressed_pairIPNS_4pairImPKcEERNS_9allocatorIS4_EEE5firstB8ue170006Ev, symObjAddr: 0x2C3A8, symBinAddr: 0x10002CAE0, symSize: 0x24 }
  - { offsetInCU: 0x488A0, offset: 0x488A0, size: 0x8, addend: 0x0, symName: __ZNSt3__114__split_bufferINS_4pairImPKcEERNS_9allocatorIS4_EEE21_ConstructTransactionC1B8ue170006EPPS4_m, symObjAddr: 0x2C3CC, symBinAddr: 0x10002CB04, symSize: 0x3C }
  - { offsetInCU: 0x488E6, offset: 0x488E6, size: 0x8, addend: 0x0, symName: __ZNSt3__114__split_bufferINS_4pairImPKcEERNS_9allocatorIS4_EEE21_ConstructTransactionD1B8ue170006Ev, symObjAddr: 0x2C408, symBinAddr: 0x10002CB40, symSize: 0x2C }
  - { offsetInCU: 0x48910, offset: 0x48910, size: 0x8, addend: 0x0, symName: __ZNSt3__114__split_bufferINS_4pairImPKcEERNS_9allocatorIS4_EEE21_ConstructTransactionC2B8ue170006EPPS4_m, symObjAddr: 0x2C434, symBinAddr: 0x10002CB6C, symSize: 0x44 }
  - { offsetInCU: 0x48956, offset: 0x48956, size: 0x8, addend: 0x0, symName: __ZNSt3__114__split_bufferINS_4pairImPKcEERNS_9allocatorIS4_EEE21_ConstructTransactionD2B8ue170006Ev, symObjAddr: 0x2C478, symBinAddr: 0x10002CBB0, symSize: 0x20 }
  - { offsetInCU: 0x48980, offset: 0x48980, size: 0x8, addend: 0x0, symName: __ZNSt3__116reverse_iteratorIPNS_4pairImPKcEEEC1B8ue170006ES5_, symObjAddr: 0x2C5CC, symBinAddr: 0x10002CD04, symSize: 0x34 }
  - { offsetInCU: 0x489B8, offset: 0x489B8, size: 0x8, addend: 0x0, symName: __ZNKSt3__116reverse_iteratorIPNS_4pairImPKcEEE4baseB8ue170006Ev, symObjAddr: 0x2C600, symBinAddr: 0x10002CD38, symSize: 0x18 }
  - { offsetInCU: 0x489DE, offset: 0x489DE, size: 0x8, addend: 0x0, symName: __ZNKSt3__16vectorINS_4pairImPKcEENS_9allocatorIS4_EEE14__annotate_newB8ue170006Em, symObjAddr: 0x2C654, symBinAddr: 0x10002CD8C, symSize: 0xAC }
  - { offsetInCU: 0x48A13, offset: 0x48A13, size: 0x8, addend: 0x0, symName: __ZNSt3__129_AllocatorDestroyRangeReverseINS_9allocatorINS_4pairImPKcEEEENS_16reverse_iteratorIPS5_EEEC1B8ue170006ERS6_RS9_SC_, symObjAddr: 0x2C74C, symBinAddr: 0x10002CE84, symSize: 0x44 }
  - { offsetInCU: 0x48A6A, offset: 0x48A6A, size: 0x8, addend: 0x0, symName: __ZNSt3__116allocator_traitsINS_9allocatorINS_4pairImPKcEEEEE9constructB8ue170006IS5_JS5_EvEEvRS6_PT_DpOT0_, symObjAddr: 0x2C7D8, symBinAddr: 0x10002CF10, symSize: 0x34 }
  - { offsetInCU: 0x48AC1, offset: 0x48AC1, size: 0x8, addend: 0x0, symName: __ZNKSt3__116reverse_iteratorIPNS_4pairImPKcEEEdeB8ue170006Ev, symObjAddr: 0x2C830, symBinAddr: 0x10002CF68, symSize: 0x28 }
  - { offsetInCU: 0x48AF5, offset: 0x48AF5, size: 0x8, addend: 0x0, symName: __ZNSt3__116reverse_iteratorIPNS_4pairImPKcEEEppB8ue170006Ev, symObjAddr: 0x2C858, symBinAddr: 0x10002CF90, symSize: 0x20 }
  - { offsetInCU: 0x48B1B, offset: 0x48B1B, size: 0x8, addend: 0x0, symName: __ZNSt3__128__exception_guard_exceptionsINS_29_AllocatorDestroyRangeReverseINS_9allocatorINS_4pairImPKcEEEENS_16reverse_iteratorIPS6_EEEEE10__completeB8ue170006Ev, symObjAddr: 0x2C878, symBinAddr: 0x10002CFB0, symSize: 0x1C }
  - { offsetInCU: 0x48B41, offset: 0x48B41, size: 0x8, addend: 0x0, symName: __ZNSt3__128__exception_guard_exceptionsINS_29_AllocatorDestroyRangeReverseINS_9allocatorINS_4pairImPKcEEEENS_16reverse_iteratorIPS6_EEEEED1B8ue170006Ev, symObjAddr: 0x2C894, symBinAddr: 0x10002CFCC, symSize: 0x2C }
  - { offsetInCU: 0x48B6B, offset: 0x48B6B, size: 0x8, addend: 0x0, symName: __ZNSt3__128__exception_guard_exceptionsINS_29_AllocatorDestroyRangeReverseINS_9allocatorINS_4pairImPKcEEEENS_16reverse_iteratorIPS6_EEEEEC1B8ue170006ESB_, symObjAddr: 0x2C8C0, symBinAddr: 0x10002CFF8, symSize: 0x34 }
  - { offsetInCU: 0x48BA4, offset: 0x48BA4, size: 0x8, addend: 0x0, symName: __ZNSt3__128__exception_guard_exceptionsINS_29_AllocatorDestroyRangeReverseINS_9allocatorINS_4pairImPKcEEEENS_16reverse_iteratorIPS6_EEEEEC2B8ue170006ESB_, symObjAddr: 0x2C8F4, symBinAddr: 0x10002D02C, symSize: 0x30 }
  - { offsetInCU: 0x48BDD, offset: 0x48BDD, size: 0x8, addend: 0x0, symName: __ZNSt3__129_AllocatorDestroyRangeReverseINS_9allocatorINS_4pairImPKcEEEENS_16reverse_iteratorIPS5_EEEC2B8ue170006ERS6_RS9_SC_, symObjAddr: 0x2C924, symBinAddr: 0x10002D05C, symSize: 0x38 }
  - { offsetInCU: 0x48C34, offset: 0x48C34, size: 0x8, addend: 0x0, symName: __ZNSt3__19allocatorINS_4pairImPKcEEE9constructB8ue170006IS4_JS4_EEEvPT_DpOT0_, symObjAddr: 0x2C95C, symBinAddr: 0x10002D094, symSize: 0x28 }
  - { offsetInCU: 0x48C90, offset: 0x48C90, size: 0x8, addend: 0x0, symName: __ZNSt3__119__to_address_helperINS_16reverse_iteratorIPNS_4pairImPKcEEEEvE6__callB8ue170006ERKS7_, symObjAddr: 0x2C984, symBinAddr: 0x10002D0BC, symSize: 0x4C }
  - { offsetInCU: 0x48CB3, offset: 0x48CB3, size: 0x8, addend: 0x0, symName: __ZNKSt3__116reverse_iteratorIPNS_4pairImPKcEEEptB8ue170006Ev, symObjAddr: 0x2C9D0, symBinAddr: 0x10002D108, symSize: 0x24 }
  - { offsetInCU: 0x48CD9, offset: 0x48CD9, size: 0x8, addend: 0x0, symName: __ZNSt3__128__exception_guard_exceptionsINS_29_AllocatorDestroyRangeReverseINS_9allocatorINS_4pairImPKcEEEENS_16reverse_iteratorIPS6_EEEEED2B8ue170006Ev, symObjAddr: 0x2C9F4, symBinAddr: 0x10002D12C, symSize: 0x48 }
  - { offsetInCU: 0x48D03, offset: 0x48D03, size: 0x8, addend: 0x0, symName: __ZNKSt3__129_AllocatorDestroyRangeReverseINS_9allocatorINS_4pairImPKcEEEENS_16reverse_iteratorIPS5_EEEclB8ue170006Ev, symObjAddr: 0x2CA3C, symBinAddr: 0x10002D174, symSize: 0xB4 }
  - { offsetInCU: 0x48D2A, offset: 0x48D2A, size: 0x8, addend: 0x0, symName: __ZNSt3__116reverse_iteratorINS0_IPNS_4pairImPKcEEEEEC1B8ue170006ES6_, symObjAddr: 0x2CB60, symBinAddr: 0x10002D298, symSize: 0x3C }
  - { offsetInCU: 0x48D62, offset: 0x48D62, size: 0x8, addend: 0x0, symName: __ZNSt3__116reverse_iteratorINS0_IPNS_4pairImPKcEEEEEppB8ue170006Ev, symObjAddr: 0x2CC20, symBinAddr: 0x10002D358, symSize: 0x30 }
  - { offsetInCU: 0x48D88, offset: 0x48D88, size: 0x8, addend: 0x0, symName: __ZNKSt3__116reverse_iteratorINS0_IPNS_4pairImPKcEEEEE4baseB8ue170006Ev, symObjAddr: 0x2CC50, symBinAddr: 0x10002D388, symSize: 0x24 }
  - { offsetInCU: 0x48DB4, offset: 0x48DB4, size: 0x8, addend: 0x0, symName: __ZNSt3__119__to_address_helperINS_16reverse_iteratorINS1_IPNS_4pairImPKcEEEEEEvE6__callB8ue170006ERKS8_, symObjAddr: 0x2CC74, symBinAddr: 0x10002D3AC, symSize: 0x4C }
  - { offsetInCU: 0x48DD7, offset: 0x48DD7, size: 0x8, addend: 0x0, symName: __ZNKSt3__116reverse_iteratorINS0_IPNS_4pairImPKcEEEEEptB8ue170006Ev, symObjAddr: 0x2CCC0, symBinAddr: 0x10002D3F8, symSize: 0x24 }
  - { offsetInCU: 0x48DFD, offset: 0x48DFD, size: 0x8, addend: 0x0, symName: __ZNKSt3__116reverse_iteratorINS0_IPNS_4pairImPKcEEEEEdeB8ue170006Ev, symObjAddr: 0x2CCE4, symBinAddr: 0x10002D41C, symSize: 0x34 }
  - { offsetInCU: 0x48E31, offset: 0x48E31, size: 0x8, addend: 0x0, symName: __ZNSt3__116reverse_iteratorIPNS_4pairImPKcEEEmmB8ue170006Ev, symObjAddr: 0x2CD18, symBinAddr: 0x10002D450, symSize: 0x20 }
  - { offsetInCU: 0x48E57, offset: 0x48E57, size: 0x8, addend: 0x0, symName: __ZNSt3__116reverse_iteratorINS0_IPNS_4pairImPKcEEEEEC2B8ue170006ES6_, symObjAddr: 0x2CD38, symBinAddr: 0x10002D470, symSize: 0x2C }
  - { offsetInCU: 0x48E8F, offset: 0x48E8F, size: 0x8, addend: 0x0, symName: __ZNSt3__116reverse_iteratorIPNS_4pairImPKcEEEC2B8ue170006ES5_, symObjAddr: 0x2CD64, symBinAddr: 0x10002D49C, symSize: 0x28 }
  - { offsetInCU: 0x48EC7, offset: 0x48EC7, size: 0x8, addend: 0x0, symName: __ZNSt3__114__split_bufferINS_4pairImPKcEERNS_9allocatorIS4_EEED2Ev, symObjAddr: 0x2CD8C, symBinAddr: 0x10002D4C4, symSize: 0x80 }
  - { offsetInCU: 0x48EF3, offset: 0x48EF3, size: 0x8, addend: 0x0, symName: __ZNSt3__114__split_bufferINS_4pairImPKcEERNS_9allocatorIS4_EEE5clearB8ue170006Ev, symObjAddr: 0x2CE0C, symBinAddr: 0x10002D544, symSize: 0x28 }
  - { offsetInCU: 0x48F19, offset: 0x48F19, size: 0x8, addend: 0x0, symName: __ZNKSt3__114__split_bufferINS_4pairImPKcEERNS_9allocatorIS4_EEE8capacityB8ue170006Ev, symObjAddr: 0x2CE34, symBinAddr: 0x10002D56C, symSize: 0x40 }
  - { offsetInCU: 0x48F3F, offset: 0x48F3F, size: 0x8, addend: 0x0, symName: __ZNSt3__114__split_bufferINS_4pairImPKcEERNS_9allocatorIS4_EEE17__destruct_at_endB8ue170006EPS4_, symObjAddr: 0x2CE74, symBinAddr: 0x10002D5AC, symSize: 0x2C }
  - { offsetInCU: 0x48F73, offset: 0x48F73, size: 0x8, addend: 0x0, symName: __ZNSt3__114__split_bufferINS_4pairImPKcEERNS_9allocatorIS4_EEE17__destruct_at_endB8ue170006EPS4_NS_17integral_constantIbLb0EEE, symObjAddr: 0x2CEA0, symBinAddr: 0x10002D5D8, symSize: 0x94 }
  - { offsetInCU: 0x48FB3, offset: 0x48FB3, size: 0x8, addend: 0x0, symName: __ZNKSt3__114__split_bufferINS_4pairImPKcEERNS_9allocatorIS4_EEE9__end_capB8ue170006Ev, symObjAddr: 0x2CF34, symBinAddr: 0x10002D66C, symSize: 0x28 }
  - { offsetInCU: 0x48FD9, offset: 0x48FD9, size: 0x8, addend: 0x0, symName: __ZNKSt3__117__compressed_pairIPNS_4pairImPKcEERNS_9allocatorIS4_EEE5firstB8ue170006Ev, symObjAddr: 0x2CF5C, symBinAddr: 0x10002D694, symSize: 0x24 }
  - { offsetInCU: 0x48FFF, offset: 0x48FFF, size: 0x8, addend: 0x0, symName: __ZNKSt3__16vectorINS_4pairImPKcEENS_9allocatorIS4_EEE17__annotate_shrinkB8ue170006Em, symObjAddr: 0x2CF80, symBinAddr: 0x10002D6B8, symSize: 0xB4 }
  - { offsetInCU: 0x49034, offset: 0x49034, size: 0x8, addend: 0x0, symName: __ZNSt3__16vectorINS_7__stateIcEENS_9allocatorIS2_EEE17__destruct_at_endB8ue170006EPS2_, symObjAddr: 0x2D034, symBinAddr: 0x10002D76C, symSize: 0x4C }
  - { offsetInCU: 0x49078, offset: 0x49078, size: 0x8, addend: 0x0, symName: __ZNSt3__16vectorINS_7__stateIcEENS_9allocatorIS2_EEE22__base_destruct_at_endB8ue170006EPS2_, symObjAddr: 0x2D080, symBinAddr: 0x10002D7B8, symSize: 0xA0 }
  - { offsetInCU: 0x490BC, offset: 0x490BC, size: 0x8, addend: 0x0, symName: __ZNKSt3__16vectorINS_7__stateIcEENS_9allocatorIS2_EEE17__annotate_shrinkB8ue170006Em, symObjAddr: 0x2D120, symBinAddr: 0x10002D858, symSize: 0xD0 }
  - { offsetInCU: 0x490F1, offset: 0x490F1, size: 0x8, addend: 0x0, symName: __ZNSt3__17__stateIcEC2ERKS1_, symObjAddr: 0x2D1F0, symBinAddr: 0x10002D928, symSize: 0xAC }
  - { offsetInCU: 0x49127, offset: 0x49127, size: 0x8, addend: 0x0, symName: __ZNSt3__16vectorINS_9sub_matchIPKcEENS_9allocatorIS4_EEEC1ERKS7_, symObjAddr: 0x2D29C, symBinAddr: 0x10002D9D4, symSize: 0x34 }
  - { offsetInCU: 0x49162, offset: 0x49162, size: 0x8, addend: 0x0, symName: __ZNSt3__16vectorINS_4pairImPKcEENS_9allocatorIS4_EEEC1ERKS7_, symObjAddr: 0x2D2D0, symBinAddr: 0x10002DA08, symSize: 0x34 }
  - { offsetInCU: 0x4919D, offset: 0x4919D, size: 0x8, addend: 0x0, symName: __ZNSt3__16vectorINS_9sub_matchIPKcEENS_9allocatorIS4_EEEC2ERKS7_, symObjAddr: 0x2D304, symBinAddr: 0x10002DA3C, symSize: 0x94 }
  - { offsetInCU: 0x491D8, offset: 0x491D8, size: 0x8, addend: 0x0, symName: __ZNSt3__116allocator_traitsINS_9allocatorINS_9sub_matchIPKcEEEEE37select_on_container_copy_constructionB8ue170006IS6_vvEES6_RKS6_, symObjAddr: 0x2D398, symBinAddr: 0x10002DAD0, symSize: 0x10 }
  - { offsetInCU: 0x4920D, offset: 0x4920D, size: 0x8, addend: 0x0, symName: __ZNSt3__117__compressed_pairIPNS_9sub_matchIPKcEENS_9allocatorIS4_EEEC1B8ue170006IDnS7_EEOT_OT0_, symObjAddr: 0x2D3A8, symBinAddr: 0x10002DAE0, symSize: 0x3C }
  - { offsetInCU: 0x49265, offset: 0x49265, size: 0x8, addend: 0x0, symName: __ZNSt3__16vectorINS_9sub_matchIPKcEENS_9allocatorIS4_EEE16__init_with_sizeB8ue170006IPS4_S9_EEvT_T0_m, symObjAddr: 0x2D3E4, symBinAddr: 0x10002DB1C, symSize: 0xC0 }
  - { offsetInCU: 0x492D9, offset: 0x492D9, size: 0x8, addend: 0x0, symName: __ZNSt3__117__compressed_pairIPNS_9sub_matchIPKcEENS_9allocatorIS4_EEEC2B8ue170006IDnS7_EEOT_OT0_, symObjAddr: 0x2D4A4, symBinAddr: 0x10002DBDC, symSize: 0x44 }
  - { offsetInCU: 0x49331, offset: 0x49331, size: 0x8, addend: 0x0, symName: __ZNSt3__122__compressed_pair_elemINS_9allocatorINS_9sub_matchIPKcEEEELi1ELb1EEC2B8ue170006IS6_vEEOT_, symObjAddr: 0x2D4E8, symBinAddr: 0x10002DC20, symSize: 0x18 }
  - { offsetInCU: 0x49373, offset: 0x49373, size: 0x8, addend: 0x0, symName: __ZNSt3__16vectorINS_9sub_matchIPKcEENS_9allocatorIS4_EEE18__construct_at_endIPS4_S9_EEvT_T0_m, symObjAddr: 0x2D540, symBinAddr: 0x10002DC78, symSize: 0x94 }
  - { offsetInCU: 0x493E9, offset: 0x493E9, size: 0x8, addend: 0x0, symName: __ZNSt3__128__exception_guard_exceptionsINS_6vectorINS_9sub_matchIPKcEENS_9allocatorIS5_EEE16__destroy_vectorEE10__completeB8ue170006Ev, symObjAddr: 0x2D5D4, symBinAddr: 0x10002DD0C, symSize: 0x1C }
  - { offsetInCU: 0x4940F, offset: 0x4940F, size: 0x8, addend: 0x0, symName: __ZNSt3__128__exception_guard_exceptionsINS_6vectorINS_9sub_matchIPKcEENS_9allocatorIS5_EEE16__destroy_vectorEED1B8ue170006Ev, symObjAddr: 0x2D5F0, symBinAddr: 0x10002DD28, symSize: 0x2C }
  - { offsetInCU: 0x49439, offset: 0x49439, size: 0x8, addend: 0x0, symName: __ZNSt3__128__exception_guard_exceptionsINS_6vectorINS_9sub_matchIPKcEENS_9allocatorIS5_EEE16__destroy_vectorEEC1B8ue170006ES9_, symObjAddr: 0x2D61C, symBinAddr: 0x10002DD54, symSize: 0x34 }
  - { offsetInCU: 0x49471, offset: 0x49471, size: 0x8, addend: 0x0, symName: __ZNSt3__128__exception_guard_exceptionsINS_6vectorINS_9sub_matchIPKcEENS_9allocatorIS5_EEE16__destroy_vectorEEC2B8ue170006ES9_, symObjAddr: 0x2D650, symBinAddr: 0x10002DD88, symSize: 0x24 }
  - { offsetInCU: 0x494C6, offset: 0x494C6, size: 0x8, addend: 0x0, symName: __ZNSt3__14pairIPNS_9sub_matchIPKcEES5_EC1B8ue170006ERKS5_S8_, symObjAddr: 0x2D8FC, symBinAddr: 0x10002E034, symSize: 0x3C }
  - { offsetInCU: 0x4950C, offset: 0x4950C, size: 0x8, addend: 0x0, symName: __ZNSt3__14pairIPNS_9sub_matchIPKcEES5_EC2B8ue170006ERKS5_S8_, symObjAddr: 0x2D938, symBinAddr: 0x10002E070, symSize: 0x34 }
  - { offsetInCU: 0x49552, offset: 0x49552, size: 0x8, addend: 0x0, symName: __ZNSt3__129_AllocatorDestroyRangeReverseINS_9allocatorINS_9sub_matchIPKcEEEEPS5_EC1B8ue170006ERS6_RS7_SA_, symObjAddr: 0x2D9B8, symBinAddr: 0x10002E0F0, symSize: 0x44 }
  - { offsetInCU: 0x495A9, offset: 0x495A9, size: 0x8, addend: 0x0, symName: __ZNSt3__116allocator_traitsINS_9allocatorINS_9sub_matchIPKcEEEEE9constructB8ue170006IS5_JRS5_EvEEvRS6_PT_DpOT0_, symObjAddr: 0x2D9FC, symBinAddr: 0x10002E134, symSize: 0x34 }
  - { offsetInCU: 0x49600, offset: 0x49600, size: 0x8, addend: 0x0, symName: __ZNSt3__128__exception_guard_exceptionsINS_29_AllocatorDestroyRangeReverseINS_9allocatorINS_9sub_matchIPKcEEEEPS6_EEE10__completeB8ue170006Ev, symObjAddr: 0x2DA30, symBinAddr: 0x10002E168, symSize: 0x1C }
  - { offsetInCU: 0x49626, offset: 0x49626, size: 0x8, addend: 0x0, symName: __ZNSt3__128__exception_guard_exceptionsINS_29_AllocatorDestroyRangeReverseINS_9allocatorINS_9sub_matchIPKcEEEEPS6_EEED1B8ue170006Ev, symObjAddr: 0x2DA4C, symBinAddr: 0x10002E184, symSize: 0x2C }
  - { offsetInCU: 0x49650, offset: 0x49650, size: 0x8, addend: 0x0, symName: __ZNSt3__128__exception_guard_exceptionsINS_29_AllocatorDestroyRangeReverseINS_9allocatorINS_9sub_matchIPKcEEEEPS6_EEEC1B8ue170006ES9_, symObjAddr: 0x2DA78, symBinAddr: 0x10002E1B0, symSize: 0x34 }
  - { offsetInCU: 0x49689, offset: 0x49689, size: 0x8, addend: 0x0, symName: __ZNSt3__128__exception_guard_exceptionsINS_29_AllocatorDestroyRangeReverseINS_9allocatorINS_9sub_matchIPKcEEEEPS6_EEEC2B8ue170006ES9_, symObjAddr: 0x2DAAC, symBinAddr: 0x10002E1E4, symSize: 0x30 }
  - { offsetInCU: 0x496C2, offset: 0x496C2, size: 0x8, addend: 0x0, symName: __ZNSt3__129_AllocatorDestroyRangeReverseINS_9allocatorINS_9sub_matchIPKcEEEEPS5_EC2B8ue170006ERS6_RS7_SA_, symObjAddr: 0x2DADC, symBinAddr: 0x10002E214, symSize: 0x38 }
  - { offsetInCU: 0x49719, offset: 0x49719, size: 0x8, addend: 0x0, symName: __ZNSt3__19allocatorINS_9sub_matchIPKcEEE9constructB8ue170006IS4_JRS4_EEEvPT_DpOT0_, symObjAddr: 0x2DB14, symBinAddr: 0x10002E24C, symSize: 0x30 }
  - { offsetInCU: 0x4976F, offset: 0x4976F, size: 0x8, addend: 0x0, symName: __ZNSt3__128__exception_guard_exceptionsINS_29_AllocatorDestroyRangeReverseINS_9allocatorINS_9sub_matchIPKcEEEEPS6_EEED2B8ue170006Ev, symObjAddr: 0x2DB44, symBinAddr: 0x10002E27C, symSize: 0x48 }
  - { offsetInCU: 0x49799, offset: 0x49799, size: 0x8, addend: 0x0, symName: __ZNKSt3__129_AllocatorDestroyRangeReverseINS_9allocatorINS_9sub_matchIPKcEEEEPS5_EclB8ue170006Ev, symObjAddr: 0x2DB8C, symBinAddr: 0x10002E2C4, symSize: 0x68 }
  - { offsetInCU: 0x497BF, offset: 0x497BF, size: 0x8, addend: 0x0, symName: __ZNSt3__118__unwrap_iter_implIPNS_9sub_matchIPKcEELb1EE8__unwrapB8ue170006ES5_, symObjAddr: 0x2DC64, symBinAddr: 0x10002E39C, symSize: 0x24 }
  - { offsetInCU: 0x497E2, offset: 0x497E2, size: 0x8, addend: 0x0, symName: __ZNSt3__118__unwrap_iter_implIPNS_9sub_matchIPKcEELb1EE8__rewrapB8ue170006ES5_S5_, symObjAddr: 0x2DC88, symBinAddr: 0x10002E3C0, symSize: 0x58 }
  - { offsetInCU: 0x49813, offset: 0x49813, size: 0x8, addend: 0x0, symName: __ZNSt3__128__exception_guard_exceptionsINS_6vectorINS_9sub_matchIPKcEENS_9allocatorIS5_EEE16__destroy_vectorEED2B8ue170006Ev, symObjAddr: 0x2DCE0, symBinAddr: 0x10002E418, symSize: 0x48 }
  - { offsetInCU: 0x4983D, offset: 0x4983D, size: 0x8, addend: 0x0, symName: __ZNSt3__16vectorINS_4pairImPKcEENS_9allocatorIS4_EEEC2ERKS7_, symObjAddr: 0x2DD28, symBinAddr: 0x10002E460, symSize: 0x94 }
  - { offsetInCU: 0x49878, offset: 0x49878, size: 0x8, addend: 0x0, symName: __ZNSt3__116allocator_traitsINS_9allocatorINS_4pairImPKcEEEEE37select_on_container_copy_constructionB8ue170006IS6_vvEES6_RKS6_, symObjAddr: 0x2DDBC, symBinAddr: 0x10002E4F4, symSize: 0x10 }
  - { offsetInCU: 0x498AD, offset: 0x498AD, size: 0x8, addend: 0x0, symName: __ZNSt3__117__compressed_pairIPNS_4pairImPKcEENS_9allocatorIS4_EEEC1B8ue170006IDnS7_EEOT_OT0_, symObjAddr: 0x2DDCC, symBinAddr: 0x10002E504, symSize: 0x3C }
  - { offsetInCU: 0x49905, offset: 0x49905, size: 0x8, addend: 0x0, symName: __ZNSt3__16vectorINS_4pairImPKcEENS_9allocatorIS4_EEE16__init_with_sizeB8ue170006IPS4_S9_EEvT_T0_m, symObjAddr: 0x2DE08, symBinAddr: 0x10002E540, symSize: 0xC0 }
  - { offsetInCU: 0x49979, offset: 0x49979, size: 0x8, addend: 0x0, symName: __ZNSt3__117__compressed_pairIPNS_4pairImPKcEENS_9allocatorIS4_EEEC2B8ue170006IDnS7_EEOT_OT0_, symObjAddr: 0x2DEC8, symBinAddr: 0x10002E600, symSize: 0x44 }
  - { offsetInCU: 0x499D1, offset: 0x499D1, size: 0x8, addend: 0x0, symName: __ZNSt3__122__compressed_pair_elemINS_9allocatorINS_4pairImPKcEEEELi1ELb1EEC2B8ue170006IS6_vEEOT_, symObjAddr: 0x2DF0C, symBinAddr: 0x10002E644, symSize: 0x18 }
  - { offsetInCU: 0x49A13, offset: 0x49A13, size: 0x8, addend: 0x0, symName: __ZNSt3__16vectorINS_4pairImPKcEENS_9allocatorIS4_EEE11__vallocateB8ue170006Em, symObjAddr: 0x2DF64, symBinAddr: 0x10002E69C, symSize: 0xAC }
  - { offsetInCU: 0x49A57, offset: 0x49A57, size: 0x8, addend: 0x0, symName: __ZNSt3__16vectorINS_4pairImPKcEENS_9allocatorIS4_EEE18__construct_at_endIPS4_S9_EEvT_T0_m, symObjAddr: 0x2E010, symBinAddr: 0x10002E748, symSize: 0x94 }
  - { offsetInCU: 0x49ACD, offset: 0x49ACD, size: 0x8, addend: 0x0, symName: __ZNSt3__128__exception_guard_exceptionsINS_6vectorINS_4pairImPKcEENS_9allocatorIS5_EEE16__destroy_vectorEE10__completeB8ue170006Ev, symObjAddr: 0x2E0A4, symBinAddr: 0x10002E7DC, symSize: 0x1C }
  - { offsetInCU: 0x49AF3, offset: 0x49AF3, size: 0x8, addend: 0x0, symName: __ZNSt3__128__exception_guard_exceptionsINS_6vectorINS_4pairImPKcEENS_9allocatorIS5_EEE16__destroy_vectorEED1B8ue170006Ev, symObjAddr: 0x2E0C0, symBinAddr: 0x10002E7F8, symSize: 0x2C }
  - { offsetInCU: 0x49B1D, offset: 0x49B1D, size: 0x8, addend: 0x0, symName: __ZNSt3__128__exception_guard_exceptionsINS_6vectorINS_4pairImPKcEENS_9allocatorIS5_EEE16__destroy_vectorEEC1B8ue170006ES9_, symObjAddr: 0x2E0EC, symBinAddr: 0x10002E824, symSize: 0x34 }
  - { offsetInCU: 0x49B55, offset: 0x49B55, size: 0x8, addend: 0x0, symName: __ZNSt3__128__exception_guard_exceptionsINS_6vectorINS_4pairImPKcEENS_9allocatorIS5_EEE16__destroy_vectorEEC2B8ue170006ES9_, symObjAddr: 0x2E120, symBinAddr: 0x10002E858, symSize: 0x24 }
  - { offsetInCU: 0x49BAA, offset: 0x49BAA, size: 0x8, addend: 0x0, symName: __ZNSt3__14pairIPNS0_ImPKcEES4_EC1B8ue170006ERKS4_S7_, symObjAddr: 0x2E3CC, symBinAddr: 0x10002EB04, symSize: 0x3C }
  - { offsetInCU: 0x49BF0, offset: 0x49BF0, size: 0x8, addend: 0x0, symName: __ZNSt3__14pairIPNS0_ImPKcEES4_EC2B8ue170006ERKS4_S7_, symObjAddr: 0x2E408, symBinAddr: 0x10002EB40, symSize: 0x34 }
  - { offsetInCU: 0x49C36, offset: 0x49C36, size: 0x8, addend: 0x0, symName: __ZNSt3__129_AllocatorDestroyRangeReverseINS_9allocatorINS_4pairImPKcEEEEPS5_EC1B8ue170006ERS6_RS7_SA_, symObjAddr: 0x2E488, symBinAddr: 0x10002EBC0, symSize: 0x44 }
  - { offsetInCU: 0x49C8D, offset: 0x49C8D, size: 0x8, addend: 0x0, symName: __ZNSt3__116allocator_traitsINS_9allocatorINS_4pairImPKcEEEEE9constructB8ue170006IS5_JRS5_EvEEvRS6_PT_DpOT0_, symObjAddr: 0x2E4CC, symBinAddr: 0x10002EC04, symSize: 0x34 }
  - { offsetInCU: 0x49CE4, offset: 0x49CE4, size: 0x8, addend: 0x0, symName: __ZNSt3__128__exception_guard_exceptionsINS_29_AllocatorDestroyRangeReverseINS_9allocatorINS_4pairImPKcEEEEPS6_EEE10__completeB8ue170006Ev, symObjAddr: 0x2E500, symBinAddr: 0x10002EC38, symSize: 0x1C }
  - { offsetInCU: 0x49D0A, offset: 0x49D0A, size: 0x8, addend: 0x0, symName: __ZNSt3__128__exception_guard_exceptionsINS_29_AllocatorDestroyRangeReverseINS_9allocatorINS_4pairImPKcEEEEPS6_EEED1B8ue170006Ev, symObjAddr: 0x2E51C, symBinAddr: 0x10002EC54, symSize: 0x2C }
  - { offsetInCU: 0x49D34, offset: 0x49D34, size: 0x8, addend: 0x0, symName: __ZNSt3__128__exception_guard_exceptionsINS_29_AllocatorDestroyRangeReverseINS_9allocatorINS_4pairImPKcEEEEPS6_EEEC1B8ue170006ES9_, symObjAddr: 0x2E548, symBinAddr: 0x10002EC80, symSize: 0x34 }
  - { offsetInCU: 0x49D6D, offset: 0x49D6D, size: 0x8, addend: 0x0, symName: __ZNSt3__128__exception_guard_exceptionsINS_29_AllocatorDestroyRangeReverseINS_9allocatorINS_4pairImPKcEEEEPS6_EEEC2B8ue170006ES9_, symObjAddr: 0x2E57C, symBinAddr: 0x10002ECB4, symSize: 0x30 }
  - { offsetInCU: 0x49DA6, offset: 0x49DA6, size: 0x8, addend: 0x0, symName: __ZNSt3__129_AllocatorDestroyRangeReverseINS_9allocatorINS_4pairImPKcEEEEPS5_EC2B8ue170006ERS6_RS7_SA_, symObjAddr: 0x2E5AC, symBinAddr: 0x10002ECE4, symSize: 0x38 }
  - { offsetInCU: 0x49DFD, offset: 0x49DFD, size: 0x8, addend: 0x0, symName: __ZNSt3__19allocatorINS_4pairImPKcEEE9constructB8ue170006IS4_JRS4_EEEvPT_DpOT0_, symObjAddr: 0x2E5E4, symBinAddr: 0x10002ED1C, symSize: 0x28 }
  - { offsetInCU: 0x49E53, offset: 0x49E53, size: 0x8, addend: 0x0, symName: __ZNSt3__128__exception_guard_exceptionsINS_29_AllocatorDestroyRangeReverseINS_9allocatorINS_4pairImPKcEEEEPS6_EEED2B8ue170006Ev, symObjAddr: 0x2E60C, symBinAddr: 0x10002ED44, symSize: 0x48 }
  - { offsetInCU: 0x49E7D, offset: 0x49E7D, size: 0x8, addend: 0x0, symName: __ZNKSt3__129_AllocatorDestroyRangeReverseINS_9allocatorINS_4pairImPKcEEEEPS5_EclB8ue170006Ev, symObjAddr: 0x2E654, symBinAddr: 0x10002ED8C, symSize: 0x68 }
  - { offsetInCU: 0x49EA3, offset: 0x49EA3, size: 0x8, addend: 0x0, symName: __ZNSt3__118__unwrap_iter_implIPNS_4pairImPKcEELb1EE8__unwrapB8ue170006ES5_, symObjAddr: 0x2E72C, symBinAddr: 0x10002EE64, symSize: 0x24 }
  - { offsetInCU: 0x49EC6, offset: 0x49EC6, size: 0x8, addend: 0x0, symName: __ZNSt3__118__unwrap_iter_implIPNS_4pairImPKcEELb1EE8__rewrapB8ue170006ES5_S5_, symObjAddr: 0x2E750, symBinAddr: 0x10002EE88, symSize: 0x50 }
  - { offsetInCU: 0x49EF7, offset: 0x49EF7, size: 0x8, addend: 0x0, symName: __ZNSt3__128__exception_guard_exceptionsINS_6vectorINS_4pairImPKcEENS_9allocatorIS5_EEE16__destroy_vectorEED2B8ue170006Ev, symObjAddr: 0x2E7A0, symBinAddr: 0x10002EED8, symSize: 0x48 }
  - { offsetInCU: 0x49F21, offset: 0x49F21, size: 0x8, addend: 0x0, symName: __ZNSt3__16vectorINS_7__stateIcEENS_9allocatorIS2_EEED2B8ue170006Ev, symObjAddr: 0x2E7E8, symBinAddr: 0x10002EF20, symSize: 0x3C }
  - { offsetInCU: 0x49F4B, offset: 0x49F4B, size: 0x8, addend: 0x0, symName: __ZNSt3__16vectorINS_7__stateIcEENS_9allocatorIS2_EEE16__destroy_vectorC1B8ue170006ERS5_, symObjAddr: 0x2E824, symBinAddr: 0x10002EF5C, symSize: 0x34 }
  - { offsetInCU: 0x49F84, offset: 0x49F84, size: 0x8, addend: 0x0, symName: __ZNSt3__16vectorINS_7__stateIcEENS_9allocatorIS2_EEE16__destroy_vectorclB8ue170006Ev, symObjAddr: 0x2E858, symBinAddr: 0x10002EF90, symSize: 0x90 }
  - { offsetInCU: 0x49FAA, offset: 0x49FAA, size: 0x8, addend: 0x0, symName: __ZNSt3__16vectorINS_7__stateIcEENS_9allocatorIS2_EEE16__destroy_vectorC2B8ue170006ERS5_, symObjAddr: 0x2E8E8, symBinAddr: 0x10002F020, symSize: 0x20 }
  - { offsetInCU: 0x49FE3, offset: 0x49FE3, size: 0x8, addend: 0x0, symName: __ZNSt3__16vectorINS_7__stateIcEENS_9allocatorIS2_EEE7__clearB8ue170006Ev, symObjAddr: 0x2E908, symBinAddr: 0x10002F040, symSize: 0x28 }
  - { offsetInCU: 0x4A009, offset: 0x4A009, size: 0x8, addend: 0x0, symName: __ZNSt3__14pairIPKcS2_EaSB8ue170006ERKS3_, symObjAddr: 0x2E930, symBinAddr: 0x10002F068, symSize: 0x30 }
  - { offsetInCU: 0x4A03D, offset: 0x4A03D, size: 0x8, addend: 0x0, symName: __ZNSt3__113match_resultsIPKcNS_9allocatorINS_9sub_matchIS2_EEEEED2Ev, symObjAddr: 0x2E960, symBinAddr: 0x10002F098, symSize: 0x2C }
  - { offsetInCU: 0x4A06A, offset: 0x4A06A, size: 0x8, addend: 0x0, symName: __ZNSt3__111basic_regexIcNS_12regex_traitsIcEEE28__push_match_any_but_newlineEv, symObjAddr: 0x2E98C, symBinAddr: 0x10002F0C4, symSize: 0xA0 }
  - { offsetInCU: 0x4A092, offset: 0x4A092, size: 0x8, addend: 0x0, symName: __ZNSt3__111basic_regexIcNS_12regex_traitsIcEEE19__parse_atom_escapeIPKcEET_S7_S7_, symObjAddr: 0x2EA2C, symBinAddr: 0x10002F164, symSize: 0x144 }
  - { offsetInCU: 0x4A10E, offset: 0x4A10E, size: 0x8, addend: 0x0, symName: __ZNSt3__111basic_regexIcNS_12regex_traitsIcEEE26__parse_bracket_expressionIPKcEET_S7_S7_, symObjAddr: 0x2EB70, symBinAddr: 0x10002F2A8, symSize: 0x1E8 }
  - { offsetInCU: 0x4A18A, offset: 0x4A18A, size: 0x8, addend: 0x0, symName: __ZNSt3__111basic_regexIcNS_12regex_traitsIcEEE33__push_begin_marked_subexpressionEv, symObjAddr: 0x2ED58, symBinAddr: 0x10002F490, symSize: 0xD4 }
  - { offsetInCU: 0x4A1B2, offset: 0x4A1B2, size: 0x8, addend: 0x0, symName: __ZNSt3__111basic_regexIcNS_12regex_traitsIcEEE31__push_end_marked_subexpressionEj, symObjAddr: 0x2EE2C, symBinAddr: 0x10002F564, symSize: 0xD0 }
  - { offsetInCU: 0x4A1E9, offset: 0x4A1E9, size: 0x8, addend: 0x0, symName: __ZNSt3__111basic_regexIcNS_12regex_traitsIcEEE25__parse_pattern_characterIPKcEET_S7_S7_, symObjAddr: 0x2EF5C, symBinAddr: 0x10002F694, symSize: 0xA8 }
  - { offsetInCU: 0x4A24F, offset: 0x4A24F, size: 0x8, addend: 0x0, symName: __ZNSt3__123__match_any_but_newlineIcEC1B8ue170006EPNS_6__nodeIcEE, symObjAddr: 0x2F16C, symBinAddr: 0x10002F8A4, symSize: 0x34 }
  - { offsetInCU: 0x4A288, offset: 0x4A288, size: 0x8, addend: 0x0, symName: __ZNSt3__123__match_any_but_newlineIcEC2B8ue170006EPNS_6__nodeIcEE, symObjAddr: 0x2F1A0, symBinAddr: 0x10002F8D8, symSize: 0x4C }
  - { offsetInCU: 0x4A2C1, offset: 0x4A2C1, size: 0x8, addend: 0x0, symName: __ZNSt3__123__match_any_but_newlineIcED1Ev, symObjAddr: 0x2F1EC, symBinAddr: 0x10002F924, symSize: 0x2C }
  - { offsetInCU: 0x4A2EE, offset: 0x4A2EE, size: 0x8, addend: 0x0, symName: __ZNSt3__123__match_any_but_newlineIcED0Ev, symObjAddr: 0x2F218, symBinAddr: 0x10002F950, symSize: 0x58 }
  - { offsetInCU: 0x4A31B, offset: 0x4A31B, size: 0x8, addend: 0x0, symName: __ZNSt3__123__match_any_but_newlineIcED2Ev, symObjAddr: 0x2F270, symBinAddr: 0x10002F9A8, symSize: 0x2C }
  - { offsetInCU: 0x4A348, offset: 0x4A348, size: 0x8, addend: 0x0, symName: __ZNSt3__111basic_regexIcNS_12regex_traitsIcEEE22__parse_decimal_escapeIPKcEET_S7_S7_, symObjAddr: 0x2F2FC, symBinAddr: 0x10002FA34, symSize: 0x1EC }
  - { offsetInCU: 0x4A3B5, offset: 0x4A3B5, size: 0x8, addend: 0x0, symName: __ZNSt3__111basic_regexIcNS_12regex_traitsIcEEE30__parse_character_class_escapeIPKcEET_S7_S7_, symObjAddr: 0x2F4E8, symBinAddr: 0x10002FC20, symSize: 0x1BC }
  - { offsetInCU: 0x4A422, offset: 0x4A422, size: 0x8, addend: 0x0, symName: __ZNSt3__111basic_regexIcNS_12regex_traitsIcEEE24__parse_character_escapeIPKcEET_S7_S7_PNS_12basic_stringIcNS_11char_traitsIcEENS_9allocatorIcEEEE, symObjAddr: 0x2F774, symBinAddr: 0x10002FEAC, symSize: 0x5D4 }
  - { offsetInCU: 0x4A4BC, offset: 0x4A4BC, size: 0x8, addend: 0x0, symName: __ZNSt3__111basic_regexIcNS_12regex_traitsIcEEE11__push_charEc, symObjAddr: 0x2FE6C, symBinAddr: 0x1000305A4, symSize: 0x1D4 }
  - { offsetInCU: 0x4A4F3, offset: 0x4A4F3, size: 0x8, addend: 0x0, symName: __ZNSt3__114numeric_limitsIjE3maxB8ue170006Ev, symObjAddr: 0x30040, symBinAddr: 0x100030778, symSize: 0x14 }
  - { offsetInCU: 0x4A507, offset: 0x4A507, size: 0x8, addend: 0x0, symName: __ZNSt3__111basic_regexIcNS_12regex_traitsIcEEE15__push_back_refEi, symObjAddr: 0x300B4, symBinAddr: 0x1000307EC, symSize: 0x1D4 }
  - { offsetInCU: 0x4A53E, offset: 0x4A53E, size: 0x8, addend: 0x0, symName: __ZNKSt3__111basic_regexIcNS_12regex_traitsIcEEE5flagsB8ue170006Ev, symObjAddr: 0x30288, symBinAddr: 0x1000309C0, symSize: 0x18 }
  - { offsetInCU: 0x4A587, offset: 0x4A587, size: 0x8, addend: 0x0, symName: __ZNSt3__118__match_char_icaseIcNS_12regex_traitsIcEEEC1B8ue170006ERKS2_cPNS_6__nodeIcEE, symObjAddr: 0x302A0, symBinAddr: 0x1000309D8, symSize: 0x44 }
  - { offsetInCU: 0x4A601, offset: 0x4A601, size: 0x8, addend: 0x0, symName: __ZNSt3__120__match_char_collateIcNS_12regex_traitsIcEEEC1B8ue170006ERKS2_cPNS_6__nodeIcEE, symObjAddr: 0x302E4, symBinAddr: 0x100030A1C, symSize: 0x44 }
  - { offsetInCU: 0x4A67B, offset: 0x4A67B, size: 0x8, addend: 0x0, symName: __ZNSt3__112__match_charIcEC1B8ue170006EcPNS_6__nodeIcEE, symObjAddr: 0x30328, symBinAddr: 0x100030A60, symSize: 0x3C }
  - { offsetInCU: 0x4A6C3, offset: 0x4A6C3, size: 0x8, addend: 0x0, symName: __ZNSt3__118__match_char_icaseIcNS_12regex_traitsIcEEEC2B8ue170006ERKS2_cPNS_6__nodeIcEE, symObjAddr: 0x30364, symBinAddr: 0x100030A9C, symSize: 0xBC }
  - { offsetInCU: 0x4A71A, offset: 0x4A71A, size: 0x8, addend: 0x0, symName: __ZNKSt3__112regex_traitsIcE16translate_nocaseEc, symObjAddr: 0x30420, symBinAddr: 0x100030B58, symSize: 0x34 }
  - { offsetInCU: 0x4A751, offset: 0x4A751, size: 0x8, addend: 0x0, symName: __ZNSt3__118__match_char_icaseIcNS_12regex_traitsIcEEED1Ev, symObjAddr: 0x30454, symBinAddr: 0x100030B8C, symSize: 0x2C }
  - { offsetInCU: 0x4A77E, offset: 0x4A77E, size: 0x8, addend: 0x0, symName: __ZNSt3__118__match_char_icaseIcNS_12regex_traitsIcEEED0Ev, symObjAddr: 0x30480, symBinAddr: 0x100030BB8, symSize: 0x58 }
  - { offsetInCU: 0x4A7AB, offset: 0x4A7AB, size: 0x8, addend: 0x0, symName: __ZNKSt3__118__match_char_icaseIcNS_12regex_traitsIcEEE6__execERNS_7__stateIcEE, symObjAddr: 0x304D8, symBinAddr: 0x100030C10, symSize: 0xC0 }
  - { offsetInCU: 0x4A7E2, offset: 0x4A7E2, size: 0x8, addend: 0x0, symName: __ZNKSt3__15ctypeIcE7tolowerB8ue170006Ec, symObjAddr: 0x30598, symBinAddr: 0x100030CD0, symSize: 0x38 }
  - { offsetInCU: 0x4A817, offset: 0x4A817, size: 0x8, addend: 0x0, symName: __ZNSt3__118__match_char_icaseIcNS_12regex_traitsIcEEED2Ev, symObjAddr: 0x305D0, symBinAddr: 0x100030D08, symSize: 0x78 }
  - { offsetInCU: 0x4A844, offset: 0x4A844, size: 0x8, addend: 0x0, symName: __ZNSt3__120__match_char_collateIcNS_12regex_traitsIcEEEC2B8ue170006ERKS2_cPNS_6__nodeIcEE, symObjAddr: 0x30648, symBinAddr: 0x100030D80, symSize: 0xBC }
  - { offsetInCU: 0x4A89B, offset: 0x4A89B, size: 0x8, addend: 0x0, symName: __ZNKSt3__112regex_traitsIcE9translateB8ue170006Ec, symObjAddr: 0x30704, symBinAddr: 0x100030E3C, symSize: 0x18 }
  - { offsetInCU: 0x4A8D0, offset: 0x4A8D0, size: 0x8, addend: 0x0, symName: __ZNSt3__120__match_char_collateIcNS_12regex_traitsIcEEED1Ev, symObjAddr: 0x3071C, symBinAddr: 0x100030E54, symSize: 0x2C }
  - { offsetInCU: 0x4A8FD, offset: 0x4A8FD, size: 0x8, addend: 0x0, symName: __ZNSt3__120__match_char_collateIcNS_12regex_traitsIcEEED0Ev, symObjAddr: 0x30748, symBinAddr: 0x100030E80, symSize: 0x58 }
  - { offsetInCU: 0x4A92A, offset: 0x4A92A, size: 0x8, addend: 0x0, symName: __ZNKSt3__120__match_char_collateIcNS_12regex_traitsIcEEE6__execERNS_7__stateIcEE, symObjAddr: 0x307A0, symBinAddr: 0x100030ED8, symSize: 0xC0 }
  - { offsetInCU: 0x4A961, offset: 0x4A961, size: 0x8, addend: 0x0, symName: __ZNSt3__120__match_char_collateIcNS_12regex_traitsIcEEED2Ev, symObjAddr: 0x30860, symBinAddr: 0x100030F98, symSize: 0x78 }
  - { offsetInCU: 0x4A98E, offset: 0x4A98E, size: 0x8, addend: 0x0, symName: __ZNSt3__112__match_charIcEC2B8ue170006EcPNS_6__nodeIcEE, symObjAddr: 0x308D8, symBinAddr: 0x100031010, symSize: 0x58 }
  - { offsetInCU: 0x4A9D6, offset: 0x4A9D6, size: 0x8, addend: 0x0, symName: __ZNSt3__112__match_charIcED1Ev, symObjAddr: 0x30930, symBinAddr: 0x100031068, symSize: 0x2C }
  - { offsetInCU: 0x4AA03, offset: 0x4AA03, size: 0x8, addend: 0x0, symName: __ZNSt3__112__match_charIcED0Ev, symObjAddr: 0x3095C, symBinAddr: 0x100031094, symSize: 0x58 }
  - { offsetInCU: 0x4AA30, offset: 0x4AA30, size: 0x8, addend: 0x0, symName: __ZNKSt3__112__match_charIcE6__execERNS_7__stateIcEE, symObjAddr: 0x309B4, symBinAddr: 0x1000310EC, symSize: 0xB4 }
  - { offsetInCU: 0x4AA67, offset: 0x4AA67, size: 0x8, addend: 0x0, symName: __ZNSt3__112__match_charIcED2Ev, symObjAddr: 0x30A68, symBinAddr: 0x1000311A0, symSize: 0x2C }
  - { offsetInCU: 0x4AA94, offset: 0x4AA94, size: 0x8, addend: 0x0, symName: __ZNSt3__123__libcpp_numeric_limitsIjLb1EE3maxB8ue170006Ev, symObjAddr: 0x30A94, symBinAddr: 0x1000311CC, symSize: 0x8 }
  - { offsetInCU: 0x4AABF, offset: 0x4AABF, size: 0x8, addend: 0x0, symName: __ZNSt3__116__back_ref_icaseIcNS_12regex_traitsIcEEEC1B8ue170006ERKS2_jPNS_6__nodeIcEE, symObjAddr: 0x30A9C, symBinAddr: 0x1000311D4, symSize: 0x44 }
  - { offsetInCU: 0x4AB2D, offset: 0x4AB2D, size: 0x8, addend: 0x0, symName: __ZNSt3__118__back_ref_collateIcNS_12regex_traitsIcEEEC1B8ue170006ERKS2_jPNS_6__nodeIcEE, symObjAddr: 0x30AE0, symBinAddr: 0x100031218, symSize: 0x44 }
  - { offsetInCU: 0x4AB9B, offset: 0x4AB9B, size: 0x8, addend: 0x0, symName: __ZNSt3__110__back_refIcEC1B8ue170006EjPNS_6__nodeIcEE, symObjAddr: 0x30B24, symBinAddr: 0x10003125C, symSize: 0x3C }
  - { offsetInCU: 0x4ABE3, offset: 0x4ABE3, size: 0x8, addend: 0x0, symName: __ZNSt3__116__back_ref_icaseIcNS_12regex_traitsIcEEEC2B8ue170006ERKS2_jPNS_6__nodeIcEE, symObjAddr: 0x30B60, symBinAddr: 0x100031298, symSize: 0x6C }
  - { offsetInCU: 0x4AC3A, offset: 0x4AC3A, size: 0x8, addend: 0x0, symName: __ZNSt3__116__back_ref_icaseIcNS_12regex_traitsIcEEED1Ev, symObjAddr: 0x30BCC, symBinAddr: 0x100031304, symSize: 0x2C }
  - { offsetInCU: 0x4AC67, offset: 0x4AC67, size: 0x8, addend: 0x0, symName: __ZNSt3__116__back_ref_icaseIcNS_12regex_traitsIcEEED0Ev, symObjAddr: 0x30BF8, symBinAddr: 0x100031330, symSize: 0x58 }
  - { offsetInCU: 0x4AC94, offset: 0x4AC94, size: 0x8, addend: 0x0, symName: __ZNKSt3__116__back_ref_icaseIcNS_12regex_traitsIcEEE6__execERNS_7__stateIcEE, symObjAddr: 0x30C50, symBinAddr: 0x100031388, symSize: 0x18C }
  - { offsetInCU: 0x4AD27, offset: 0x4AD27, size: 0x8, addend: 0x0, symName: __ZNSt3__116__back_ref_icaseIcNS_12regex_traitsIcEEED2Ev, symObjAddr: 0x30DDC, symBinAddr: 0x100031514, symSize: 0x78 }
  - { offsetInCU: 0x4AD54, offset: 0x4AD54, size: 0x8, addend: 0x0, symName: __ZNSt3__118__back_ref_collateIcNS_12regex_traitsIcEEEC2B8ue170006ERKS2_jPNS_6__nodeIcEE, symObjAddr: 0x30E54, symBinAddr: 0x10003158C, symSize: 0x6C }
  - { offsetInCU: 0x4ADAB, offset: 0x4ADAB, size: 0x8, addend: 0x0, symName: __ZNSt3__118__back_ref_collateIcNS_12regex_traitsIcEEED1Ev, symObjAddr: 0x30EC0, symBinAddr: 0x1000315F8, symSize: 0x2C }
  - { offsetInCU: 0x4ADD8, offset: 0x4ADD8, size: 0x8, addend: 0x0, symName: __ZNSt3__118__back_ref_collateIcNS_12regex_traitsIcEEED0Ev, symObjAddr: 0x30EEC, symBinAddr: 0x100031624, symSize: 0x58 }
  - { offsetInCU: 0x4AE05, offset: 0x4AE05, size: 0x8, addend: 0x0, symName: __ZNKSt3__118__back_ref_collateIcNS_12regex_traitsIcEEE6__execERNS_7__stateIcEE, symObjAddr: 0x30F44, symBinAddr: 0x10003167C, symSize: 0x18C }
  - { offsetInCU: 0x4AE98, offset: 0x4AE98, size: 0x8, addend: 0x0, symName: __ZNSt3__118__back_ref_collateIcNS_12regex_traitsIcEEED2Ev, symObjAddr: 0x310D0, symBinAddr: 0x100031808, symSize: 0x78 }
  - { offsetInCU: 0x4AEC5, offset: 0x4AEC5, size: 0x8, addend: 0x0, symName: __ZNSt3__110__back_refIcEC2B8ue170006EjPNS_6__nodeIcEE, symObjAddr: 0x31148, symBinAddr: 0x100031880, symSize: 0x58 }
  - { offsetInCU: 0x4AF0D, offset: 0x4AF0D, size: 0x8, addend: 0x0, symName: __ZNSt3__110__back_refIcED1Ev, symObjAddr: 0x311A0, symBinAddr: 0x1000318D8, symSize: 0x2C }
  - { offsetInCU: 0x4AF3A, offset: 0x4AF3A, size: 0x8, addend: 0x0, symName: __ZNSt3__110__back_refIcED0Ev, symObjAddr: 0x311CC, symBinAddr: 0x100031904, symSize: 0x58 }
  - { offsetInCU: 0x4AF67, offset: 0x4AF67, size: 0x8, addend: 0x0, symName: __ZNKSt3__110__back_refIcE6__execERNS_7__stateIcEE, symObjAddr: 0x31224, symBinAddr: 0x10003195C, symSize: 0x150 }
  - { offsetInCU: 0x4AFCB, offset: 0x4AFCB, size: 0x8, addend: 0x0, symName: __ZNSt3__110__back_refIcED2Ev, symObjAddr: 0x31374, symBinAddr: 0x100031AAC, symSize: 0x2C }
  - { offsetInCU: 0x4AFF8, offset: 0x4AFF8, size: 0x8, addend: 0x0, symName: __ZNSt3__118__unwrap_iter_implIPKcLb1EE8__unwrapB8ue170006ES2_, symObjAddr: 0x31534, symBinAddr: 0x100031C6C, symSize: 0x24 }
  - { offsetInCU: 0x4B01B, offset: 0x4B01B, size: 0x8, addend: 0x0, symName: __ZNSt3__111basic_regexIcNS_12regex_traitsIcEEE21__start_matching_listEb, symObjAddr: 0x31558, symBinAddr: 0x100031C90, symSize: 0x114 }
  - { offsetInCU: 0x4B061, offset: 0x4B061, size: 0x8, addend: 0x0, symName: __ZNSt3__120__bracket_expressionIcNS_12regex_traitsIcEEE11__add_classB8ue170006Ej, symObjAddr: 0x3166C, symBinAddr: 0x100031DA4, symSize: 0x28 }
  - { offsetInCU: 0x4B096, offset: 0x4B096, size: 0x8, addend: 0x0, symName: __ZNSt3__120__bracket_expressionIcNS_12regex_traitsIcEEE10__add_charB8ue170006Ec, symObjAddr: 0x31694, symBinAddr: 0x100031DCC, symSize: 0xBC }
  - { offsetInCU: 0x4B0CB, offset: 0x4B0CB, size: 0x8, addend: 0x0, symName: __ZNSt3__120__bracket_expressionIcNS_12regex_traitsIcEEEC1B8ue170006ERKS2_PNS_6__nodeIcEEbbb, symObjAddr: 0x31750, symBinAddr: 0x100031E88, symSize: 0x70 }
  - { offsetInCU: 0x4B140, offset: 0x4B140, size: 0x8, addend: 0x0, symName: __ZNSt3__120__bracket_expressionIcNS_12regex_traitsIcEEEC2B8ue170006ERKS2_PNS_6__nodeIcEEbbb, symObjAddr: 0x317C0, symBinAddr: 0x100031EF8, symSize: 0x26C }
  - { offsetInCU: 0x4B1B5, offset: 0x4B1B5, size: 0x8, addend: 0x0, symName: __ZNSt3__16vectorIcNS_9allocatorIcEEEC1B8ue170006Ev, symObjAddr: 0x31A2C, symBinAddr: 0x100032164, symSize: 0x2C }
  - { offsetInCU: 0x4B1DF, offset: 0x4B1DF, size: 0x8, addend: 0x0, symName: __ZNSt3__16vectorINS_4pairINS_12basic_stringIcNS_11char_traitsIcEENS_9allocatorIcEEEES7_EENS5_IS8_EEEC1B8ue170006Ev, symObjAddr: 0x31A58, symBinAddr: 0x100032190, symSize: 0x2C }
  - { offsetInCU: 0x4B209, offset: 0x4B209, size: 0x8, addend: 0x0, symName: __ZNSt3__16vectorINS_4pairIccEENS_9allocatorIS2_EEEC1B8ue170006Ev, symObjAddr: 0x31A84, symBinAddr: 0x1000321BC, symSize: 0x2C }
  - { offsetInCU: 0x4B233, offset: 0x4B233, size: 0x8, addend: 0x0, symName: __ZNKSt3__112regex_traitsIcE6getlocB8ue170006Ev, symObjAddr: 0x31AE4, symBinAddr: 0x10003221C, symSize: 0x38 }
  - { offsetInCU: 0x4B259, offset: 0x4B259, size: 0x8, addend: 0x0, symName: __ZNSt3__16vectorINS_4pairIccEENS_9allocatorIS2_EEED1B8ue170006Ev, symObjAddr: 0x31B1C, symBinAddr: 0x100032254, symSize: 0x2C }
  - { offsetInCU: 0x4B283, offset: 0x4B283, size: 0x8, addend: 0x0, symName: __ZNSt3__16vectorINS_4pairINS_12basic_stringIcNS_11char_traitsIcEENS_9allocatorIcEEEES7_EENS5_IS8_EEED1B8ue170006Ev, symObjAddr: 0x31B48, symBinAddr: 0x100032280, symSize: 0x2C }
  - { offsetInCU: 0x4B2AD, offset: 0x4B2AD, size: 0x8, addend: 0x0, symName: __ZNSt3__16vectorIcNS_9allocatorIcEEED1B8ue170006Ev, symObjAddr: 0x31B74, symBinAddr: 0x1000322AC, symSize: 0x2C }
  - { offsetInCU: 0x4B2D7, offset: 0x4B2D7, size: 0x8, addend: 0x0, symName: __ZNSt3__120__bracket_expressionIcNS_12regex_traitsIcEEED1Ev, symObjAddr: 0x31BA0, symBinAddr: 0x1000322D8, symSize: 0x2C }
  - { offsetInCU: 0x4B304, offset: 0x4B304, size: 0x8, addend: 0x0, symName: __ZNSt3__120__bracket_expressionIcNS_12regex_traitsIcEEED0Ev, symObjAddr: 0x31BCC, symBinAddr: 0x100032304, symSize: 0x58 }
  - { offsetInCU: 0x4B331, offset: 0x4B331, size: 0x8, addend: 0x0, symName: __ZNKSt3__120__bracket_expressionIcNS_12regex_traitsIcEEE6__execERNS_7__stateIcEE, symObjAddr: 0x31C24, symBinAddr: 0x10003235C, symSize: 0x8D4 }
  - { offsetInCU: 0x4B533, offset: 0x4B533, size: 0x8, addend: 0x0, symName: __ZNSt3__16vectorIcNS_9allocatorIcEEEC2B8ue170006Ev, symObjAddr: 0x324F8, symBinAddr: 0x100032C30, symSize: 0x44 }
  - { offsetInCU: 0x4B55D, offset: 0x4B55D, size: 0x8, addend: 0x0, symName: __ZNSt3__117__compressed_pairIPcNS_9allocatorIcEEEC1B8ue170006IDnNS_18__default_init_tagEEEOT_OT0_, symObjAddr: 0x3253C, symBinAddr: 0x100032C74, symSize: 0x3C }
  - { offsetInCU: 0x4B5B5, offset: 0x4B5B5, size: 0x8, addend: 0x0, symName: __ZNSt3__117__compressed_pairIPcNS_9allocatorIcEEEC2B8ue170006IDnNS_18__default_init_tagEEEOT_OT0_, symObjAddr: 0x32578, symBinAddr: 0x100032CB0, symSize: 0x40 }
  - { offsetInCU: 0x4B60D, offset: 0x4B60D, size: 0x8, addend: 0x0, symName: __ZNSt3__122__compressed_pair_elemIPcLi0ELb0EEC2B8ue170006IDnvEEOT_, symObjAddr: 0x325B8, symBinAddr: 0x100032CF0, symSize: 0x1C }
  - { offsetInCU: 0x4B64F, offset: 0x4B64F, size: 0x8, addend: 0x0, symName: __ZNSt3__122__compressed_pair_elemINS_9allocatorIcEELi1ELb1EEC2B8ue170006ENS_18__default_init_tagE, symObjAddr: 0x325D4, symBinAddr: 0x100032D0C, symSize: 0x2C }
  - { offsetInCU: 0x4B683, offset: 0x4B683, size: 0x8, addend: 0x0, symName: __ZNSt3__19allocatorIcEC2B8ue170006Ev, symObjAddr: 0x32600, symBinAddr: 0x100032D38, symSize: 0x2C }
  - { offsetInCU: 0x4B6AD, offset: 0x4B6AD, size: 0x8, addend: 0x0, symName: __ZNSt3__116__non_trivial_ifILb1ENS_9allocatorIcEEEC2B8ue170006Ev, symObjAddr: 0x3262C, symBinAddr: 0x100032D64, symSize: 0x14 }
  - { offsetInCU: 0x4B6D7, offset: 0x4B6D7, size: 0x8, addend: 0x0, symName: __ZNSt3__16vectorINS_4pairINS_12basic_stringIcNS_11char_traitsIcEENS_9allocatorIcEEEES7_EENS5_IS8_EEEC2B8ue170006Ev, symObjAddr: 0x32640, symBinAddr: 0x100032D78, symSize: 0x44 }
  - { offsetInCU: 0x4B701, offset: 0x4B701, size: 0x8, addend: 0x0, symName: __ZNSt3__117__compressed_pairIPNS_4pairINS_12basic_stringIcNS_11char_traitsIcEENS_9allocatorIcEEEES7_EENS5_IS8_EEEC1B8ue170006IDnNS_18__default_init_tagEEEOT_OT0_, symObjAddr: 0x32684, symBinAddr: 0x100032DBC, symSize: 0x3C }
  - { offsetInCU: 0x4B759, offset: 0x4B759, size: 0x8, addend: 0x0, symName: __ZNSt3__117__compressed_pairIPNS_4pairINS_12basic_stringIcNS_11char_traitsIcEENS_9allocatorIcEEEES7_EENS5_IS8_EEEC2B8ue170006IDnNS_18__default_init_tagEEEOT_OT0_, symObjAddr: 0x326C0, symBinAddr: 0x100032DF8, symSize: 0x40 }
  - { offsetInCU: 0x4B7B1, offset: 0x4B7B1, size: 0x8, addend: 0x0, symName: __ZNSt3__122__compressed_pair_elemIPNS_4pairINS_12basic_stringIcNS_11char_traitsIcEENS_9allocatorIcEEEES7_EELi0ELb0EEC2B8ue170006IDnvEEOT_, symObjAddr: 0x32700, symBinAddr: 0x100032E38, symSize: 0x1C }
  - { offsetInCU: 0x4B7F3, offset: 0x4B7F3, size: 0x8, addend: 0x0, symName: __ZNSt3__122__compressed_pair_elemINS_9allocatorINS_4pairINS_12basic_stringIcNS_11char_traitsIcEENS1_IcEEEES7_EEEELi1ELb1EEC2B8ue170006ENS_18__default_init_tagE, symObjAddr: 0x3271C, symBinAddr: 0x100032E54, symSize: 0x2C }
  - { offsetInCU: 0x4B827, offset: 0x4B827, size: 0x8, addend: 0x0, symName: __ZNSt3__19allocatorINS_4pairINS_12basic_stringIcNS_11char_traitsIcEENS0_IcEEEES6_EEEC2B8ue170006Ev, symObjAddr: 0x32748, symBinAddr: 0x100032E80, symSize: 0x2C }
  - { offsetInCU: 0x4B851, offset: 0x4B851, size: 0x8, addend: 0x0, symName: __ZNSt3__116__non_trivial_ifILb1ENS_9allocatorINS_4pairINS_12basic_stringIcNS_11char_traitsIcEENS1_IcEEEES7_EEEEEC2B8ue170006Ev, symObjAddr: 0x32774, symBinAddr: 0x100032EAC, symSize: 0x14 }
  - { offsetInCU: 0x4B87B, offset: 0x4B87B, size: 0x8, addend: 0x0, symName: __ZNSt3__16vectorINS_4pairIccEENS_9allocatorIS2_EEEC2B8ue170006Ev, symObjAddr: 0x32788, symBinAddr: 0x100032EC0, symSize: 0x44 }
  - { offsetInCU: 0x4B8A5, offset: 0x4B8A5, size: 0x8, addend: 0x0, symName: __ZNSt3__117__compressed_pairIPNS_4pairIccEENS_9allocatorIS2_EEEC1B8ue170006IDnNS_18__default_init_tagEEEOT_OT0_, symObjAddr: 0x327CC, symBinAddr: 0x100032F04, symSize: 0x3C }
  - { offsetInCU: 0x4B8FD, offset: 0x4B8FD, size: 0x8, addend: 0x0, symName: __ZNSt3__117__compressed_pairIPNS_4pairIccEENS_9allocatorIS2_EEEC2B8ue170006IDnNS_18__default_init_tagEEEOT_OT0_, symObjAddr: 0x32808, symBinAddr: 0x100032F40, symSize: 0x40 }
  - { offsetInCU: 0x4B955, offset: 0x4B955, size: 0x8, addend: 0x0, symName: __ZNSt3__122__compressed_pair_elemIPNS_4pairIccEELi0ELb0EEC2B8ue170006IDnvEEOT_, symObjAddr: 0x32848, symBinAddr: 0x100032F80, symSize: 0x1C }
  - { offsetInCU: 0x4B997, offset: 0x4B997, size: 0x8, addend: 0x0, symName: __ZNSt3__122__compressed_pair_elemINS_9allocatorINS_4pairIccEEEELi1ELb1EEC2B8ue170006ENS_18__default_init_tagE, symObjAddr: 0x32864, symBinAddr: 0x100032F9C, symSize: 0x2C }
  - { offsetInCU: 0x4B9CB, offset: 0x4B9CB, size: 0x8, addend: 0x0, symName: __ZNSt3__19allocatorINS_4pairIccEEEC2B8ue170006Ev, symObjAddr: 0x32890, symBinAddr: 0x100032FC8, symSize: 0x2C }
  - { offsetInCU: 0x4B9F5, offset: 0x4B9F5, size: 0x8, addend: 0x0, symName: __ZNSt3__116__non_trivial_ifILb1ENS_9allocatorINS_4pairIccEEEEEC2B8ue170006Ev, symObjAddr: 0x328BC, symBinAddr: 0x100032FF4, symSize: 0x14 }
  - { offsetInCU: 0x4BA1F, offset: 0x4BA1F, size: 0x8, addend: 0x0, symName: __ZNSt3__16vectorINS_4pairIccEENS_9allocatorIS2_EEED2B8ue170006Ev, symObjAddr: 0x328D0, symBinAddr: 0x100033008, symSize: 0x3C }
  - { offsetInCU: 0x4BA49, offset: 0x4BA49, size: 0x8, addend: 0x0, symName: __ZNSt3__16vectorINS_4pairIccEENS_9allocatorIS2_EEE16__destroy_vectorC1B8ue170006ERS5_, symObjAddr: 0x3290C, symBinAddr: 0x100033044, symSize: 0x34 }
  - { offsetInCU: 0x4BA82, offset: 0x4BA82, size: 0x8, addend: 0x0, symName: __ZNSt3__16vectorINS_4pairIccEENS_9allocatorIS2_EEE16__destroy_vectorclB8ue170006Ev, symObjAddr: 0x32940, symBinAddr: 0x100033078, symSize: 0x90 }
  - { offsetInCU: 0x4BAA8, offset: 0x4BAA8, size: 0x8, addend: 0x0, symName: __ZNSt3__16vectorINS_4pairIccEENS_9allocatorIS2_EEE16__destroy_vectorC2B8ue170006ERS5_, symObjAddr: 0x329D0, symBinAddr: 0x100033108, symSize: 0x20 }
  - { offsetInCU: 0x4BAE1, offset: 0x4BAE1, size: 0x8, addend: 0x0, symName: __ZNSt3__16vectorINS_4pairIccEENS_9allocatorIS2_EEE7__clearB8ue170006Ev, symObjAddr: 0x329F0, symBinAddr: 0x100033128, symSize: 0x28 }
  - { offsetInCU: 0x4BB07, offset: 0x4BB07, size: 0x8, addend: 0x0, symName: __ZNKSt3__16vectorINS_4pairIccEENS_9allocatorIS2_EEE17__annotate_deleteB8ue170006Ev, symObjAddr: 0x32A18, symBinAddr: 0x100033150, symSize: 0xB8 }
  - { offsetInCU: 0x4BB2D, offset: 0x4BB2D, size: 0x8, addend: 0x0, symName: __ZNSt3__116allocator_traitsINS_9allocatorINS_4pairIccEEEEE10deallocateB8ue170006ERS4_PS3_m, symObjAddr: 0x32AD0, symBinAddr: 0x100033208, symSize: 0x34 }
  - { offsetInCU: 0x4BB6F, offset: 0x4BB6F, size: 0x8, addend: 0x0, symName: __ZNSt3__16vectorINS_4pairIccEENS_9allocatorIS2_EEE7__allocB8ue170006Ev, symObjAddr: 0x32B04, symBinAddr: 0x10003323C, symSize: 0x28 }
  - { offsetInCU: 0x4BB95, offset: 0x4BB95, size: 0x8, addend: 0x0, symName: __ZNKSt3__16vectorINS_4pairIccEENS_9allocatorIS2_EEE8capacityB8ue170006Ev, symObjAddr: 0x32B2C, symBinAddr: 0x100033264, symSize: 0x40 }
  - { offsetInCU: 0x4BBBB, offset: 0x4BBBB, size: 0x8, addend: 0x0, symName: __ZNSt3__16vectorINS_4pairIccEENS_9allocatorIS2_EEE22__base_destruct_at_endB8ue170006EPS2_, symObjAddr: 0x32B6C, symBinAddr: 0x1000332A4, symSize: 0xA0 }
  - { offsetInCU: 0x4BBFF, offset: 0x4BBFF, size: 0x8, addend: 0x0, symName: __ZNSt3__116allocator_traitsINS_9allocatorINS_4pairIccEEEEE7destroyB8ue170006IS3_vEEvRS4_PT_, symObjAddr: 0x32C0C, symBinAddr: 0x100033344, symSize: 0x2C }
  - { offsetInCU: 0x4BC3C, offset: 0x4BC3C, size: 0x8, addend: 0x0, symName: __ZNSt3__19allocatorINS_4pairIccEEE7destroyB8ue170006EPS2_, symObjAddr: 0x32C4C, symBinAddr: 0x100033384, symSize: 0x14 }
  - { offsetInCU: 0x4BC70, offset: 0x4BC70, size: 0x8, addend: 0x0, symName: __ZNKSt3__16vectorINS_4pairIccEENS_9allocatorIS2_EEE31__annotate_contiguous_containerB8ue170006EPKvS7_S7_S7_, symObjAddr: 0x32C60, symBinAddr: 0x100033398, symSize: 0x20 }
  - { offsetInCU: 0x4BCC2, offset: 0x4BCC2, size: 0x8, addend: 0x0, symName: __ZNKSt3__16vectorINS_4pairIccEENS_9allocatorIS2_EEE4dataB8ue170006Ev, symObjAddr: 0x32C80, symBinAddr: 0x1000333B8, symSize: 0x28 }
  - { offsetInCU: 0x4BCE8, offset: 0x4BCE8, size: 0x8, addend: 0x0, symName: __ZNKSt3__16vectorINS_4pairIccEENS_9allocatorIS2_EEE4sizeB8ue170006Ev, symObjAddr: 0x32CA8, symBinAddr: 0x1000333E0, symSize: 0x28 }
  - { offsetInCU: 0x4BD0E, offset: 0x4BD0E, size: 0x8, addend: 0x0, symName: __ZNSt3__19allocatorINS_4pairIccEEE10deallocateB8ue170006EPS2_m, symObjAddr: 0x32CD0, symBinAddr: 0x100033408, symSize: 0x70 }
  - { offsetInCU: 0x4BD50, offset: 0x4BD50, size: 0x8, addend: 0x0, symName: __ZNSt3__117__compressed_pairIPNS_4pairIccEENS_9allocatorIS2_EEE6secondB8ue170006Ev, symObjAddr: 0x32D40, symBinAddr: 0x100033478, symSize: 0x24 }
  - { offsetInCU: 0x4BD76, offset: 0x4BD76, size: 0x8, addend: 0x0, symName: __ZNSt3__122__compressed_pair_elemINS_9allocatorINS_4pairIccEEEELi1ELb1EE5__getB8ue170006Ev, symObjAddr: 0x32D64, symBinAddr: 0x10003349C, symSize: 0x14 }
  - { offsetInCU: 0x4BD9C, offset: 0x4BD9C, size: 0x8, addend: 0x0, symName: __ZNKSt3__16vectorINS_4pairIccEENS_9allocatorIS2_EEE9__end_capB8ue170006Ev, symObjAddr: 0x32D78, symBinAddr: 0x1000334B0, symSize: 0x28 }
  - { offsetInCU: 0x4BDC2, offset: 0x4BDC2, size: 0x8, addend: 0x0, symName: __ZNKSt3__117__compressed_pairIPNS_4pairIccEENS_9allocatorIS2_EEE5firstB8ue170006Ev, symObjAddr: 0x32DA0, symBinAddr: 0x1000334D8, symSize: 0x24 }
  - { offsetInCU: 0x4BDE8, offset: 0x4BDE8, size: 0x8, addend: 0x0, symName: __ZNKSt3__122__compressed_pair_elemIPNS_4pairIccEELi0ELb0EE5__getB8ue170006Ev, symObjAddr: 0x32DC4, symBinAddr: 0x1000334FC, symSize: 0x14 }
  - { offsetInCU: 0x4BE0E, offset: 0x4BE0E, size: 0x8, addend: 0x0, symName: __ZNSt3__16vectorINS_4pairINS_12basic_stringIcNS_11char_traitsIcEENS_9allocatorIcEEEES7_EENS5_IS8_EEED2B8ue170006Ev, symObjAddr: 0x32DD8, symBinAddr: 0x100033510, symSize: 0x3C }
  - { offsetInCU: 0x4BE38, offset: 0x4BE38, size: 0x8, addend: 0x0, symName: __ZNSt3__16vectorINS_4pairINS_12basic_stringIcNS_11char_traitsIcEENS_9allocatorIcEEEES7_EENS5_IS8_EEE16__destroy_vectorC1B8ue170006ERSA_, symObjAddr: 0x32E14, symBinAddr: 0x10003354C, symSize: 0x34 }
  - { offsetInCU: 0x4BE71, offset: 0x4BE71, size: 0x8, addend: 0x0, symName: __ZNSt3__16vectorINS_4pairINS_12basic_stringIcNS_11char_traitsIcEENS_9allocatorIcEEEES7_EENS5_IS8_EEE16__destroy_vectorclB8ue170006Ev, symObjAddr: 0x32E48, symBinAddr: 0x100033580, symSize: 0x90 }
  - { offsetInCU: 0x4BE97, offset: 0x4BE97, size: 0x8, addend: 0x0, symName: __ZNSt3__16vectorINS_4pairINS_12basic_stringIcNS_11char_traitsIcEENS_9allocatorIcEEEES7_EENS5_IS8_EEE16__destroy_vectorC2B8ue170006ERSA_, symObjAddr: 0x32ED8, symBinAddr: 0x100033610, symSize: 0x20 }
  - { offsetInCU: 0x4BED0, offset: 0x4BED0, size: 0x8, addend: 0x0, symName: __ZNSt3__16vectorINS_4pairINS_12basic_stringIcNS_11char_traitsIcEENS_9allocatorIcEEEES7_EENS5_IS8_EEE7__clearB8ue170006Ev, symObjAddr: 0x32EF8, symBinAddr: 0x100033630, symSize: 0x28 }
  - { offsetInCU: 0x4BEF6, offset: 0x4BEF6, size: 0x8, addend: 0x0, symName: __ZNKSt3__16vectorINS_4pairINS_12basic_stringIcNS_11char_traitsIcEENS_9allocatorIcEEEES7_EENS5_IS8_EEE17__annotate_deleteB8ue170006Ev, symObjAddr: 0x32F20, symBinAddr: 0x100033658, symSize: 0xD4 }
  - { offsetInCU: 0x4BF1C, offset: 0x4BF1C, size: 0x8, addend: 0x0, symName: __ZNSt3__116allocator_traitsINS_9allocatorINS_4pairINS_12basic_stringIcNS_11char_traitsIcEENS1_IcEEEES7_EEEEE10deallocateB8ue170006ERS9_PS8_m, symObjAddr: 0x32FF4, symBinAddr: 0x10003372C, symSize: 0x34 }
  - { offsetInCU: 0x4BF5E, offset: 0x4BF5E, size: 0x8, addend: 0x0, symName: __ZNSt3__16vectorINS_4pairINS_12basic_stringIcNS_11char_traitsIcEENS_9allocatorIcEEEES7_EENS5_IS8_EEE7__allocB8ue170006Ev, symObjAddr: 0x33028, symBinAddr: 0x100033760, symSize: 0x28 }
  - { offsetInCU: 0x4BF84, offset: 0x4BF84, size: 0x8, addend: 0x0, symName: __ZNKSt3__16vectorINS_4pairINS_12basic_stringIcNS_11char_traitsIcEENS_9allocatorIcEEEES7_EENS5_IS8_EEE8capacityB8ue170006Ev, symObjAddr: 0x33050, symBinAddr: 0x100033788, symSize: 0x40 }
  - { offsetInCU: 0x4BFAA, offset: 0x4BFAA, size: 0x8, addend: 0x0, symName: __ZNSt3__16vectorINS_4pairINS_12basic_stringIcNS_11char_traitsIcEENS_9allocatorIcEEEES7_EENS5_IS8_EEE22__base_destruct_at_endB8ue170006EPS8_, symObjAddr: 0x33090, symBinAddr: 0x1000337C8, symSize: 0xA0 }
  - { offsetInCU: 0x4BFEE, offset: 0x4BFEE, size: 0x8, addend: 0x0, symName: __ZNSt3__116allocator_traitsINS_9allocatorINS_4pairINS_12basic_stringIcNS_11char_traitsIcEENS1_IcEEEES7_EEEEE7destroyB8ue170006IS8_vEEvRS9_PT_, symObjAddr: 0x33130, symBinAddr: 0x100033868, symSize: 0x2C }
  - { offsetInCU: 0x4C02B, offset: 0x4C02B, size: 0x8, addend: 0x0, symName: __ZNSt3__19allocatorINS_4pairINS_12basic_stringIcNS_11char_traitsIcEENS0_IcEEEES6_EEE7destroyB8ue170006EPS7_, symObjAddr: 0x33170, symBinAddr: 0x1000338A8, symSize: 0x28 }
  - { offsetInCU: 0x4C05F, offset: 0x4C05F, size: 0x8, addend: 0x0, symName: __ZNSt3__14pairINS_12basic_stringIcNS_11char_traitsIcEENS_9allocatorIcEEEES6_ED1Ev, symObjAddr: 0x33198, symBinAddr: 0x1000338D0, symSize: 0x2C }
  - { offsetInCU: 0x4C08B, offset: 0x4C08B, size: 0x8, addend: 0x0, symName: __ZNSt3__14pairINS_12basic_stringIcNS_11char_traitsIcEENS_9allocatorIcEEEES6_ED2Ev, symObjAddr: 0x331C4, symBinAddr: 0x1000338FC, symSize: 0x68 }
  - { offsetInCU: 0x4C0B7, offset: 0x4C0B7, size: 0x8, addend: 0x0, symName: __ZNKSt3__16vectorINS_4pairINS_12basic_stringIcNS_11char_traitsIcEENS_9allocatorIcEEEES7_EENS5_IS8_EEE31__annotate_contiguous_containerB8ue170006EPKvSC_SC_SC_, symObjAddr: 0x3322C, symBinAddr: 0x100033964, symSize: 0x20 }
  - { offsetInCU: 0x4C109, offset: 0x4C109, size: 0x8, addend: 0x0, symName: __ZNKSt3__16vectorINS_4pairINS_12basic_stringIcNS_11char_traitsIcEENS_9allocatorIcEEEES7_EENS5_IS8_EEE4dataB8ue170006Ev, symObjAddr: 0x3324C, symBinAddr: 0x100033984, symSize: 0x28 }
  - { offsetInCU: 0x4C12F, offset: 0x4C12F, size: 0x8, addend: 0x0, symName: __ZNKSt3__16vectorINS_4pairINS_12basic_stringIcNS_11char_traitsIcEENS_9allocatorIcEEEES7_EENS5_IS8_EEE4sizeB8ue170006Ev, symObjAddr: 0x33274, symBinAddr: 0x1000339AC, symSize: 0x28 }
  - { offsetInCU: 0x4C155, offset: 0x4C155, size: 0x8, addend: 0x0, symName: __ZNSt3__19allocatorINS_4pairINS_12basic_stringIcNS_11char_traitsIcEENS0_IcEEEES6_EEE10deallocateB8ue170006EPS7_m, symObjAddr: 0x3329C, symBinAddr: 0x1000339D4, symSize: 0x74 }
  - { offsetInCU: 0x4C197, offset: 0x4C197, size: 0x8, addend: 0x0, symName: __ZNSt3__117__compressed_pairIPNS_4pairINS_12basic_stringIcNS_11char_traitsIcEENS_9allocatorIcEEEES7_EENS5_IS8_EEE6secondB8ue170006Ev, symObjAddr: 0x33310, symBinAddr: 0x100033A48, symSize: 0x24 }
  - { offsetInCU: 0x4C1BD, offset: 0x4C1BD, size: 0x8, addend: 0x0, symName: __ZNSt3__122__compressed_pair_elemINS_9allocatorINS_4pairINS_12basic_stringIcNS_11char_traitsIcEENS1_IcEEEES7_EEEELi1ELb1EE5__getB8ue170006Ev, symObjAddr: 0x33334, symBinAddr: 0x100033A6C, symSize: 0x14 }
  - { offsetInCU: 0x4C1E3, offset: 0x4C1E3, size: 0x8, addend: 0x0, symName: __ZNKSt3__16vectorINS_4pairINS_12basic_stringIcNS_11char_traitsIcEENS_9allocatorIcEEEES7_EENS5_IS8_EEE9__end_capB8ue170006Ev, symObjAddr: 0x33348, symBinAddr: 0x100033A80, symSize: 0x28 }
  - { offsetInCU: 0x4C209, offset: 0x4C209, size: 0x8, addend: 0x0, symName: __ZNKSt3__117__compressed_pairIPNS_4pairINS_12basic_stringIcNS_11char_traitsIcEENS_9allocatorIcEEEES7_EENS5_IS8_EEE5firstB8ue170006Ev, symObjAddr: 0x33370, symBinAddr: 0x100033AA8, symSize: 0x24 }
  - { offsetInCU: 0x4C22F, offset: 0x4C22F, size: 0x8, addend: 0x0, symName: __ZNKSt3__122__compressed_pair_elemIPNS_4pairINS_12basic_stringIcNS_11char_traitsIcEENS_9allocatorIcEEEES7_EELi0ELb0EE5__getB8ue170006Ev, symObjAddr: 0x33394, symBinAddr: 0x100033ACC, symSize: 0x14 }
  - { offsetInCU: 0x4C255, offset: 0x4C255, size: 0x8, addend: 0x0, symName: __ZNSt3__16vectorIcNS_9allocatorIcEEED2B8ue170006Ev, symObjAddr: 0x333A8, symBinAddr: 0x100033AE0, symSize: 0x3C }
  - { offsetInCU: 0x4C27F, offset: 0x4C27F, size: 0x8, addend: 0x0, symName: __ZNSt3__16vectorIcNS_9allocatorIcEEE16__destroy_vectorC1B8ue170006ERS3_, symObjAddr: 0x333E4, symBinAddr: 0x100033B1C, symSize: 0x34 }
  - { offsetInCU: 0x4C2B8, offset: 0x4C2B8, size: 0x8, addend: 0x0, symName: __ZNSt3__16vectorIcNS_9allocatorIcEEE16__destroy_vectorclB8ue170006Ev, symObjAddr: 0x33418, symBinAddr: 0x100033B50, symSize: 0x90 }
  - { offsetInCU: 0x4C2DE, offset: 0x4C2DE, size: 0x8, addend: 0x0, symName: __ZNSt3__16vectorIcNS_9allocatorIcEEE16__destroy_vectorC2B8ue170006ERS3_, symObjAddr: 0x334A8, symBinAddr: 0x100033BE0, symSize: 0x20 }
  - { offsetInCU: 0x4C317, offset: 0x4C317, size: 0x8, addend: 0x0, symName: __ZNSt3__16vectorIcNS_9allocatorIcEEE7__clearB8ue170006Ev, symObjAddr: 0x334C8, symBinAddr: 0x100033C00, symSize: 0x28 }
  - { offsetInCU: 0x4C33D, offset: 0x4C33D, size: 0x8, addend: 0x0, symName: __ZNKSt3__16vectorIcNS_9allocatorIcEEE17__annotate_deleteB8ue170006Ev, symObjAddr: 0x334F0, symBinAddr: 0x100033C28, symSize: 0xB8 }
  - { offsetInCU: 0x4C363, offset: 0x4C363, size: 0x8, addend: 0x0, symName: __ZNSt3__116allocator_traitsINS_9allocatorIcEEE10deallocateB8ue170006ERS2_Pcm, symObjAddr: 0x335A8, symBinAddr: 0x100033CE0, symSize: 0x34 }
  - { offsetInCU: 0x4C3A5, offset: 0x4C3A5, size: 0x8, addend: 0x0, symName: __ZNSt3__16vectorIcNS_9allocatorIcEEE7__allocB8ue170006Ev, symObjAddr: 0x335DC, symBinAddr: 0x100033D14, symSize: 0x28 }
  - { offsetInCU: 0x4C3CB, offset: 0x4C3CB, size: 0x8, addend: 0x0, symName: __ZNKSt3__16vectorIcNS_9allocatorIcEEE8capacityB8ue170006Ev, symObjAddr: 0x33604, symBinAddr: 0x100033D3C, symSize: 0x38 }
  - { offsetInCU: 0x4C3F1, offset: 0x4C3F1, size: 0x8, addend: 0x0, symName: __ZNSt3__16vectorIcNS_9allocatorIcEEE22__base_destruct_at_endB8ue170006EPc, symObjAddr: 0x3363C, symBinAddr: 0x100033D74, symSize: 0xA0 }
  - { offsetInCU: 0x4C435, offset: 0x4C435, size: 0x8, addend: 0x0, symName: __ZNSt3__116allocator_traitsINS_9allocatorIcEEE7destroyB8ue170006IcvEEvRS2_PT_, symObjAddr: 0x336DC, symBinAddr: 0x100033E14, symSize: 0x2C }
  - { offsetInCU: 0x4C472, offset: 0x4C472, size: 0x8, addend: 0x0, symName: __ZNSt3__19allocatorIcE7destroyB8ue170006EPc, symObjAddr: 0x3371C, symBinAddr: 0x100033E54, symSize: 0x14 }
  - { offsetInCU: 0x4C4A6, offset: 0x4C4A6, size: 0x8, addend: 0x0, symName: __ZNKSt3__16vectorIcNS_9allocatorIcEEE31__annotate_contiguous_containerB8ue170006EPKvS5_S5_S5_, symObjAddr: 0x33730, symBinAddr: 0x100033E68, symSize: 0x20 }
  - { offsetInCU: 0x4C4F8, offset: 0x4C4F8, size: 0x8, addend: 0x0, symName: __ZNKSt3__16vectorIcNS_9allocatorIcEEE4dataB8ue170006Ev, symObjAddr: 0x33750, symBinAddr: 0x100033E88, symSize: 0x28 }
  - { offsetInCU: 0x4C51E, offset: 0x4C51E, size: 0x8, addend: 0x0, symName: __ZNKSt3__16vectorIcNS_9allocatorIcEEE4sizeB8ue170006Ev, symObjAddr: 0x33778, symBinAddr: 0x100033EB0, symSize: 0x20 }
  - { offsetInCU: 0x4C544, offset: 0x4C544, size: 0x8, addend: 0x0, symName: __ZNSt3__19allocatorIcE10deallocateB8ue170006EPcm, symObjAddr: 0x33798, symBinAddr: 0x100033ED0, symSize: 0x70 }
  - { offsetInCU: 0x4C586, offset: 0x4C586, size: 0x8, addend: 0x0, symName: __ZNSt3__117__compressed_pairIPcNS_9allocatorIcEEE6secondB8ue170006Ev, symObjAddr: 0x33808, symBinAddr: 0x100033F40, symSize: 0x24 }
  - { offsetInCU: 0x4C5AC, offset: 0x4C5AC, size: 0x8, addend: 0x0, symName: __ZNSt3__122__compressed_pair_elemINS_9allocatorIcEELi1ELb1EE5__getB8ue170006Ev, symObjAddr: 0x3382C, symBinAddr: 0x100033F64, symSize: 0x14 }
  - { offsetInCU: 0x4C5D2, offset: 0x4C5D2, size: 0x8, addend: 0x0, symName: __ZNKSt3__16vectorIcNS_9allocatorIcEEE9__end_capB8ue170006Ev, symObjAddr: 0x33840, symBinAddr: 0x100033F78, symSize: 0x28 }
  - { offsetInCU: 0x4C5F8, offset: 0x4C5F8, size: 0x8, addend: 0x0, symName: __ZNKSt3__117__compressed_pairIPcNS_9allocatorIcEEE5firstB8ue170006Ev, symObjAddr: 0x33868, symBinAddr: 0x100033FA0, symSize: 0x24 }
  - { offsetInCU: 0x4C61E, offset: 0x4C61E, size: 0x8, addend: 0x0, symName: __ZNKSt3__122__compressed_pair_elemIPcLi0ELb0EE5__getB8ue170006Ev, symObjAddr: 0x3388C, symBinAddr: 0x100033FC4, symSize: 0x14 }
  - { offsetInCU: 0x4C644, offset: 0x4C644, size: 0x8, addend: 0x0, symName: __ZNSt3__120__bracket_expressionIcNS_12regex_traitsIcEEED2Ev, symObjAddr: 0x338A0, symBinAddr: 0x100033FD8, symSize: 0x178 }
  - { offsetInCU: 0x4C671, offset: 0x4C671, size: 0x8, addend: 0x0, symName: __ZNSt3__14pairIccEC1B8ue170006ERKcS3_, symObjAddr: 0x33A18, symBinAddr: 0x100034150, symSize: 0x3C }
  - { offsetInCU: 0x4C6B7, offset: 0x4C6B7, size: 0x8, addend: 0x0, symName: __ZNKSt3__112regex_traitsIcE18lookup_collatenameB8ue170006IPcEENS_12basic_stringIcNS_11char_traitsIcEENS_9allocatorIcEEEET_SA_, symObjAddr: 0x33A54, symBinAddr: 0x10003418C, symSize: 0x40 }
  - { offsetInCU: 0x4C704, offset: 0x4C704, size: 0x8, addend: 0x0, symName: __ZNKSt3__112basic_stringIcNS_11char_traitsIcEENS_9allocatorIcEEE5emptyB8ue170006Ev, symObjAddr: 0x33A94, symBinAddr: 0x1000341CC, symSize: 0x30 }
  - { offsetInCU: 0x4C72A, offset: 0x4C72A, size: 0x8, addend: 0x0, symName: __ZNKSt3__16vectorINS_4pairIccEENS_9allocatorIS2_EEEixB8ue170006Em, symObjAddr: 0x33B28, symBinAddr: 0x100034260, symSize: 0x24 }
  - { offsetInCU: 0x4C761, offset: 0x4C761, size: 0x8, addend: 0x0, symName: __ZNKSt3__16vectorINS_4pairINS_12basic_stringIcNS_11char_traitsIcEENS_9allocatorIcEEEES7_EENS5_IS8_EEE5emptyB8ue170006Ev, symObjAddr: 0x33B4C, symBinAddr: 0x100034284, symSize: 0x28 }
  - { offsetInCU: 0x4C7B3, offset: 0x4C7B3, size: 0x8, addend: 0x0, symName: __ZNKSt3__112regex_traitsIcE9transformIPcEENS_12basic_stringIcNS_11char_traitsIcEENS_9allocatorIcEEEET_SA_, symObjAddr: 0x33B74, symBinAddr: 0x1000342AC, symSize: 0xF8 }
  - { offsetInCU: 0x4C841, offset: 0x4C841, size: 0x8, addend: 0x0, symName: __ZNKSt3__16vectorINS_4pairINS_12basic_stringIcNS_11char_traitsIcEENS_9allocatorIcEEEES7_EENS5_IS8_EEEixB8ue170006Em, symObjAddr: 0x33CA0, symBinAddr: 0x1000343D8, symSize: 0x2C }
  - { offsetInCU: 0x4C878, offset: 0x4C878, size: 0x8, addend: 0x0, symName: __ZNKSt3__16vectorINS_12basic_stringIcNS_11char_traitsIcEENS_9allocatorIcEEEENS4_IS6_EEE5emptyB8ue170006Ev, symObjAddr: 0x33CCC, symBinAddr: 0x100034404, symSize: 0x28 }
  - { offsetInCU: 0x4C89E, offset: 0x4C89E, size: 0x8, addend: 0x0, symName: __ZNKSt3__112regex_traitsIcE17transform_primaryB8ue170006IPcEENS_12basic_stringIcNS_11char_traitsIcEENS_9allocatorIcEEEET_SA_, symObjAddr: 0x33CF4, symBinAddr: 0x10003442C, symSize: 0x40 }
  - { offsetInCU: 0x4C8EB, offset: 0x4C8EB, size: 0x8, addend: 0x0, symName: __ZNKSt3__16vectorINS_12basic_stringIcNS_11char_traitsIcEENS_9allocatorIcEEEENS4_IS6_EEEixB8ue170006Em, symObjAddr: 0x33D34, symBinAddr: 0x10003446C, symSize: 0x2C }
  - { offsetInCU: 0x4C922, offset: 0x4C922, size: 0x8, addend: 0x0, symName: __ZNKSt3__16vectorIcNS_9allocatorIcEEEixB8ue170006Em, symObjAddr: 0x33D60, symBinAddr: 0x100034498, symSize: 0x24 }
  - { offsetInCU: 0x4C959, offset: 0x4C959, size: 0x8, addend: 0x0, symName: __ZNKSt3__16vectorIcNS_9allocatorIcEEE5emptyB8ue170006Ev, symObjAddr: 0x33D84, symBinAddr: 0x1000344BC, symSize: 0x28 }
  - { offsetInCU: 0x4C97F, offset: 0x4C97F, size: 0x8, addend: 0x0, symName: __ZNKSt3__16vectorIcNS_9allocatorIcEEE5beginB8ue170006Ev, symObjAddr: 0x33E58, symBinAddr: 0x100034590, symSize: 0x30 }
  - { offsetInCU: 0x4C9A7, offset: 0x4C9A7, size: 0x8, addend: 0x0, symName: __ZNKSt3__16vectorIcNS_9allocatorIcEEE3endB8ue170006Ev, symObjAddr: 0x33E88, symBinAddr: 0x1000345C0, symSize: 0x30 }
  - { offsetInCU: 0x4C9CF, offset: 0x4C9CF, size: 0x8, addend: 0x0, symName: __ZNSt3__14pairIccEC2B8ue170006ERKcS3_, symObjAddr: 0x33EB8, symBinAddr: 0x1000345F0, symSize: 0x34 }
  - { offsetInCU: 0x4CA15, offset: 0x4CA15, size: 0x8, addend: 0x0, symName: __ZNKSt3__112regex_traitsIcE20__lookup_collatenameIPcEENS_12basic_stringIcNS_11char_traitsIcEENS_9allocatorIcEEEET_SA_c, symObjAddr: 0x33EEC, symBinAddr: 0x100034624, symSize: 0x27C }
  - { offsetInCU: 0x4CABF, offset: 0x4CABF, size: 0x8, addend: 0x0, symName: __ZNSt3__112basic_stringIcNS_11char_traitsIcEENS_9allocatorIcEEEC1B8ue170006IPcLi0EEET_S8_, symObjAddr: 0x34168, symBinAddr: 0x1000348A0, symSize: 0x3C }
  - { offsetInCU: 0x4CB16, offset: 0x4CB16, size: 0x8, addend: 0x0, symName: __ZNKSt3__112basic_stringIcNS_11char_traitsIcEENS_9allocatorIcEEE5c_strB8ue170006Ev, symObjAddr: 0x341A4, symBinAddr: 0x1000348DC, symSize: 0x24 }
  - { offsetInCU: 0x4CB3C, offset: 0x4CB3C, size: 0x8, addend: 0x0, symName: __ZNSt3__112basic_stringIcNS_11char_traitsIcEENS_9allocatorIcEEE5clearB8ue170006Ev, symObjAddr: 0x341C8, symBinAddr: 0x100034900, symSize: 0x78 }
  - { offsetInCU: 0x4CB64, offset: 0x4CB64, size: 0x8, addend: 0x0, symName: __ZNSt3__112basic_stringIcNS_11char_traitsIcEENS_9allocatorIcEEEC2B8ue170006IPcLi0EEET_S8_, symObjAddr: 0x34240, symBinAddr: 0x100034978, symSize: 0x4C }
  - { offsetInCU: 0x4CBBB, offset: 0x4CBBB, size: 0x8, addend: 0x0, symName: __ZNSt3__117__compressed_pairINS_12basic_stringIcNS_11char_traitsIcEENS_9allocatorIcEEE5__repES5_EC1B8ue170006INS_18__default_init_tagESA_EEOT_OT0_, symObjAddr: 0x3428C, symBinAddr: 0x1000349C4, symSize: 0x3C }
  - { offsetInCU: 0x4CC13, offset: 0x4CC13, size: 0x8, addend: 0x0, symName: __ZNSt3__112basic_stringIcNS_11char_traitsIcEENS_9allocatorIcEEE6__initIPcLi0EEEvT_S8_, symObjAddr: 0x342C8, symBinAddr: 0x100034A00, symSize: 0x54 }
  - { offsetInCU: 0x4CC77, offset: 0x4CC77, size: 0x8, addend: 0x0, symName: __ZNSt3__117__compressed_pairINS_12basic_stringIcNS_11char_traitsIcEENS_9allocatorIcEEE5__repES5_EC2B8ue170006INS_18__default_init_tagESA_EEOT_OT0_, symObjAddr: 0x3431C, symBinAddr: 0x100034A54, symSize: 0x3C }
  - { offsetInCU: 0x4CCCF, offset: 0x4CCCF, size: 0x8, addend: 0x0, symName: __ZNSt3__122__compressed_pair_elemINS_12basic_stringIcNS_11char_traitsIcEENS_9allocatorIcEEE5__repELi0ELb0EEC2B8ue170006ENS_18__default_init_tagE, symObjAddr: 0x34358, symBinAddr: 0x100034A90, symSize: 0x14 }
  - { offsetInCU: 0x4CD03, offset: 0x4CD03, size: 0x8, addend: 0x0, symName: __ZNSt3__112basic_stringIcNS_11char_traitsIcEENS_9allocatorIcEEE16__init_with_sizeB8ue170006IPcS7_EEvT_T0_m, symObjAddr: 0x34398, symBinAddr: 0x100034AD0, symSize: 0x17C }
  - { offsetInCU: 0x4CD97, offset: 0x4CD97, size: 0x8, addend: 0x0, symName: __ZNSt3__117__compressed_pairINS_12basic_stringIcNS_11char_traitsIcEENS_9allocatorIcEEE5__repES5_E5firstB8ue170006Ev, symObjAddr: 0x34534, symBinAddr: 0x100034C6C, symSize: 0x24 }
  - { offsetInCU: 0x4CDBD, offset: 0x4CDBD, size: 0x8, addend: 0x0, symName: __ZNKSt3__112basic_stringIcNS_11char_traitsIcEENS_9allocatorIcEEE8max_sizeB8ue170006Ev, symObjAddr: 0x34558, symBinAddr: 0x100034C90, symSize: 0xAC }
  - { offsetInCU: 0x4CE10, offset: 0x4CE10, size: 0x8, addend: 0x0, symName: __ZNKSt3__112basic_stringIcNS_11char_traitsIcEENS_9allocatorIcEEE20__throw_length_errorB8ue170006Ev, symObjAddr: 0x34604, symBinAddr: 0x100034D3C, symSize: 0x1C }
  - { offsetInCU: 0x4CE36, offset: 0x4CE36, size: 0x8, addend: 0x0, symName: __ZNSt3__112basic_stringIcNS_11char_traitsIcEENS_9allocatorIcEEE13__fits_in_ssoB8ue170006Em, symObjAddr: 0x34620, symBinAddr: 0x100034D58, symSize: 0x4C }
  - { offsetInCU: 0x4CE5A, offset: 0x4CE5A, size: 0x8, addend: 0x0, symName: __ZNSt3__112basic_stringIcNS_11char_traitsIcEENS_9allocatorIcEEE16__set_short_sizeB8ue170006Em, symObjAddr: 0x3466C, symBinAddr: 0x100034DA4, symSize: 0x78 }
  - { offsetInCU: 0x4CE8F, offset: 0x4CE8F, size: 0x8, addend: 0x0, symName: __ZNSt3__112basic_stringIcNS_11char_traitsIcEENS_9allocatorIcEEE19__get_short_pointerB8ue170006Ev, symObjAddr: 0x346E4, symBinAddr: 0x100034E1C, symSize: 0x28 }
  - { offsetInCU: 0x4CEB5, offset: 0x4CEB5, size: 0x8, addend: 0x0, symName: __ZNSt3__112basic_stringIcNS_11char_traitsIcEENS_9allocatorIcEEE7__allocB8ue170006Ev, symObjAddr: 0x3474C, symBinAddr: 0x100034E84, symSize: 0x24 }
  - { offsetInCU: 0x4CEDB, offset: 0x4CEDB, size: 0x8, addend: 0x0, symName: __ZNSt3__112basic_stringIcNS_11char_traitsIcEENS_9allocatorIcEEE11__recommendB8ue170006Em, symObjAddr: 0x34770, symBinAddr: 0x100034EA8, symSize: 0x9C }
  - { offsetInCU: 0x4CF0E, offset: 0x4CF0E, size: 0x8, addend: 0x0, symName: __ZNSt3__112basic_stringIcNS_11char_traitsIcEENS_9allocatorIcEEE16__begin_lifetimeB8ue170006EPcm, symObjAddr: 0x3480C, symBinAddr: 0x100034F44, symSize: 0x14 }
  - { offsetInCU: 0x4CF41, offset: 0x4CF41, size: 0x8, addend: 0x0, symName: __ZNSt3__112basic_stringIcNS_11char_traitsIcEENS_9allocatorIcEEE18__set_long_pointerB8ue170006EPc, symObjAddr: 0x34820, symBinAddr: 0x100034F58, symSize: 0x38 }
  - { offsetInCU: 0x4CF76, offset: 0x4CF76, size: 0x8, addend: 0x0, symName: __ZNSt3__112basic_stringIcNS_11char_traitsIcEENS_9allocatorIcEEE14__set_long_capB8ue170006Em, symObjAddr: 0x34858, symBinAddr: 0x100034F90, symSize: 0x70 }
  - { offsetInCU: 0x4CFAB, offset: 0x4CFAB, size: 0x8, addend: 0x0, symName: __ZNSt3__112basic_stringIcNS_11char_traitsIcEENS_9allocatorIcEEE15__set_long_sizeB8ue170006Em, symObjAddr: 0x348C8, symBinAddr: 0x100035000, symSize: 0x38 }
  - { offsetInCU: 0x4CFE0, offset: 0x4CFE0, size: 0x8, addend: 0x0, symName: __ZNSt3__111char_traitsIcE6assignB8ue170006ERcRKc, symObjAddr: 0x34900, symBinAddr: 0x100035038, symSize: 0x24 }
  - { offsetInCU: 0x4D011, offset: 0x4D011, size: 0x8, addend: 0x0, symName: __ZNSt3__122__compressed_pair_elemINS_12basic_stringIcNS_11char_traitsIcEENS_9allocatorIcEEE5__repELi0ELb0EE5__getB8ue170006Ev, symObjAddr: 0x34924, symBinAddr: 0x10003505C, symSize: 0x14 }
  - { offsetInCU: 0x4D042, offset: 0x4D042, size: 0x8, addend: 0x0, symName: __ZNSt3__116allocator_traitsINS_9allocatorIcEEE8max_sizeB8ue170006IS2_vEEmRKS2_, symObjAddr: 0x34938, symBinAddr: 0x100035070, symSize: 0x24 }
  - { offsetInCU: 0x4D070, offset: 0x4D070, size: 0x8, addend: 0x0, symName: __ZNKSt3__112basic_stringIcNS_11char_traitsIcEENS_9allocatorIcEEE7__allocB8ue170006Ev, symObjAddr: 0x3495C, symBinAddr: 0x100035094, symSize: 0x24 }
  - { offsetInCU: 0x4D096, offset: 0x4D096, size: 0x8, addend: 0x0, symName: __ZNSt3__114numeric_limitsImE3maxB8ue170006Ev, symObjAddr: 0x34980, symBinAddr: 0x1000350B8, symSize: 0x14 }
  - { offsetInCU: 0x4D0AA, offset: 0x4D0AA, size: 0x8, addend: 0x0, symName: __ZNKSt3__19allocatorIcE8max_sizeB8ue170006Ev, symObjAddr: 0x34994, symBinAddr: 0x1000350CC, symSize: 0x14 }
  - { offsetInCU: 0x4D0D0, offset: 0x4D0D0, size: 0x8, addend: 0x0, symName: __ZNKSt3__117__compressed_pairINS_12basic_stringIcNS_11char_traitsIcEENS_9allocatorIcEEE5__repES5_E6secondB8ue170006Ev, symObjAddr: 0x349A8, symBinAddr: 0x1000350E0, symSize: 0x24 }
  - { offsetInCU: 0x4D0F6, offset: 0x4D0F6, size: 0x8, addend: 0x0, symName: __ZNKSt3__122__compressed_pair_elemINS_9allocatorIcEELi1ELb1EE5__getB8ue170006Ev, symObjAddr: 0x349CC, symBinAddr: 0x100035104, symSize: 0x14 }
  - { offsetInCU: 0x4D11C, offset: 0x4D11C, size: 0x8, addend: 0x0, symName: __ZNSt3__123__libcpp_numeric_limitsImLb1EE3maxB8ue170006Ev, symObjAddr: 0x349E0, symBinAddr: 0x100035118, symSize: 0x8 }
  - { offsetInCU: 0x4D130, offset: 0x4D130, size: 0x8, addend: 0x0, symName: __ZNSt3__114pointer_traitsIPcE10pointer_toB8ue170006ERc, symObjAddr: 0x349E8, symBinAddr: 0x100035120, symSize: 0x14 }
  - { offsetInCU: 0x4D153, offset: 0x4D153, size: 0x8, addend: 0x0, symName: __ZNSt3__19allocatorIcE8allocateB8ue170006Em, symObjAddr: 0x349FC, symBinAddr: 0x100035134, symSize: 0x84 }
  - { offsetInCU: 0x4D187, offset: 0x4D187, size: 0x8, addend: 0x0, symName: __ZNSt3__117__compressed_pairINS_12basic_stringIcNS_11char_traitsIcEENS_9allocatorIcEEE5__repES5_E6secondB8ue170006Ev, symObjAddr: 0x34A80, symBinAddr: 0x1000351B8, symSize: 0x24 }
  - { offsetInCU: 0x4D1AD, offset: 0x4D1AD, size: 0x8, addend: 0x0, symName: __ZNSt3__112basic_stringIcNS_11char_traitsIcEENS_9allocatorIcEEE10__align_itB8ue170006ILm16EEEmm, symObjAddr: 0x34AA4, symBinAddr: 0x1000351DC, symSize: 0x1C }
  - { offsetInCU: 0x4D1DB, offset: 0x4D1DB, size: 0x8, addend: 0x0, symName: __ZNSt3__112basic_stringIcNS_11char_traitsIcEENS_9allocatorIcEEE18__get_long_pointerB8ue170006Ev, symObjAddr: 0x34AC0, symBinAddr: 0x1000351F8, symSize: 0x28 }
  - { offsetInCU: 0x4D201, offset: 0x4D201, size: 0x8, addend: 0x0, symName: __ZNKSt3__112basic_stringIcNS_11char_traitsIcEENS_9allocatorIcEEE7compareB8ue170006ERKS5_, symObjAddr: 0x34B20, symBinAddr: 0x100035258, symSize: 0x4C }
  - { offsetInCU: 0x4D238, offset: 0x4D238, size: 0x8, addend: 0x0, symName: __ZNKSt3__112basic_stringIcNS_11char_traitsIcEENS_9allocatorIcEEE7compareINS_17basic_string_viewIcS2_EELi0EEEiRKT_, symObjAddr: 0x34B6C, symBinAddr: 0x1000352A4, symSize: 0x140 }
  - { offsetInCU: 0x4D2BB, offset: 0x4D2BB, size: 0x8, addend: 0x0, symName: __ZNKSt3__112basic_stringIcNS_11char_traitsIcEENS_9allocatorIcEEEcvNS_17basic_string_viewIcS2_EEB8ue170006Ev, symObjAddr: 0x34CAC, symBinAddr: 0x1000353E4, symSize: 0x50 }
  - { offsetInCU: 0x4D2E1, offset: 0x4D2E1, size: 0x8, addend: 0x0, symName: __ZNKSt3__117basic_string_viewIcNS_11char_traitsIcEEE4sizeB8ue170006Ev, symObjAddr: 0x34CFC, symBinAddr: 0x100035434, symSize: 0x18 }
  - { offsetInCU: 0x4D307, offset: 0x4D307, size: 0x8, addend: 0x0, symName: __ZNKSt3__117basic_string_viewIcNS_11char_traitsIcEEE4dataB8ue170006Ev, symObjAddr: 0x34D14, symBinAddr: 0x10003544C, symSize: 0x18 }
  - { offsetInCU: 0x4D32D, offset: 0x4D32D, size: 0x8, addend: 0x0, symName: __ZNSt3__117basic_string_viewIcNS_11char_traitsIcEEEC1B8ue170006EPKcm, symObjAddr: 0x34D2C, symBinAddr: 0x100035464, symSize: 0x3C }
  - { offsetInCU: 0x4D375, offset: 0x4D375, size: 0x8, addend: 0x0, symName: __ZNSt3__117basic_string_viewIcNS_11char_traitsIcEEEC2B8ue170006EPKcm, symObjAddr: 0x34D68, symBinAddr: 0x1000354A0, symSize: 0x2C }
  - { offsetInCU: 0x4D3BD, offset: 0x4D3BD, size: 0x8, addend: 0x0, symName: __ZNKSt3__112regex_traitsIcE19__transform_primaryIPcEENS_12basic_stringIcNS_11char_traitsIcEENS_9allocatorIcEEEET_SA_c, symObjAddr: 0x34D94, symBinAddr: 0x1000354CC, symSize: 0x1A8 }
  - { offsetInCU: 0x4D467, offset: 0x4D467, size: 0x8, addend: 0x0, symName: __ZNKSt3__111__wrap_iterIPKcE4baseB8ue170006Ev, symObjAddr: 0x34F84, symBinAddr: 0x1000356BC, symSize: 0x18 }
  - { offsetInCU: 0x4D48D, offset: 0x4D48D, size: 0x8, addend: 0x0, symName: __ZNSt3__118__unwrap_iter_implINS_11__wrap_iterIPKcEELb1EE8__rewrapB8ue170006ES4_S3_, symObjAddr: 0x350A0, symBinAddr: 0x1000357D8, symSize: 0x54 }
  - { offsetInCU: 0x4D4BE, offset: 0x4D4BE, size: 0x8, addend: 0x0, symName: __ZNKSt3__111__wrap_iterIPKcEplB8ue170006El, symObjAddr: 0x350F4, symBinAddr: 0x10003582C, symSize: 0x3C }
  - { offsetInCU: 0x4D500, offset: 0x4D500, size: 0x8, addend: 0x0, symName: __ZNSt3__111__wrap_iterIPKcEpLB8ue170006El, symObjAddr: 0x35154, symBinAddr: 0x10003588C, symSize: 0x28 }
  - { offsetInCU: 0x4D53A, offset: 0x4D53A, size: 0x8, addend: 0x0, symName: __ZNSt3__119__to_address_helperINS_11__wrap_iterIPKcEEvE6__callB8ue170006ERKS4_, symObjAddr: 0x3517C, symBinAddr: 0x1000358B4, symSize: 0x30 }
  - { offsetInCU: 0x4D55D, offset: 0x4D55D, size: 0x8, addend: 0x0, symName: __ZNSt3__114pointer_traitsINS_11__wrap_iterIPKcEEE10to_addressB8ue170006ES4_, symObjAddr: 0x351AC, symBinAddr: 0x1000358E4, symSize: 0x2C }
  - { offsetInCU: 0x4D580, offset: 0x4D580, size: 0x8, addend: 0x0, symName: __ZNSt3__118__unwrap_iter_implINS_11__wrap_iterIPKcEELb1EE8__unwrapB8ue170006ES4_, symObjAddr: 0x35298, symBinAddr: 0x1000359D0, symSize: 0x28 }
  - { offsetInCU: 0x4D5A3, offset: 0x4D5A3, size: 0x8, addend: 0x0, symName: __ZNKSt3__16vectorIcNS_9allocatorIcEEE11__make_iterB8ue170006EPKc, symObjAddr: 0x352C0, symBinAddr: 0x1000359F8, symSize: 0x30 }
  - { offsetInCU: 0x4D5D8, offset: 0x4D5D8, size: 0x8, addend: 0x0, symName: __ZNSt3__111__wrap_iterIPKcEC1B8ue170006ES2_, symObjAddr: 0x352F0, symBinAddr: 0x100035A28, symSize: 0x34 }
  - { offsetInCU: 0x4D610, offset: 0x4D610, size: 0x8, addend: 0x0, symName: __ZNSt3__111__wrap_iterIPKcEC2B8ue170006ES2_, symObjAddr: 0x35324, symBinAddr: 0x100035A5C, symSize: 0x20 }
  - { offsetInCU: 0x4D648, offset: 0x4D648, size: 0x8, addend: 0x0, symName: __ZNSt3__16vectorIcNS_9allocatorIcEEE9push_backB8ue170006EOc, symObjAddr: 0x35344, symBinAddr: 0x100035A7C, symSize: 0x6C }
  - { offsetInCU: 0x4D67F, offset: 0x4D67F, size: 0x8, addend: 0x0, symName: __ZNSt3__16vectorIcNS_9allocatorIcEEE9push_backB8ue170006ERKc, symObjAddr: 0x353B0, symBinAddr: 0x100035AE8, symSize: 0x6C }
  - { offsetInCU: 0x4D6B6, offset: 0x4D6B6, size: 0x8, addend: 0x0, symName: __ZNSt3__16vectorIcNS_9allocatorIcEEE9__end_capB8ue170006Ev, symObjAddr: 0x3541C, symBinAddr: 0x100035B54, symSize: 0x28 }
  - { offsetInCU: 0x4D6E2, offset: 0x4D6E2, size: 0x8, addend: 0x0, symName: __ZNSt3__16vectorIcNS_9allocatorIcEEE22__construct_one_at_endB8ue170006IJcEEEvDpOT_, symObjAddr: 0x35444, symBinAddr: 0x100035B7C, symSize: 0x98 }
  - { offsetInCU: 0x4D731, offset: 0x4D731, size: 0x8, addend: 0x0, symName: __ZNSt3__16vectorIcNS_9allocatorIcEEE21__push_back_slow_pathIcEEvOT_, symObjAddr: 0x354DC, symBinAddr: 0x100035C14, symSize: 0xE0 }
  - { offsetInCU: 0x4D78F, offset: 0x4D78F, size: 0x8, addend: 0x0, symName: __ZNSt3__117__compressed_pairIPcNS_9allocatorIcEEE5firstB8ue170006Ev, symObjAddr: 0x355BC, symBinAddr: 0x100035CF4, symSize: 0x24 }
  - { offsetInCU: 0x4D7B5, offset: 0x4D7B5, size: 0x8, addend: 0x0, symName: __ZNSt3__122__compressed_pair_elemIPcLi0ELb0EE5__getB8ue170006Ev, symObjAddr: 0x355E0, symBinAddr: 0x100035D18, symSize: 0x14 }
  - { offsetInCU: 0x4D7F7, offset: 0x4D7F7, size: 0x8, addend: 0x0, symName: __ZNSt3__16vectorIcNS_9allocatorIcEEE21_ConstructTransactionC1B8ue170006ERS3_m, symObjAddr: 0x355F4, symBinAddr: 0x100035D2C, symSize: 0x3C }
  - { offsetInCU: 0x4D83F, offset: 0x4D83F, size: 0x8, addend: 0x0, symName: __ZNSt3__116allocator_traitsINS_9allocatorIcEEE9constructB8ue170006IcJcEvEEvRS2_PT_DpOT0_, symObjAddr: 0x35630, symBinAddr: 0x100035D68, symSize: 0x34 }
  - { offsetInCU: 0x4D896, offset: 0x4D896, size: 0x8, addend: 0x0, symName: __ZNSt3__16vectorIcNS_9allocatorIcEEE21_ConstructTransactionD1B8ue170006Ev, symObjAddr: 0x35664, symBinAddr: 0x100035D9C, symSize: 0x2C }
  - { offsetInCU: 0x4D8C0, offset: 0x4D8C0, size: 0x8, addend: 0x0, symName: __ZNSt3__16vectorIcNS_9allocatorIcEEE21_ConstructTransactionC2B8ue170006ERS3_m, symObjAddr: 0x35690, symBinAddr: 0x100035DC8, symSize: 0x44 }
  - { offsetInCU: 0x4D908, offset: 0x4D908, size: 0x8, addend: 0x0, symName: __ZNSt3__19allocatorIcE9constructB8ue170006IcJcEEEvPT_DpOT0_, symObjAddr: 0x356D4, symBinAddr: 0x100035E0C, symSize: 0x28 }
  - { offsetInCU: 0x4D95E, offset: 0x4D95E, size: 0x8, addend: 0x0, symName: __ZNSt3__16vectorIcNS_9allocatorIcEEE21_ConstructTransactionD2B8ue170006Ev, symObjAddr: 0x356FC, symBinAddr: 0x100035E34, symSize: 0x20 }
  - { offsetInCU: 0x4D988, offset: 0x4D988, size: 0x8, addend: 0x0, symName: __ZNKSt3__16vectorIcNS_9allocatorIcEEE11__recommendB8ue170006Em, symObjAddr: 0x3571C, symBinAddr: 0x100035E54, symSize: 0xB4 }
  - { offsetInCU: 0x4D9DD, offset: 0x4D9DD, size: 0x8, addend: 0x0, symName: __ZNSt3__114__split_bufferIcRNS_9allocatorIcEEEC1EmmS3_, symObjAddr: 0x357D0, symBinAddr: 0x100035F08, symSize: 0x44 }
  - { offsetInCU: 0x4DA33, offset: 0x4DA33, size: 0x8, addend: 0x0, symName: __ZNSt3__114__split_bufferIcRNS_9allocatorIcEEED1Ev, symObjAddr: 0x35924, symBinAddr: 0x10003605C, symSize: 0x2C }
  - { offsetInCU: 0x4DA5F, offset: 0x4DA5F, size: 0x8, addend: 0x0, symName: __ZNKSt3__16vectorIcNS_9allocatorIcEEE8max_sizeEv, symObjAddr: 0x35950, symBinAddr: 0x100036088, symSize: 0x74 }
  - { offsetInCU: 0x4DA87, offset: 0x4DA87, size: 0x8, addend: 0x0, symName: __ZNKSt3__16vectorIcNS_9allocatorIcEEE20__throw_length_errorB8ue170006Ev, symObjAddr: 0x359C4, symBinAddr: 0x1000360FC, symSize: 0x1C }
  - { offsetInCU: 0x4DAAD, offset: 0x4DAAD, size: 0x8, addend: 0x0, symName: __ZNKSt3__16vectorIcNS_9allocatorIcEEE7__allocB8ue170006Ev, symObjAddr: 0x359E0, symBinAddr: 0x100036118, symSize: 0x28 }
  - { offsetInCU: 0x4DAD3, offset: 0x4DAD3, size: 0x8, addend: 0x0, symName: __ZNKSt3__117__compressed_pairIPcNS_9allocatorIcEEE6secondB8ue170006Ev, symObjAddr: 0x35A08, symBinAddr: 0x100036140, symSize: 0x24 }
  - { offsetInCU: 0x4DAF9, offset: 0x4DAF9, size: 0x8, addend: 0x0, symName: __ZNSt3__114__split_bufferIcRNS_9allocatorIcEEEC2EmmS3_, symObjAddr: 0x35A2C, symBinAddr: 0x100036164, symSize: 0xD4 }
  - { offsetInCU: 0x4DB6D, offset: 0x4DB6D, size: 0x8, addend: 0x0, symName: __ZNSt3__117__compressed_pairIPcRNS_9allocatorIcEEEC1B8ue170006IDnS4_EEOT_OT0_, symObjAddr: 0x35B00, symBinAddr: 0x100036238, symSize: 0x3C }
  - { offsetInCU: 0x4DBC5, offset: 0x4DBC5, size: 0x8, addend: 0x0, symName: __ZNSt3__114__split_bufferIcRNS_9allocatorIcEEE7__allocB8ue170006Ev, symObjAddr: 0x35B3C, symBinAddr: 0x100036274, symSize: 0x28 }
  - { offsetInCU: 0x4DBEB, offset: 0x4DBEB, size: 0x8, addend: 0x0, symName: __ZNSt3__114__split_bufferIcRNS_9allocatorIcEEE9__end_capB8ue170006Ev, symObjAddr: 0x35B64, symBinAddr: 0x10003629C, symSize: 0x28 }
  - { offsetInCU: 0x4DC11, offset: 0x4DC11, size: 0x8, addend: 0x0, symName: __ZNSt3__117__compressed_pairIPcRNS_9allocatorIcEEEC2B8ue170006IDnS4_EEOT_OT0_, symObjAddr: 0x35B8C, symBinAddr: 0x1000362C4, symSize: 0x48 }
  - { offsetInCU: 0x4DC69, offset: 0x4DC69, size: 0x8, addend: 0x0, symName: __ZNSt3__122__compressed_pair_elemIRNS_9allocatorIcEELi1ELb0EEC2B8ue170006IS3_vEEOT_, symObjAddr: 0x35BD4, symBinAddr: 0x10003630C, symSize: 0x20 }
  - { offsetInCU: 0x4DCAB, offset: 0x4DCAB, size: 0x8, addend: 0x0, symName: __ZNSt3__117__compressed_pairIPcRNS_9allocatorIcEEE6secondB8ue170006Ev, symObjAddr: 0x35BF4, symBinAddr: 0x10003632C, symSize: 0x28 }
  - { offsetInCU: 0x4DCD1, offset: 0x4DCD1, size: 0x8, addend: 0x0, symName: __ZNSt3__122__compressed_pair_elemIRNS_9allocatorIcEELi1ELb0EE5__getB8ue170006Ev, symObjAddr: 0x35C1C, symBinAddr: 0x100036354, symSize: 0x18 }
  - { offsetInCU: 0x4DCF7, offset: 0x4DCF7, size: 0x8, addend: 0x0, symName: __ZNSt3__117__compressed_pairIPcRNS_9allocatorIcEEE5firstB8ue170006Ev, symObjAddr: 0x35C34, symBinAddr: 0x10003636C, symSize: 0x24 }
  - { offsetInCU: 0x4DD1D, offset: 0x4DD1D, size: 0x8, addend: 0x0, symName: __ZNSt3__116reverse_iteratorIPcEC1B8ue170006ES1_, symObjAddr: 0x35D40, symBinAddr: 0x100036478, symSize: 0x34 }
  - { offsetInCU: 0x4DD55, offset: 0x4DD55, size: 0x8, addend: 0x0, symName: __ZNKSt3__116reverse_iteratorIPcE4baseB8ue170006Ev, symObjAddr: 0x35D74, symBinAddr: 0x1000364AC, symSize: 0x18 }
  - { offsetInCU: 0x4DD7B, offset: 0x4DD7B, size: 0x8, addend: 0x0, symName: __ZNKSt3__16vectorIcNS_9allocatorIcEEE14__annotate_newB8ue170006Em, symObjAddr: 0x35DC8, symBinAddr: 0x100036500, symSize: 0xAC }
  - { offsetInCU: 0x4DDB0, offset: 0x4DDB0, size: 0x8, addend: 0x0, symName: __ZNKSt3__116reverse_iteratorIPcEdeB8ue170006Ev, symObjAddr: 0x35F0C, symBinAddr: 0x100036644, symSize: 0x28 }
  - { offsetInCU: 0x4DDE4, offset: 0x4DDE4, size: 0x8, addend: 0x0, symName: __ZNSt3__116reverse_iteratorIPcEppB8ue170006Ev, symObjAddr: 0x35F34, symBinAddr: 0x10003666C, symSize: 0x20 }
  - { offsetInCU: 0x4DE10, offset: 0x4DE10, size: 0x8, addend: 0x0, symName: __ZNSt3__119__to_address_helperINS_16reverse_iteratorIPcEEvE6__callB8ue170006ERKS3_, symObjAddr: 0x35FCC, symBinAddr: 0x100036704, symSize: 0x4C }
  - { offsetInCU: 0x4DE33, offset: 0x4DE33, size: 0x8, addend: 0x0, symName: __ZNKSt3__116reverse_iteratorIPcEptB8ue170006Ev, symObjAddr: 0x36018, symBinAddr: 0x100036750, symSize: 0x24 }
  - { offsetInCU: 0x4DE76, offset: 0x4DE76, size: 0x8, addend: 0x0, symName: __ZNKSt3__111__move_loopINS_17_ClassicAlgPolicyEEclB8ue170006INS_16reverse_iteratorIPcEES6_S6_EENS_4pairIT_T1_EES8_T0_S9_, symObjAddr: 0x362B4, symBinAddr: 0x1000369EC, symSize: 0xA0 }
  - { offsetInCU: 0x4DEE1, offset: 0x4DEE1, size: 0x8, addend: 0x0, symName: __ZNSt3__18_IterOpsINS_17_ClassicAlgPolicyEE11__iter_moveB8ue170006IRNS_16reverse_iteratorIPcEEEENS_9enable_ifIXsr12is_referenceIDTdeclsr3stdE7declvalIRT_EEEEE5valueEDTclsr3stdE4movedeclsr3stdE7declvalISA_EEEEE4typeEOS9_, symObjAddr: 0x364B4, symBinAddr: 0x100036BEC, symSize: 0x28 }
  - { offsetInCU: 0x4DF0D, offset: 0x4DF0D, size: 0x8, addend: 0x0, symName: __ZNSt3__18_IterOpsINS_17_ClassicAlgPolicyEE25__validate_iter_referenceB8ue170006IRNS_16reverse_iteratorIPcEEEEvv, symObjAddr: 0x364DC, symBinAddr: 0x100036C14, symSize: 0x4 }
  - { offsetInCU: 0x4DF2B, offset: 0x4DF2B, size: 0x8, addend: 0x0, symName: __ZNSt3__118__unwrap_iter_implINS_16reverse_iteratorIPcEELb0EE8__unwrapB8ue170006ES3_, symObjAddr: 0x364E0, symBinAddr: 0x100036C18, symSize: 0x24 }
  - { offsetInCU: 0x4DF4E, offset: 0x4DF4E, size: 0x8, addend: 0x0, symName: __ZNSt3__14pairINS_16reverse_iteratorIPcEES3_EC1B8ue170006ERKS3_S6_, symObjAddr: 0x36504, symBinAddr: 0x100036C3C, symSize: 0x3C }
  - { offsetInCU: 0x4DF94, offset: 0x4DF94, size: 0x8, addend: 0x0, symName: __ZNSt3__14pairINS_16reverse_iteratorIPcEES3_EC2B8ue170006ERKS3_S6_, symObjAddr: 0x36540, symBinAddr: 0x100036C78, symSize: 0x34 }
  - { offsetInCU: 0x4DFDA, offset: 0x4DFDA, size: 0x8, addend: 0x0, symName: __ZNSt3__118__unwrap_iter_implINS_16reverse_iteratorIPcEELb0EE8__rewrapB8ue170006ES3_S3_, symObjAddr: 0x36574, symBinAddr: 0x100036CAC, symSize: 0x2C }
  - { offsetInCU: 0x4E007, offset: 0x4E007, size: 0x8, addend: 0x0, symName: __ZNSt3__116reverse_iteratorIPcEC2B8ue170006ES1_, symObjAddr: 0x365A0, symBinAddr: 0x100036CD8, symSize: 0x28 }
  - { offsetInCU: 0x4E03F, offset: 0x4E03F, size: 0x8, addend: 0x0, symName: __ZNSt3__114__split_bufferIcRNS_9allocatorIcEEED2Ev, symObjAddr: 0x365C8, symBinAddr: 0x100036D00, symSize: 0x80 }
  - { offsetInCU: 0x4E06B, offset: 0x4E06B, size: 0x8, addend: 0x0, symName: __ZNSt3__114__split_bufferIcRNS_9allocatorIcEEE5clearB8ue170006Ev, symObjAddr: 0x36648, symBinAddr: 0x100036D80, symSize: 0x28 }
  - { offsetInCU: 0x4E091, offset: 0x4E091, size: 0x8, addend: 0x0, symName: __ZNKSt3__114__split_bufferIcRNS_9allocatorIcEEE8capacityB8ue170006Ev, symObjAddr: 0x36670, symBinAddr: 0x100036DA8, symSize: 0x38 }
  - { offsetInCU: 0x4E0B7, offset: 0x4E0B7, size: 0x8, addend: 0x0, symName: __ZNSt3__114__split_bufferIcRNS_9allocatorIcEEE17__destruct_at_endB8ue170006EPc, symObjAddr: 0x366A8, symBinAddr: 0x100036DE0, symSize: 0x2C }
  - { offsetInCU: 0x4E0EB, offset: 0x4E0EB, size: 0x8, addend: 0x0, symName: __ZNSt3__114__split_bufferIcRNS_9allocatorIcEEE17__destruct_at_endB8ue170006EPcNS_17integral_constantIbLb0EEE, symObjAddr: 0x366D4, symBinAddr: 0x100036E0C, symSize: 0x94 }
  - { offsetInCU: 0x4E12B, offset: 0x4E12B, size: 0x8, addend: 0x0, symName: __ZNKSt3__114__split_bufferIcRNS_9allocatorIcEEE9__end_capB8ue170006Ev, symObjAddr: 0x36768, symBinAddr: 0x100036EA0, symSize: 0x28 }
  - { offsetInCU: 0x4E151, offset: 0x4E151, size: 0x8, addend: 0x0, symName: __ZNKSt3__117__compressed_pairIPcRNS_9allocatorIcEEE5firstB8ue170006Ev, symObjAddr: 0x36790, symBinAddr: 0x100036EC8, symSize: 0x24 }
  - { offsetInCU: 0x4E177, offset: 0x4E177, size: 0x8, addend: 0x0, symName: __ZNSt3__16vectorIcNS_9allocatorIcEEE22__construct_one_at_endB8ue170006IJRKcEEEvDpOT_, symObjAddr: 0x367B4, symBinAddr: 0x100036EEC, symSize: 0x98 }
  - { offsetInCU: 0x4E1C6, offset: 0x4E1C6, size: 0x8, addend: 0x0, symName: __ZNSt3__16vectorIcNS_9allocatorIcEEE21__push_back_slow_pathIRKcEEvOT_, symObjAddr: 0x3684C, symBinAddr: 0x100036F84, symSize: 0xE0 }
  - { offsetInCU: 0x4E224, offset: 0x4E224, size: 0x8, addend: 0x0, symName: __ZNSt3__116allocator_traitsINS_9allocatorIcEEE9constructB8ue170006IcJRKcEvEEvRS2_PT_DpOT0_, symObjAddr: 0x3692C, symBinAddr: 0x100037064, symSize: 0x34 }
  - { offsetInCU: 0x4E27B, offset: 0x4E27B, size: 0x8, addend: 0x0, symName: __ZNSt3__19allocatorIcE9constructB8ue170006IcJRKcEEEvPT_DpOT0_, symObjAddr: 0x36960, symBinAddr: 0x100037098, symSize: 0x28 }
  - { offsetInCU: 0x4E2D1, offset: 0x4E2D1, size: 0x8, addend: 0x0, symName: __ZNKSt3__112regex_traitsIcE5valueB8ue170006Eci, symObjAddr: 0x36988, symBinAddr: 0x1000370C0, symSize: 0x34 }
  - { offsetInCU: 0x4E315, offset: 0x4E315, size: 0x8, addend: 0x0, symName: __ZNKSt3__112regex_traitsIcE20__regex_traits_valueB8ue170006Eci, symObjAddr: 0x369BC, symBinAddr: 0x1000370F4, symSize: 0x30 }
  - { offsetInCU: 0x4E359, offset: 0x4E359, size: 0x8, addend: 0x0, symName: __ZNSt3__112regex_traitsIcE20__regex_traits_valueEhi, symObjAddr: 0x369EC, symBinAddr: 0x100037124, symSize: 0xE8 }
  - { offsetInCU: 0x4E38E, offset: 0x4E38E, size: 0x8, addend: 0x0, symName: __ZNSt3__111basic_regexIcNS_12regex_traitsIcEEE19__parse_follow_listIPKcEET_S7_S7_PNS_20__bracket_expressionIcS2_EE, symObjAddr: 0x36B98, symBinAddr: 0x1000372D0, symSize: 0x94 }
  - { offsetInCU: 0x4E40A, offset: 0x4E40A, size: 0x8, addend: 0x0, symName: __ZNSt3__111basic_regexIcNS_12regex_traitsIcEEE23__parse_expression_termIPKcEET_S7_S7_PNS_20__bracket_expressionIcS2_EE, symObjAddr: 0x36C2C, symBinAddr: 0x100037364, symSize: 0x754 }
  - { offsetInCU: 0x4E4B3, offset: 0x4E4B3, size: 0x8, addend: 0x0, symName: __ZNSt3__111basic_regexIcNS_12regex_traitsIcEEE25__parse_equivalence_classIPKcEET_S7_S7_PNS_20__bracket_expressionIcS2_EE, symObjAddr: 0x37380, symBinAddr: 0x100037AB8, symSize: 0x248 }
  - { offsetInCU: 0x4E54F, offset: 0x4E54F, size: 0x8, addend: 0x0, symName: __ZNSt3__111basic_regexIcNS_12regex_traitsIcEEE23__parse_character_classIPKcEET_S7_S7_PNS_20__bracket_expressionIcS2_EE, symObjAddr: 0x375C8, symBinAddr: 0x100037D00, symSize: 0xF4 }
  - { offsetInCU: 0x4E5E6, offset: 0x4E5E6, size: 0x8, addend: 0x0, symName: __ZNSt3__111basic_regexIcNS_12regex_traitsIcEEE24__parse_collating_symbolIPKcEET_S7_S7_RNS_12basic_stringIcNS_11char_traitsIcEENS_9allocatorIcEEEE, symObjAddr: 0x376BC, symBinAddr: 0x100037DF4, symSize: 0x108 }
  - { offsetInCU: 0x4E662, offset: 0x4E662, size: 0x8, addend: 0x0, symName: __ZNSt3__111basic_regexIcNS_12regex_traitsIcEEE20__parse_class_escapeIPKcEET_S7_S7_RNS_12basic_stringIcNS_11char_traitsIcEENS_9allocatorIcEEEEPNS_20__bracket_expressionIcS2_EE, symObjAddr: 0x377C4, symBinAddr: 0x100037EFC, symSize: 0x25C }
  - { offsetInCU: 0x4E6CF, offset: 0x4E6CF, size: 0x8, addend: 0x0, symName: __ZNSt3__111basic_regexIcNS_12regex_traitsIcEEE18__parse_awk_escapeIPKcEET_S7_S7_PNS_12basic_stringIcNS_11char_traitsIcEENS_9allocatorIcEEEE, symObjAddr: 0x37A20, symBinAddr: 0x100038158, symSize: 0x484 }
  - { offsetInCU: 0x4E74B, offset: 0x4E74B, size: 0x8, addend: 0x0, symName: __ZNSt3__120__bracket_expressionIcNS_12regex_traitsIcEEE11__add_rangeB8ue170006ENS_12basic_stringIcNS_11char_traitsIcEENS_9allocatorIcEEEES9_, symObjAddr: 0x37FF8, symBinAddr: 0x100038730, symSize: 0x4F0 }
  - { offsetInCU: 0x4E80A, offset: 0x4E80A, size: 0x8, addend: 0x0, symName: __ZNSt3__120__bracket_expressionIcNS_12regex_traitsIcEEE13__add_digraphB8ue170006Ecc, symObjAddr: 0x384E8, symBinAddr: 0x100038C20, symSize: 0x13C }
  - { offsetInCU: 0x4E84E, offset: 0x4E84E, size: 0x8, addend: 0x0, symName: __ZNKSt3__112regex_traitsIcE18lookup_collatenameB8ue170006IPKcEENS_12basic_stringIcNS_11char_traitsIcEENS_9allocatorIcEEEET_SB_, symObjAddr: 0x38660, symBinAddr: 0x100038D98, symSize: 0x40 }
  - { offsetInCU: 0x4E89B, offset: 0x4E89B, size: 0x8, addend: 0x0, symName: __ZNKSt3__112regex_traitsIcE17transform_primaryB8ue170006INS_11__wrap_iterIPcEEEENS_12basic_stringIcNS_11char_traitsIcEENS_9allocatorIcEEEET_SC_, symObjAddr: 0x38700, symBinAddr: 0x100038E38, symSize: 0x50 }
  - { offsetInCU: 0x4E8E8, offset: 0x4E8E8, size: 0x8, addend: 0x0, symName: __ZNSt3__112basic_stringIcNS_11char_traitsIcEENS_9allocatorIcEEE5beginB8ue170006Ev, symObjAddr: 0x38750, symBinAddr: 0x100038E88, symSize: 0x60 }
  - { offsetInCU: 0x4E90E, offset: 0x4E90E, size: 0x8, addend: 0x0, symName: __ZNSt3__112basic_stringIcNS_11char_traitsIcEENS_9allocatorIcEEE3endB8ue170006Ev, symObjAddr: 0x387B0, symBinAddr: 0x100038EE8, symSize: 0x54 }
  - { offsetInCU: 0x4E934, offset: 0x4E934, size: 0x8, addend: 0x0, symName: __ZNSt3__120__bracket_expressionIcNS_12regex_traitsIcEEE17__add_equivalenceB8ue170006ERKNS_12basic_stringIcNS_11char_traitsIcEENS_9allocatorIcEEEE, symObjAddr: 0x38804, symBinAddr: 0x100038F3C, symSize: 0x30 }
  - { offsetInCU: 0x4E969, offset: 0x4E969, size: 0x8, addend: 0x0, symName: __ZNSt3__14pairIPKcS2_EC1B8ue170006ERKS2_S5_, symObjAddr: 0x38B7C, symBinAddr: 0x1000392B4, symSize: 0x3C }
  - { offsetInCU: 0x4E9AF, offset: 0x4E9AF, size: 0x8, addend: 0x0, symName: __ZNSt3__14pairIPKcS2_EC2B8ue170006ERKS2_S5_, symObjAddr: 0x38BB8, symBinAddr: 0x1000392F0, symSize: 0x34 }
  - { offsetInCU: 0x4E9FB, offset: 0x4E9FB, size: 0x8, addend: 0x0, symName: __ZNSt3__18_IterOpsINS_17_ClassicAlgPolicyEE12__advance_toB8ue170006IPKcEEvRT_S6_, symObjAddr: 0x38BEC, symBinAddr: 0x100039324, symSize: 0x20 }
  - { offsetInCU: 0x4EA40, offset: 0x4EA40, size: 0x8, addend: 0x0, symName: __ZNKSt3__110__equal_toclB8ue170006IccEEbRKT_RKT0_, symObjAddr: 0x38CD4, symBinAddr: 0x10003940C, symSize: 0x34 }
  - { offsetInCU: 0x4EA9F, offset: 0x4EA9F, size: 0x8, addend: 0x0, symName: __ZNKSt3__110__identityclB8ue170006IRKcEEOT_S5_, symObjAddr: 0x38D08, symBinAddr: 0x100039440, symSize: 0x18 }
  - { offsetInCU: 0x4EADC, offset: 0x4EADC, size: 0x8, addend: 0x0, symName: __ZNKSt3__110__identityclB8ue170006IRcEEOT_S4_, symObjAddr: 0x38D20, symBinAddr: 0x100039458, symSize: 0x18 }
  - { offsetInCU: 0x4EB19, offset: 0x4EB19, size: 0x8, addend: 0x0, symName: __ZNKSt3__112regex_traitsIcE20__lookup_collatenameIPKcEENS_12basic_stringIcNS_11char_traitsIcEENS_9allocatorIcEEEET_SB_c, symObjAddr: 0x38D38, symBinAddr: 0x100039470, symSize: 0x27C }
  - { offsetInCU: 0x4EBC3, offset: 0x4EBC3, size: 0x8, addend: 0x0, symName: __ZNSt3__112basic_stringIcNS_11char_traitsIcEENS_9allocatorIcEEEC1B8ue170006IPKcLi0EEET_S9_, symObjAddr: 0x38FB4, symBinAddr: 0x1000396EC, symSize: 0x3C }
  - { offsetInCU: 0x4EC1A, offset: 0x4EC1A, size: 0x8, addend: 0x0, symName: __ZNSt3__112basic_stringIcNS_11char_traitsIcEENS_9allocatorIcEEEC2B8ue170006IPKcLi0EEET_S9_, symObjAddr: 0x38FF0, symBinAddr: 0x100039728, symSize: 0x4C }
  - { offsetInCU: 0x4EC71, offset: 0x4EC71, size: 0x8, addend: 0x0, symName: __ZNSt3__112basic_stringIcNS_11char_traitsIcEENS_9allocatorIcEEE6__initIPKcLi0EEEvT_S9_, symObjAddr: 0x3903C, symBinAddr: 0x100039774, symSize: 0x54 }
  - { offsetInCU: 0x4ECD5, offset: 0x4ECD5, size: 0x8, addend: 0x0, symName: __ZNSt3__112basic_stringIcNS_11char_traitsIcEENS_9allocatorIcEEE16__init_with_sizeB8ue170006IPKcS8_EEvT_T0_m, symObjAddr: 0x390BC, symBinAddr: 0x1000397F4, symSize: 0x17C }
  - { offsetInCU: 0x4ED69, offset: 0x4ED69, size: 0x8, addend: 0x0, symName: __ZNKSt3__112regex_traitsIcE19__transform_primaryINS_11__wrap_iterIPcEEEENS_12basic_stringIcNS_11char_traitsIcEENS_9allocatorIcEEEET_SC_c, symObjAddr: 0x39258, symBinAddr: 0x100039990, symSize: 0x1B8 }
  - { offsetInCU: 0x4EE13, offset: 0x4EE13, size: 0x8, addend: 0x0, symName: __ZNSt3__112basic_stringIcNS_11char_traitsIcEENS_9allocatorIcEEEC1B8ue170006INS_11__wrap_iterIPcEELi0EEET_SA_, symObjAddr: 0x39410, symBinAddr: 0x100039B48, symSize: 0x3C }
  - { offsetInCU: 0x4EE6A, offset: 0x4EE6A, size: 0x8, addend: 0x0, symName: __ZNSt3__112basic_stringIcNS_11char_traitsIcEENS_9allocatorIcEEEC2B8ue170006INS_11__wrap_iterIPcEELi0EEET_SA_, symObjAddr: 0x3944C, symBinAddr: 0x100039B84, symSize: 0x5C }
  - { offsetInCU: 0x4EEC1, offset: 0x4EEC1, size: 0x8, addend: 0x0, symName: __ZNSt3__112basic_stringIcNS_11char_traitsIcEENS_9allocatorIcEEE6__initINS_11__wrap_iterIPcEELi0EEEvT_SA_, symObjAddr: 0x394A8, symBinAddr: 0x100039BE0, symSize: 0x74 }
  - { offsetInCU: 0x4EF25, offset: 0x4EF25, size: 0x8, addend: 0x0, symName: __ZNSt3__112basic_stringIcNS_11char_traitsIcEENS_9allocatorIcEEE16__init_with_sizeB8ue170006INS_11__wrap_iterIPcEES9_EEvT_T0_m, symObjAddr: 0x39558, symBinAddr: 0x100039C90, symSize: 0x184 }
  - { offsetInCU: 0x4EFBA, offset: 0x4EFBA, size: 0x8, addend: 0x0, symName: __ZNKSt3__111__wrap_iterIPcE4baseB8ue170006Ev, symObjAddr: 0x3974C, symBinAddr: 0x100039E84, symSize: 0x18 }
  - { offsetInCU: 0x4EFE0, offset: 0x4EFE0, size: 0x8, addend: 0x0, symName: __ZNKSt3__111__wrap_iterIPcEdeB8ue170006Ev, symObjAddr: 0x39798, symBinAddr: 0x100039ED0, symSize: 0x18 }
  - { offsetInCU: 0x4F006, offset: 0x4F006, size: 0x8, addend: 0x0, symName: __ZNSt3__111__wrap_iterIPcEppB8ue170006Ev, symObjAddr: 0x397B0, symBinAddr: 0x100039EE8, symSize: 0x20 }
  - { offsetInCU: 0x4F02C, offset: 0x4F02C, size: 0x8, addend: 0x0, symName: __ZNSt3__112basic_stringIcNS_11char_traitsIcEENS_9allocatorIcEEE15__make_iteratorB8ue170006EPc, symObjAddr: 0x39818, symBinAddr: 0x100039F50, symSize: 0x30 }
  - { offsetInCU: 0x4F061, offset: 0x4F061, size: 0x8, addend: 0x0, symName: __ZNSt3__112basic_stringIcNS_11char_traitsIcEENS_9allocatorIcEEE13__get_pointerB8ue170006Ev, symObjAddr: 0x39848, symBinAddr: 0x100039F80, symSize: 0x54 }
  - { offsetInCU: 0x4F087, offset: 0x4F087, size: 0x8, addend: 0x0, symName: __ZNSt3__111__wrap_iterIPcEC1B8ue170006ES1_, symObjAddr: 0x3989C, symBinAddr: 0x100039FD4, symSize: 0x34 }
  - { offsetInCU: 0x4F0BF, offset: 0x4F0BF, size: 0x8, addend: 0x0, symName: __ZNSt3__111__wrap_iterIPcEC2B8ue170006ES1_, symObjAddr: 0x398D0, symBinAddr: 0x10003A008, symSize: 0x20 }
  - { offsetInCU: 0x4F0F7, offset: 0x4F0F7, size: 0x8, addend: 0x0, symName: __ZNSt3__16vectorINS_12basic_stringIcNS_11char_traitsIcEENS_9allocatorIcEEEENS4_IS6_EEE9push_backB8ue170006ERKS6_, symObjAddr: 0x398F0, symBinAddr: 0x10003A028, symSize: 0x6C }
  - { offsetInCU: 0x4F12E, offset: 0x4F12E, size: 0x8, addend: 0x0, symName: __ZNSt3__16vectorINS_12basic_stringIcNS_11char_traitsIcEENS_9allocatorIcEEEENS4_IS6_EEE22__construct_one_at_endB8ue170006IJRKS6_EEEvDpOT_, symObjAddr: 0x3995C, symBinAddr: 0x10003A094, symSize: 0x98 }
  - { offsetInCU: 0x4F17D, offset: 0x4F17D, size: 0x8, addend: 0x0, symName: __ZNSt3__16vectorINS_12basic_stringIcNS_11char_traitsIcEENS_9allocatorIcEEEENS4_IS6_EEE21__push_back_slow_pathIRKS6_EEvOT_, symObjAddr: 0x399F4, symBinAddr: 0x10003A12C, symSize: 0xE0 }
  - { offsetInCU: 0x4F1DB, offset: 0x4F1DB, size: 0x8, addend: 0x0, symName: __ZNKSt3__112regex_traitsIcE16lookup_classnameB8ue170006IPKcEEjT_S5_b, symObjAddr: 0x39AD4, symBinAddr: 0x10003A20C, symSize: 0x4C }
  - { offsetInCU: 0x4F237, offset: 0x4F237, size: 0x8, addend: 0x0, symName: __ZNKSt3__112regex_traitsIcE18__lookup_classnameIPKcEEjT_S5_bc, symObjAddr: 0x39B80, symBinAddr: 0x10003A2B8, symSize: 0xF8 }
  - { offsetInCU: 0x4F2AF, offset: 0x4F2AF, size: 0x8, addend: 0x0, symName: __ZNKSt3__15ctypeIcE7tolowerB8ue170006EPcPKc, symObjAddr: 0x39C78, symBinAddr: 0x10003A3B0, symSize: 0x3C }
  - { offsetInCU: 0x4F2F3, offset: 0x4F2F3, size: 0x8, addend: 0x0, symName: __ZNSt3__120__bracket_expressionIcNS_12regex_traitsIcEEE15__add_neg_classB8ue170006Ej, symObjAddr: 0x39CB4, symBinAddr: 0x10003A3EC, symSize: 0x28 }
  - { offsetInCU: 0x4F328, offset: 0x4F328, size: 0x8, addend: 0x0, symName: __ZNSt3__120__bracket_expressionIcNS_12regex_traitsIcEEE14__add_neg_charB8ue170006Ec, symObjAddr: 0x39CDC, symBinAddr: 0x10003A414, symSize: 0xBC }
  - { offsetInCU: 0x4F35D, offset: 0x4F35D, size: 0x8, addend: 0x0, symName: __ZNSt3__16vectorINS_4pairINS_12basic_stringIcNS_11char_traitsIcEENS_9allocatorIcEEEES7_EENS5_IS8_EEE9push_backB8ue170006EOS8_, symObjAddr: 0x39D98, symBinAddr: 0x10003A4D0, symSize: 0x6C }
  - { offsetInCU: 0x4F394, offset: 0x4F394, size: 0x8, addend: 0x0, symName: __ZNKSt3__112regex_traitsIcE9transformINS_11__wrap_iterIPcEEEENS_12basic_stringIcNS_11char_traitsIcEENS_9allocatorIcEEEET_SC_, symObjAddr: 0x39E44, symBinAddr: 0x10003A57C, symSize: 0x108 }
  - { offsetInCU: 0x4F422, offset: 0x4F422, size: 0x8, addend: 0x0, symName: __ZNSt3__16vectorINS_4pairINS_12basic_stringIcNS_11char_traitsIcEENS_9allocatorIcEEEES7_EENS5_IS8_EEE9__end_capB8ue170006Ev, symObjAddr: 0x39FAC, symBinAddr: 0x10003A6E4, symSize: 0x28 }
  - { offsetInCU: 0x4F448, offset: 0x4F448, size: 0x8, addend: 0x0, symName: __ZNSt3__16vectorINS_4pairINS_12basic_stringIcNS_11char_traitsIcEENS_9allocatorIcEEEES7_EENS5_IS8_EEE22__construct_one_at_endB8ue170006IJS8_EEEvDpOT_, symObjAddr: 0x39FD4, symBinAddr: 0x10003A70C, symSize: 0x98 }
  - { offsetInCU: 0x4F497, offset: 0x4F497, size: 0x8, addend: 0x0, symName: __ZNSt3__16vectorINS_4pairINS_12basic_stringIcNS_11char_traitsIcEENS_9allocatorIcEEEES7_EENS5_IS8_EEE21__push_back_slow_pathIS8_EEvOT_, symObjAddr: 0x3A06C, symBinAddr: 0x10003A7A4, symSize: 0xE0 }
  - { offsetInCU: 0x4F4F5, offset: 0x4F4F5, size: 0x8, addend: 0x0, symName: __ZNSt3__117__compressed_pairIPNS_4pairINS_12basic_stringIcNS_11char_traitsIcEENS_9allocatorIcEEEES7_EENS5_IS8_EEE5firstB8ue170006Ev, symObjAddr: 0x3A14C, symBinAddr: 0x10003A884, symSize: 0x24 }
  - { offsetInCU: 0x4F51B, offset: 0x4F51B, size: 0x8, addend: 0x0, symName: __ZNSt3__122__compressed_pair_elemIPNS_4pairINS_12basic_stringIcNS_11char_traitsIcEENS_9allocatorIcEEEES7_EELi0ELb0EE5__getB8ue170006Ev, symObjAddr: 0x3A170, symBinAddr: 0x10003A8A8, symSize: 0x14 }
  - { offsetInCU: 0x4F55D, offset: 0x4F55D, size: 0x8, addend: 0x0, symName: __ZNSt3__16vectorINS_4pairINS_12basic_stringIcNS_11char_traitsIcEENS_9allocatorIcEEEES7_EENS5_IS8_EEE21_ConstructTransactionC1B8ue170006ERSA_m, symObjAddr: 0x3A184, symBinAddr: 0x10003A8BC, symSize: 0x3C }
  - { offsetInCU: 0x4F5A5, offset: 0x4F5A5, size: 0x8, addend: 0x0, symName: __ZNSt3__116allocator_traitsINS_9allocatorINS_4pairINS_12basic_stringIcNS_11char_traitsIcEENS1_IcEEEES7_EEEEE9constructB8ue170006IS8_JS8_EvEEvRS9_PT_DpOT0_, symObjAddr: 0x3A1C0, symBinAddr: 0x10003A8F8, symSize: 0x34 }
